
lights.elf:     file format elf32-littlenios2
lights.elf
architecture: nios2, flags 0x00000112:
EXEC_P, HAS_SYMS, D_PAGED
start address 0x080001b4

Program Header:
    LOAD off    0x00001000 vaddr 0x08000000 paddr 0x08000000 align 2**12
         filesz 0x00000020 memsz 0x00000020 flags r-x
    LOAD off    0x00001020 vaddr 0x08000020 paddr 0x08000020 align 2**12
         filesz 0x00018228 memsz 0x00018228 flags r-x
    LOAD off    0x00019248 vaddr 0x08018248 paddr 0x08019f84 align 2**12
         filesz 0x00001d3c memsz 0x00001d3c flags rw-
    LOAD off    0x0001bcc0 vaddr 0x0801bcc0 paddr 0x0801bcc0 align 2**12
         filesz 0x00000000 memsz 0x00000304 flags rw-

Sections:
Idx Name          Size      VMA       LMA       File off  Algn
  0 .entry        00000020  08000000  08000000  00001000  2**5
                  CONTENTS, ALLOC, LOAD, READONLY, CODE
  1 .exceptions   00000194  08000020  08000020  00001020  2**2
                  CONTENTS, ALLOC, LOAD, READONLY, CODE
  2 .text         00016d48  080001b4  080001b4  000011b4  2**2
                  CONTENTS, ALLOC, LOAD, READONLY, CODE
  3 .rodata       0000134c  08016efc  08016efc  00017efc  2**2
                  CONTENTS, ALLOC, LOAD, READONLY, DATA
  4 .rwdata       00001d3c  08018248  08019f84  00019248  2**2
                  CONTENTS, ALLOC, LOAD, DATA, SMALL_DATA
  5 .bss          00000304  0801bcc0  0801bcc0  0001bcc0  2**2
                  ALLOC, SMALL_DATA
  6 .comment      00000023  00000000  00000000  0001af84  2**0
                  CONTENTS, READONLY
  7 .debug_aranges 00001318  00000000  00000000  0001afa8  2**3
                  CONTENTS, READONLY, DEBUGGING
  8 .debug_pubnames 000021e0  00000000  00000000  0001c2c0  2**0
                  CONTENTS, READONLY, DEBUGGING
  9 .debug_info   00035f43  00000000  00000000  0001e4a0  2**0
                  CONTENTS, READONLY, DEBUGGING
 10 .debug_abbrev 0000bbf3  00000000  00000000  000543e3  2**0
                  CONTENTS, READONLY, DEBUGGING
 11 .debug_line   0001edb0  00000000  00000000  0005ffd6  2**0
                  CONTENTS, READONLY, DEBUGGING
 12 .debug_frame  00002998  00000000  00000000  0007ed88  2**2
                  CONTENTS, READONLY, DEBUGGING
 13 .debug_str    000030b1  00000000  00000000  00081720  2**0
                  CONTENTS, READONLY, DEBUGGING
 14 .debug_loc    0000fe7a  00000000  00000000  000847d1  2**0
                  CONTENTS, READONLY, DEBUGGING
 15 .debug_alt_sim_info 00000060  00000000  00000000  0009464c  2**2
                  CONTENTS, READONLY, DEBUGGING
 16 .debug_ranges 00000aa0  00000000  00000000  000946b0  2**3
                  CONTENTS, READONLY, DEBUGGING
 17 .thread_model 00000003  00000000  00000000  00099adb  2**0
                  CONTENTS, READONLY
 18 .cpu          00000005  00000000  00000000  00099ade  2**0
                  CONTENTS, READONLY
 19 .simulation_enabled 00000001  00000000  00000000  00099ae3  2**0
                  CONTENTS, READONLY
 20 .sysid_hash   00000004  00000000  00000000  00099ae4  2**0
                  CONTENTS, READONLY
 21 .sysid_base   00000004  00000000  00000000  00099ae8  2**0
                  CONTENTS, READONLY
 22 .sysid_time   00000004  00000000  00000000  00099aec  2**0
                  CONTENTS, READONLY
 23 .stderr_dev   00000005  00000000  00000000  00099af0  2**0
                  CONTENTS, READONLY
 24 .stdin_dev    0000000b  00000000  00000000  00099af5  2**0
                  CONTENTS, READONLY
 25 .stdout_dev   0000000b  00000000  00000000  00099b00  2**0
                  CONTENTS, READONLY
 26 .sopc_system_name 0000000b  00000000  00000000  00099b0b  2**0
                  CONTENTS, READONLY
 27 .quartus_project_dir 00000012  00000000  00000000  00099b16  2**0
                  CONTENTS, READONLY
 28 .jdi          000042c8  00000000  00000000  00099b28  2**0
                  CONTENTS, READONLY
 29 .sopcinfo     0009aa75  00000000  00000000  0009ddf0  2**0
                  CONTENTS, READONLY
SYMBOL TABLE:
08000000 l    d  .entry	00000000 .entry
08000020 l    d  .exceptions	00000000 .exceptions
080001b4 l    d  .text	00000000 .text
08016efc l    d  .rodata	00000000 .rodata
08018248 l    d  .rwdata	00000000 .rwdata
0801bcc0 l    d  .bss	00000000 .bss
00000000 l    d  .comment	00000000 .comment
00000000 l    d  .debug_aranges	00000000 .debug_aranges
00000000 l    d  .debug_pubnames	00000000 .debug_pubnames
00000000 l    d  .debug_info	00000000 .debug_info
00000000 l    d  .debug_abbrev	00000000 .debug_abbrev
00000000 l    d  .debug_line	00000000 .debug_line
00000000 l    d  .debug_frame	00000000 .debug_frame
00000000 l    d  .debug_str	00000000 .debug_str
00000000 l    d  .debug_loc	00000000 .debug_loc
00000000 l    d  .debug_alt_sim_info	00000000 .debug_alt_sim_info
00000000 l    d  .debug_ranges	00000000 .debug_ranges
080001fc l       .text	00000000 alt_after_alt_main
00000000 l    df *ABS*	00000000 alt_irq_handler.c
00000000 l    df *ABS*	00000000 hello_world.c
00000000 l    df *ABS*	00000000 sf_cos.c
00000000 l    df *ABS*	00000000 sf_floor.c
00000000 l    df *ABS*	00000000 sf_sin.c
00000000 l    df *ABS*	00000000 ef_rem_pio2.c
080170c8 l     O .rodata	00000318 two_over_pi
08017048 l     O .rodata	00000080 npio2_hw
00000000 l    df *ABS*	00000000 kf_cos.c
00000000 l    df *ABS*	00000000 kf_rem_pio2.c
080173e0 l     O .rodata	0000000c init_jk
080173ec l     O .rodata	0000002c PIo2
00000000 l    df *ABS*	00000000 kf_sin.c
00000000 l    df *ABS*	00000000 sf_fabs.c
00000000 l    df *ABS*	00000000 sf_scalbn.c
00000000 l    df *ABS*	00000000 sf_copysign.c
00000000 l    df *ABS*	00000000 fp-bit.c
08002a50 l     F .text	000001e4 _fpadd_parts
00000000 l    df *ABS*	00000000 fp-bit.c
00000000 l    df *ABS*	00000000 fp-bit.c
00000000 l    df *ABS*	00000000 fp-bit.c
00000000 l    df *ABS*	00000000 fp-bit.c
00000000 l    df *ABS*	00000000 fp-bit.c
00000000 l    df *ABS*	00000000 fp-bit.c
00000000 l    df *ABS*	00000000 fp-bit.c
00000000 l    df *ABS*	00000000 fp-bit.c
00000000 l    df *ABS*	00000000 fp-bit.c
00000000 l    df *ABS*	00000000 fp-bit.c
00000000 l    df *ABS*	00000000 dp-bit.c
00000000 l    df *ABS*	00000000 lib2-divmod.c
080032f8 l     F .text	0000007c udivmodsi4
00000000 l    df *ABS*	00000000 libgcc2.c
00000000 l    df *ABS*	00000000 libgcc2.c
00000000 l    df *ABS*	00000000 fp-bit.c
00000000 l    df *ABS*	00000000 fp-bit.c
00000000 l    df *ABS*	00000000 fp-bit.c
00000000 l    df *ABS*	00000000 dp-bit.c
00000000 l    df *ABS*	00000000 libgcc2.c
00000000 l    df *ABS*	00000000 fopen.c
00000000 l    df *ABS*	00000000 fread.c
00000000 l    df *ABS*	00000000 mallocr.c
00000000 l    df *ABS*	00000000 fseek.c
00000000 l    df *ABS*	00000000 fstatr.c
00000000 l    df *ABS*	00000000 impure.c
08018248 l     O .rwdata	00000400 impure_data
00000000 l    df *ABS*	00000000 int_errno.c
00000000 l    df *ABS*	00000000 makebuf.c
00000000 l    df *ABS*	00000000 malloc.c
00000000 l    df *ABS*	00000000 mallocr.c
00000000 l    df *ABS*	00000000 memcpy.c
00000000 l    df *ABS*	00000000 openr.c
00000000 l    df *ABS*	00000000 perror.c
00000000 l    df *ABS*	00000000 printf.c
00000000 l    df *ABS*	00000000 puts.c
00000000 l    df *ABS*	00000000 refill.c
08005524 l     F .text	0000001c lflush
00000000 l    df *ABS*	00000000 sbrkr.c
00000000 l    df *ABS*	00000000 stdio.c
00000000 l    df *ABS*	00000000 strerror.c
00000000 l    df *ABS*	00000000 strlen.c
00000000 l    df *ABS*	00000000 u_strerr.c
00000000 l    df *ABS*	00000000 vfprintf.c
08005dec l     F .text	00000058 __sprint_r
08017d46 l     O .rodata	00000010 blanks.3452
08017d36 l     O .rodata	00000010 zeroes.3453
00000000 l    df *ABS*	00000000 writer.c
00000000 l    df *ABS*	00000000 wsetup.c
00000000 l    df *ABS*	00000000 closer.c
00000000 l    df *ABS*	00000000 dtoa.c
08007f38 l     F .text	00000218 quorem
00000000 l    df *ABS*	00000000 fflush.c
00000000 l    df *ABS*	00000000 findfp.c
08009934 l     F .text	00000058 std
08009a40 l     F .text	00000008 __fp_lock
08009a48 l     F .text	00000008 __fp_unlock
00000000 l    df *ABS*	00000000 flags.c
00000000 l    df *ABS*	00000000 fputc.c
00000000 l    df *ABS*	00000000 fputs.c
00000000 l    df *ABS*	00000000 fvwrite.c
00000000 l    df *ABS*	00000000 fwalk.c
00000000 l    df *ABS*	00000000 isattyr.c
00000000 l    df *ABS*	00000000 locale.c
08019f48 l     O .rwdata	00000004 charset
08017d78 l     O .rodata	00000030 lconv
00000000 l    df *ABS*	00000000 lseekr.c
00000000 l    df *ABS*	00000000 memchr.c
00000000 l    df *ABS*	00000000 memmove.c
00000000 l    df *ABS*	00000000 memset.c
00000000 l    df *ABS*	00000000 mprec.c
08017ec0 l     O .rodata	0000000c p05.2458
00000000 l    df *ABS*	00000000 putc.c
00000000 l    df *ABS*	00000000 readr.c
00000000 l    df *ABS*	00000000 mallocr.c
00000000 l    df *ABS*	00000000 s_isinfd.c
00000000 l    df *ABS*	00000000 s_isnand.c
00000000 l    df *ABS*	00000000 strcmp.c
00000000 l    df *ABS*	00000000 wbuf.c
00000000 l    df *ABS*	00000000 mallocr.c
00000000 l    df *ABS*	00000000 fclose.c
00000000 l    df *ABS*	00000000 libgcc2.c
00000000 l    df *ABS*	00000000 libgcc2.c
00000000 l    df *ABS*	00000000 dp-bit.c
0800d02c l     F .text	00000410 _fpadd_parts
00000000 l    df *ABS*	00000000 dp-bit.c
00000000 l    df *ABS*	00000000 dp-bit.c
00000000 l    df *ABS*	00000000 dp-bit.c
00000000 l    df *ABS*	00000000 dp-bit.c
00000000 l    df *ABS*	00000000 dp-bit.c
00000000 l    df *ABS*	00000000 dp-bit.c
00000000 l    df *ABS*	00000000 dp-bit.c
00000000 l    df *ABS*	00000000 dp-bit.c
00000000 l    df *ABS*	00000000 dp-bit.c
00000000 l    df *ABS*	00000000 dp-bit.c
00000000 l    df *ABS*	00000000 dp-bit.c
00000000 l    df *ABS*	00000000 dp-bit.c
00000000 l    df *ABS*	00000000 dp-bit.c
00000000 l    df *ABS*	00000000 alt_close.c
0800e454 l     F .text	00000060 alt_get_errno
00000000 l    df *ABS*	00000000 alt_dev.c
0800e4b4 l     F .text	0000002c alt_dev_null_write
00000000 l    df *ABS*	00000000 alt_errno.c
00000000 l    df *ABS*	00000000 alt_fstat.c
0800e5b4 l     F .text	00000060 alt_get_errno
00000000 l    df *ABS*	00000000 alt_isatty.c
0800e6d4 l     F .text	00000060 alt_get_errno
00000000 l    df *ABS*	00000000 alt_load.c
0800e7b4 l     F .text	0000006c alt_load_section
00000000 l    df *ABS*	00000000 alt_lseek.c
0800e910 l     F .text	00000060 alt_get_errno
00000000 l    df *ABS*	00000000 alt_main.c
00000000 l    df *ABS*	00000000 alt_malloc_lock.c
00000000 l    df *ABS*	00000000 alt_open.c
0800ea1c l     F .text	000000dc alt_file_locked
0800ec80 l     F .text	00000060 alt_get_errno
00000000 l    df *ABS*	00000000 alt_read.c
0800ee00 l     F .text	00000060 alt_get_errno
00000000 l    df *ABS*	00000000 alt_release_fd.c
00000000 l    df *ABS*	00000000 alt_sbrk.c
08019f64 l     O .rwdata	00000004 heap_end
00000000 l    df *ABS*	00000000 alt_write.c
0800f09c l     F .text	00000060 alt_get_errno
00000000 l    df *ABS*	00000000 alt_sys_init.c
08018c04 l     O .rwdata	000000d8 cfi_flash_0
08018cdc l     O .rwdata	00001060 jtag_uart_0
08019d3c l     O .rwdata	00000120 lcd_0
08019e5c l     O .rwdata	00000030 altera_ro_zipfs
08019e8c l     O .rwdata	00000048 video_character_buffer_with_dma_0
08019ed4 l     O .rwdata	00000054 video_pixel_buffer_dma_0
0800f478 l     F .text	00000038 alt_dev_reg
00000000 l    df *ABS*	00000000 altera_avalon_cfi_flash.c
0800f54c l     F .text	00000038 alt_flash_device_register
00000000 l    df *ABS*	00000000 altera_avalon_cfi_flash_table.c
0801033c l     F .text	0000007c alt_read_16bit_query_entry
00000000 l    df *ABS*	00000000 altera_avalon_jtag_uart_fd.c
00000000 l    df *ABS*	00000000 altera_avalon_jtag_uart_init.c
080113c8 l     F .text	00000228 altera_avalon_jtag_uart_irq
080115f0 l     F .text	000000b0 altera_avalon_jtag_uart_timeout
00000000 l    df *ABS*	00000000 altera_avalon_jtag_uart_ioctl.c
00000000 l    df *ABS*	00000000 altera_avalon_jtag_uart_read.c
00000000 l    df *ABS*	00000000 altera_avalon_jtag_uart_write.c
00000000 l    df *ABS*	00000000 altera_avalon_lcd_16207.c
08019f68 l     O .rwdata	00000004 colstart
08011c6c l     F .text	000000b8 lcd_write_command
08011d24 l     F .text	000000d4 lcd_write_data
08011df8 l     F .text	000000c4 lcd_clear_screen
08011ebc l     F .text	000001ec lcd_repaint_screen
080120a8 l     F .text	000000c8 lcd_scroll_up
08012170 l     F .text	000002d0 lcd_handle_escape
0801294c l     F .text	000000cc alt_lcd_16207_timeout
00000000 l    df *ABS*	00000000 altera_avalon_lcd_16207_fd.c
00000000 l    df *ABS*	00000000 altera_avalon_performance_counter.c
00000000 l    df *ABS*	00000000 altera_ro_zipfs.c
08012d34 l     F .text	00000074 read_word
08012da8 l     F .text	00000050 read_word_inc
08012df8 l     F .text	00000048 read_half_word
08012e40 l     F .text	00000050 read_half_word_inc
08012e90 l     F .text	00000118 check_file_header
080130d4 l     F .text	000000a0 check_directory_table
08013174 l     F .text	000000ac find_directory_entry
08013220 l     F .text	00000160 find_file_entry_by_name
08013380 l     F .text	00000180 find_file_entry
00000000 l    df *ABS*	00000000 altera_up_avalon_video_character_buffer_with_dma.c
00000000 l    df *ABS*	00000000 altera_up_avalon_video_pixel_buffer_dma.c
00000000 l    df *ABS*	00000000 alt_alarm_start.c
00000000 l    df *ABS*	00000000 alt_dcache_flush.c
00000000 l    df *ABS*	00000000 alt_dcache_flush_all.c
00000000 l    df *ABS*	00000000 alt_dev_llist_insert.c
080153d8 l     F .text	00000060 alt_get_errno
00000000 l    df *ABS*	00000000 alt_do_ctors.c
00000000 l    df *ABS*	00000000 alt_do_dtors.c
00000000 l    df *ABS*	00000000 alt_find_dev.c
00000000 l    df *ABS*	00000000 alt_find_file.c
00000000 l    df *ABS*	00000000 alt_flash_dev.c
00000000 l    df *ABS*	00000000 alt_fs_reg.c
00000000 l    df *ABS*	00000000 alt_get_fd.c
00000000 l    df *ABS*	00000000 alt_icache_flush_all.c
00000000 l    df *ABS*	00000000 alt_iic.c
00000000 l    df *ABS*	00000000 alt_iic_isr_register.c
00000000 l    df *ABS*	00000000 alt_io_redirect.c
08015bc8 l     F .text	000000c4 alt_open_fd
00000000 l    df *ABS*	00000000 alt_irq_vars.c
00000000 l    df *ABS*	00000000 alt_tick.c
00000000 l    df *ABS*	00000000 alt_usleep.c
00000000 l    df *ABS*	00000000 altera_nios2_irq.c
00000000 l    df *ABS*	00000000 altera_avalon_cfi_flash_amd.c
0801629c l     F .text	000000bc alt_write_word_amd
08016178 l     F .text	00000124 alt_wait_for_command_to_complete_amd
00000000 l    df *ABS*	00000000 altera_avalon_cfi_flash_intel.c
08016550 l     F .text	0000018c alt_unlock_block_intel
080166dc l     F .text	000000dc alt_write_word_intel
00000000 l    df *ABS*	00000000 alt_busy_sleep.c
00000000 l    df *ABS*	00000000 alt_icache_flush.c
00000000 l    df *ABS*	00000000 atexit.c
00000000 l    df *ABS*	00000000 ctype_.c
080180c5 l     O .rodata	00000180 _ctype_b
00000000 l    df *ABS*	00000000 exit.c
00000000 l    df *ABS*	00000000 memcmp.c
00000000 l    df *ABS*	00000000 strncmp.c
00000000 l    df *ABS*	00000000 __atexit.c
00000000 l    df *ABS*	00000000 __call_atexit.c
08016c78 l     F .text	00000004 register_fini
00000000 l    df *ABS*	00000000 alt_exit.c
08016e2c l     F .text	00000040 alt_sim_halt
0800ac10 g     F .text	00000094 _mprec_log10
0800acfc g     F .text	00000088 __any_on
0800a3fc g     F .text	00000070 _isatty_r
08017e98 g     O .rodata	00000028 __mprec_tinytens
0800e970 g     F .text	0000006c alt_main
08014814 g     F .text	000003d0 alt_up_pixel_buffer_dma_draw_vline
080052ac g     F .text	000000a0 _puts_r
0800fdfc g     F .text	00000048 alt_read_query_entry_32bit
0801bd34 g     O .bss	00000100 alt_irq
0800a530 g     F .text	00000078 _lseek_r
0800f584 g     F .text	000002c0 alt_flash_cfi_write
08019f84 g       *ABS*	00000000 __flash_rwdata_start
08009bf4 g     F .text	000000a0 __sflags
0800db4c g     F .text	00000088 __eqdf2
0801bfc4 g       *ABS*	00000000 __alt_heap_start
08005234 g     F .text	00000044 printf
080055b8 g     F .text	00000068 __sseek
0800999c g     F .text	000000a4 __sinit
08012d10 g     F .text	00000024 alt_get_cpu_freq
0800c17c g     F .text	00000130 __swbuf_r
08013a38 g     F .text	00000114 alt_up_char_buffer_string
0800a490 g     F .text	00000084 _setlocale_r
08009a9c g     F .text	00000068 __sfmoreglue
0800e9fc g     F .text	00000020 __malloc_unlock
080056fc g     F .text	00000674 strerror
08013968 g     F .text	000000d0 alt_up_char_buffer_draw
0800a68c g     F .text	000000e0 memmove
08009a8c g     F .text	00000010 _cleanup
0800ad84 g     F .text	000000bc _Balloc
080031d8 g     F .text	00000094 __fixsfsi
08013be8 g     F .text	000001a0 alt_up_pixel_buffer_dma_draw
0800dc5c g     F .text	00000088 __gtdf2
00000000  w      *UND*	00000000 __errno
0800ff88 g     F .text	00000048 alt_write_flash_command_32bit_device_16bit_mode
08013ba8 g     F .text	00000040 alt_up_pixel_buffer_dma_open_dev
08000000 g     F .entry	0000001c __reset
08001498 g     F .text	0000053c __ieee754_rem_pio2f
08000020 g       *ABS*	00000000 __flash_exceptions_start
0800472c g     F .text	00000074 _fstat_r
0800faa0 g     F .text	000002d8 alt_flash_program_block
0801bcd8 g     O .bss	00000004 errno
080032c0 g     F .text	00000038 __make_dp
0801bcf8 g     O .bss	00000004 alt_argv
08021f28 g       *ABS*	00000000 _gp
08015ea8 g     F .text	00000030 usleep
08002c34 g     F .text	00000070 __subsf3
08013d88 g     F .text	00000058 alt_up_pixel_buffer_dma_change_back_buffer_address
08018a84 g     O .rwdata	00000180 alt_fd_list
08015500 g     F .text	00000094 alt_find_dev
0800509c g     F .text	000000a0 memcpy
08013b4c g     F .text	0000005c alt_up_char_buffer_clear
08009a80 g     F .text	0000000c _cleanup_r
0800ddf4 g     F .text	000000f8 __floatsidf
0801bcc0 g     O .bss	00000004 bool_dec
08005220 g     F .text	00000014 perror
08015784 g     F .text	00000090 alt_fs_reg
08015c8c g     F .text	00000078 alt_io_redirect
0800dd6c g     F .text	00000088 __ltdf2
08016efc g       *ABS*	00000000 __DTOR_END__
0800534c g     F .text	00000014 puts
08013500 g     F .text	00000098 alt_ro_zipfs_open
08015ed8 g     F .text	00000020 altera_nios2_irq_init
0800ab60 g     F .text	000000b0 __ratio
0801bcc4 g     O .bss	00000004 scount
08013e38 g     F .text	00000034 alt_up_pixel_buffer_dma_check_swap_buffers_status
08011808 g     F .text	00000224 altera_avalon_jtag_uart_read
08004948 g     F .text	00000014 malloc
08005278 g     F .text	00000034 _printf_r
08003434 g     F .text	00000008 __udivsi3
0800e614 g     F .text	000000c0 isatty
08017da8 g     O .rodata	000000c8 __mprec_tens
080144c4 g     F .text	00000350 alt_up_pixel_buffer_dma_draw_hline
0800a46c g     F .text	00000008 __locale_charset
080030c8 g     F .text	00000078 __lesf2
08016904 g     F .text	00000090 alt_icache_flush
0801bcdc g     O .bss	00000004 __malloc_top_pad
08012cb0 g     F .text	00000040 perf_get_num_starts
08019f44 g     O .rwdata	00000004 __mb_cur_max
0800a474 g     F .text	0000000c _localeconv_r
0800b47c g     F .text	0000003c __i2b
08009de0 g     F .text	0000049c __sfvwrite_r
08005540 g     F .text	00000070 _sbrk_r
08016358 g     F .text	00000084 alt_program_intel
08014ca8 g     F .text	000000d0 helper_plot_pixel
080028dc g     F .text	00000010 fabsf
0800b9e4 g     F .text	00000078 _read_r
08015268 g     F .text	00000078 alt_dcache_flush
08018a50 g     O .rwdata	0000000c __lc_ctype
08019f5c g     O .rwdata	00000004 alt_max_fd
0800fd78 g     F .text	00000040 alt_read_query_entry_8bit
0800e158 g     F .text	00000138 __unpack_d
0800c37c g     F .text	00000110 _fclose_r
080163dc g     F .text	00000174 alt_erase_block_intel
08009900 g     F .text	00000034 fflush
0801bce0 g     O .bss	00000004 __malloc_max_sbrked_mem
0800326c g     F .text	00000054 __extendsfdf2
0800d4bc g     F .text	00000074 __adddf3
0800aa40 g     F .text	00000120 __b2d
08013e6c g     F .text	00000164 alt_up_pixel_buffer_dma_clear_screen
0800ca7c g     F .text	000005b0 __umoddi3
0800e820 g     F .text	000000f0 lseek
08019f38 g     O .rwdata	00000004 _global_impure_ptr
0800ba5c g     F .text	000005f4 _realloc_r
08002720 g     F .text	000001bc __kernel_sinf
0801bfc4 g       *ABS*	00000000 __bss_end
08015ad0 g     F .text	000000f8 alt_iic_isr_register
08013fd0 g     F .text	000004f4 alt_up_pixel_buffer_dma_draw_box
08015d9c g     F .text	0000010c alt_tick
0800c4a0 g     F .text	000005dc __udivdi3
08017e70 g     O .rodata	00000028 __mprec_bigtens
0800b6d8 g     F .text	00000120 __s2b
0800dfc4 g     F .text	00000194 __floatunsidf
0800a960 g     F .text	00000060 __mcmp
08019f80 g     O .rwdata	00000004 __ctype_ptr
08009a68 g     F .text	00000018 __fp_lock_all
08015a88 g     F .text	00000048 alt_ic_irq_enabled
08015d04 g     F .text	00000098 alt_alarm_stop
08001204 g     F .text	000000c0 cosf
0801bd00 g     O .bss	00000004 alt_irq_active
08013694 g     F .text	00000148 alt_ro_zipfs_seek
080000ec g     F .exceptions	000000c8 alt_irq_handler
08018a5c g     O .rwdata	00000028 alt_dev_null
080036bc g     F .text	000000c8 __unpack_f
08010290 g     F .text	000000ac alt_set_flash_algorithm_func
080152e0 g     F .text	00000044 alt_dcache_flush_all
0800a82c g     F .text	00000070 __hi0bits
08014be4 g     F .text	000000c4 alt_up_pixel_buffer_dma_draw_rectangle
0800deec g     F .text	000000d8 __fixdfsi
080019d4 g     F .text	000002bc __kernel_cosf
0800fe44 g     F .text	0000003c alt_write_flash_command_8bit_device_8bit_mode
08019f84 g       *ABS*	00000000 __ram_rwdata_end
08019f54 g     O .rwdata	00000008 alt_dev_list
08009cf8 g     F .text	00000058 _fputc_r
0800ef7c g     F .text	00000120 write
0800b8fc g     F .text	000000e8 _putc_r
08014d78 g     F .text	0000039c alt_up_pixel_buffer_dma_draw_line
08002f60 g     F .text	00000078 __gtsf2
08018248 g       *ABS*	00000000 __ram_rodata_end
0800e4e0 g     F .text	000000d4 fstat
080110e4 g     F .text	000000dc alt_check_primary_table
0800b5b8 g     F .text	00000120 __pow5mult
0801bce8 g     O .bss	00000004 __nlocale_changed
0800343c g     F .text	00000008 __umodsi3
0800f8d4 g     F .text	00000068 alt_flash_cfi_read
08010018 g     F .text	00000034 alt_write_native_8bit
0801bfc4 g       *ABS*	00000000 end
0800355c g     F .text	00000160 __pack_f
0800fe80 g     F .text	0000007c alt_write_flash_command_16bit_device_8bit_mode
08012440 g     F .text	0000050c altera_avalon_lcd_16207_write
080138a4 g     F .text	00000084 alt_up_char_buffer_init
08004708 g     F .text	00000024 fseek
080103b8 g     F .text	00000580 alt_read_cfi_table
08011308 g     F .text	000000c0 altera_avalon_jtag_uart_init
08016ef8 g       *ABS*	00000000 __CTOR_LIST__
10000000 g       *ABS*	00000000 __alt_stack_pointer
080034dc g     F .text	00000080 __clzsi2
08011a2c g     F .text	00000240 altera_avalon_jtag_uart_write
0800f4b0 g     F .text	0000009c alt_flash_cfi_init
0800998c g     F .text	00000004 __sfp_lock_acquire
0800a5a8 g     F .text	000000e4 memchr
08005e44 g     F .text	00001eac ___vfprintf_internal_r
10800000 g       *ABS*	00000000 __alt_mem_cfi_flash_0
08003fb8 g     F .text	00000314 _free_r
08016c7c g     F .text	000001b0 __call_exitprocs
0801bcec g     O .bss	00000004 __mlocale_changed
08019f40 g     O .rwdata	00000004 __malloc_sbrk_base
080001b4 g     F .text	0000004c _start
0801bd04 g     O .bss	00000004 _alt_tick_rate
08005de4 g     F .text	00000008 _user_strerror
0800b148 g     F .text	0000014c __lshift
0801bd08 g     O .bss	00000004 _alt_nticks
0800ece0 g     F .text	00000120 read
0800f130 g     F .text	00000348 alt_sys_init
08003140 g     F .text	00000098 __floatsisf
0800513c g     F .text	00000078 _open_r
08016b44 g     F .text	00000134 __register_exitproc
08016a54 g     F .text	000000f0 strncmp
0800fdb8 g     F .text	00000044 alt_read_query_entry_16bit
0800b294 g     F .text	000001e8 __multiply
080116a0 g     F .text	00000074 altera_avalon_jtag_uart_close
08018248 g       *ABS*	00000000 __ram_rwdata_start
08016efc g       *ABS*	00000000 __ram_rodata_start
0801bd0c g     O .bss	00000028 __malloc_current_mallinfo
08002ee8 g     F .text	00000078 __eqsf2
080100b0 g     F .text	000001e0 alt_set_flash_width_func
0800ae40 g     F .text	0000017c __d2b
080111c0 g     F .text	00000058 altera_avalon_jtag_uart_read_fd
08015814 g     F .text	000000b8 alt_get_fd
080167b8 g     F .text	0000014c alt_busy_sleep
0800e290 g     F .text	000000c8 __fpcmp_parts_d
08007ec8 g     F .text	00000070 _close_r
08015f60 g     F .text	00000218 alt_erase_block_amd
08012bac g     F .text	000000b0 perf_get_section_time
080169e0 g     F .text	00000074 memcmp
08011270 g     F .text	00000048 altera_avalon_jtag_uart_close_fd
0801bcc8 g     O .bss	00000004 col
0801bfc4 g       *ABS*	00000000 __alt_stack_base
080112b8 g     F .text	00000050 altera_avalon_jtag_uart_ioctl_fd
08007d8c g     F .text	0000013c __swsetup_r
08010938 g     F .text	000007ac alt_read_cfi_width
0800d8f4 g     F .text	00000258 __divdf3
08009b04 g     F .text	000000f0 __sfp
0800aca4 g     F .text	00000058 __copybits
08012c5c g     F .text	00000054 perf_get_total_time
08018648 g     O .rwdata	00000408 __malloc_av_
08009998 g     F .text	00000004 __sinit_lock_release
0800d530 g     F .text	000003c4 __muldf3
0800569c g     F .text	00000060 __sread
08017418 g     O .rodata	00000010 __thenan_sf
08003e4c g     F .text	00000040 fread
08015594 g     F .text	00000120 alt_find_file
08015324 g     F .text	000000b4 alt_dev_llist_insert
0800e9dc g     F .text	00000020 __malloc_lock
0800eec0 g     F .text	000000bc sbrk
080028ec g     F .text	0000014c scalbnf
08009704 g     F .text	000001fc _fflush_r
0800c2c8 g     F .text	000000b4 _calloc_r
08019f6c g     O .rwdata	00000008 alt_flash_dev_list
0800ff44 g     F .text	00000044 alt_write_flash_command_16bit_device_16bit_mode
08003c34 g     F .text	0000001c fopen
0801bcc0 g       *ABS*	00000000 __bss_start
0800a76c g     F .text	00000098 memset
08000200 g     F .text	00001004 main
0801bcfc g     O .bss	00000004 alt_envp
0801bce4 g     O .bss	00000004 __malloc_max_total_mem
08013de0 g     F .text	00000058 alt_up_pixel_buffer_dma_swap_buffers
08013928 g     F .text	00000040 alt_up_char_buffer_open_dev
08011218 g     F .text	00000058 altera_avalon_jtag_uart_write_fd
0800c2ac g     F .text	0000001c __swbuf
0801bccc g     O .bss	00000004 rcount
08003050 g     F .text	00000078 __ltsf2
08003c50 g     F .text	000001fc _fread_r
08012a18 g     F .text	0000013c altera_avalon_lcd_16207_init
080055b0 g     F .text	00000008 __sclose
10000000 g       *ABS*	00000000 __alt_heap_limit
0800c48c g     F .text	00000014 fclose
0801be34 g     O .bss	00000190 _atexit0
08008150 g     F .text	000015b4 _dtoa_r
0800495c g     F .text	00000740 _malloc_r
08019f60 g     O .rwdata	00000004 alt_errno
0800ffd0 g     F .text	00000048 alt_write_flash_command_32bit_device_32bit_mode
0800a344 g     F .text	000000b8 _fwalk
0800f93c g     F .text	00000164 alt_write_value_to_flash
0801004c g     F .text	00000034 alt_write_native_16bit
0800b7f8 g     F .text	00000104 putc
08003374 g     F .text	00000060 __divsi3
08013598 g     F .text	000000fc alt_ro_zipfs_read
08017ecc g     O .rodata	00000014 __thenan_df
08003e8c g     F .text	0000012c _malloc_trim_r
08016efc g       *ABS*	00000000 __CTOR_END__
08002d08 g     F .text	000001e0 __mulsf3
0801384c g     F .text	00000058 alt_ro_zipfs_check_valid
0800c0c0 g     F .text	000000bc strcmp
08016efc g       *ABS*	00000000 __flash_rodata_start
08016efc g       *ABS*	00000000 __DTOR_LIST__
0800dbd4 g     F .text	00000088 __nedf2
080137dc g     F .text	00000070 alt_ro_zipfs_fstat
11000000 g       *ABS*	00000000 __alt_mem_sram_0
0800f0fc g     F .text	00000034 alt_irq_init
0800ee60 g     F .text	00000060 alt_release_fd
08002a38 g     F .text	00000018 copysignf
08017428 g     O .rodata	00000100 __clz_tab
0801bcf0 g     O .bss	00000004 _PathLocale
08016994 g     F .text	00000014 atexit
0801bcd0 g     O .bss	00000004 my_pixel_buffer
08002fd8 g     F .text	00000078 __gesf2
08007d14 g     F .text	00000078 _write_r
0800a514 g     F .text	0000001c setlocale
08019f34 g     O .rwdata	00000004 _impure_ptr
0801bcf4 g     O .bss	00000004 alt_argc
0801549c g     F .text	00000064 _do_dtors
080042cc g     F .text	0000043c _fseek_r
08005360 g     F .text	000001c4 __srefill_r
08000000 g       *ABS*	00000000 __alt_mem_sdram_0
08000020 g       .exceptions	00000000 alt_irq_entry
0800a9c0 g     F .text	00000080 __ulp
0800c050 g     F .text	00000040 __isinfd
08009a50 g     F .text	00000018 __fp_unlock_all
08012b54 g     F .text	00000058 altera_avalon_lcd_16207_write_fd
08009c94 g     F .text	00000064 fputc
08019f28 g     O .rwdata	00000004 num_rows
08019f4c g     O .rwdata	00000008 alt_fs_list
080013d8 g     F .text	000000c0 sinf
0800fefc g     F .text	00000048 alt_write_flash_command_32bit_device_8bit_mode
08000020 g       *ABS*	00000000 __ram_exceptions_start
0800a480 g     F .text	00000010 localeconv
080158fc g     F .text	00000050 alt_ic_isr_register
08019f84 g       *ABS*	00000000 _edata
0801bfc4 g       *ABS*	00000000 _end
080156b4 g     F .text	0000007c alt_flash_open_dev
080001b4 g       *ABS*	00000000 __ram_exceptions_end
08011714 g     F .text	000000f4 altera_avalon_jtag_uart_ioctl
08009d50 g     F .text	00000074 _fputs_r
080159e8 g     F .text	000000a0 alt_ic_irq_disable
08005620 g     F .text	0000007c __swrite
08019f3c g     O .rwdata	00000004 __malloc_trim_threshold
08012cf0 g     F .text	00000020 alt_get_performance_counter_base
080051b4 g     F .text	0000006c _perror_r
080169a8 g     F .text	00000038 exit
0800a27c g     F .text	000000c8 _fwalk_reent
0800afbc g     F .text	0000018c __mdiff
08015730 g     F .text	00000054 alt_flash_close_dev
080033d4 g     F .text	00000060 __modsi3
10000000 g       *ABS*	00000000 __alt_data_end
08000020 g     F .exceptions	00000000 alt_exception
08009990 g     F .text	00000004 __sfp_lock_release
08019f30 g     O .rwdata	00000004 shift_amt
08017fc4 g     O .rodata	00000101 _ctype_
08003784 g     F .text	000000a8 __fpcmp_parts_f
08003b40 g     F .text	000000f4 _fopen_r
08016e6c g     F .text	00000020 _exit
0800c090 g     F .text	00000030 __isnand
08001c90 g     F .text	00000a90 __kernel_rem_pio2f
08015114 g     F .text	00000154 alt_alarm_start
08003444 g     F .text	00000098 __muldi3
080047a0 g     F .text	00000194 __smakebuf_r
08010080 g     F .text	00000030 alt_write_native_32bit
08005d70 g     F .text	00000074 strlen
0800eaf8 g     F .text	00000188 open
0800dce4 g     F .text	00000088 __gedf2
0800f844 g     F .text	00000090 alt_flash_cfi_get_info
080158cc g     F .text	00000030 alt_icache_flush_all
080012c4 g     F .text	00000114 floorf
08009dc4 g     F .text	0000001c fputs
08019f74 g     O .rwdata	00000004 alt_priority_mask
08019f2c g     O .rwdata	00000004 num_cols
0801594c g     F .text	0000009c alt_ic_irq_enable
08007cf0 g     F .text	00000024 __vfprintf_internal
0800d43c g     F .text	00000080 __subdf3
0800a89c g     F .text	000000c4 __lo0bits
08019f78 g     O .rwdata	00000008 alt_alarm_list
08015438 g     F .text	00000064 _do_ctors
0800e358 g     F .text	000000fc close
08002ca4 g     F .text	00000064 __addsf3
08015ef8 g     F .text	00000068 alt_program_amd
0800e734 g     F .text	00000080 alt_load
0801bcd4 g     O .bss	00000004 row
0800382c g     F .text	00000314 __pack_d
08004934 g     F .text	00000014 free
08009994 g     F .text	00000004 __sinit_lock_acquire
0800b4b8 g     F .text	00000100 __multadd
0800a804 g     F .text	00000028 _Bfree
08012fa8 g     F .text	0000012c check_directory_header



Disassembly of section .entry:

08000000 <__reset>:
#if NIOS2_ICACHE_SIZE > 0 && defined(ALT_ALLOW_CODE_AT_RESET) && !defined(ALT_SIM_OPTIMIZE)
    /* Assume the instruction cache size is always a power of two. */
#if NIOS2_ICACHE_SIZE > 0x8000
    movhi r2, %hi(NIOS2_ICACHE_SIZE)
#else
    movui r2, NIOS2_ICACHE_SIZE
 8000000:	00840014 	movui	r2,4096
#endif

0:
    initi r2
 8000004:	1001483a 	initi	r2
    addi r2, r2, -NIOS2_ICACHE_LINE_SIZE
 8000008:	10bff804 	addi	r2,r2,-32
    bgt r2, zero, 0b
 800000c:	00bffd16 	blt	zero,r2,8000004 <__reset+0x4>
 * Jump to the _start entry point in the .text section if reset code
 * is allowed or if optimizing for RTL simulation.
 */
#if defined(ALT_ALLOW_CODE_AT_RESET) || defined(ALT_SIM_OPTIMIZE)
    /* Jump to the _start entry point in the .text section. */
    movhi r1, %hi(_start)
 8000010:	00420034 	movhi	at,2048
    ori r1, r1, %lo(_start)
 8000014:	08406d14 	ori	at,at,436
    jmp r1
 8000018:	0800683a 	jmp	at
 800001c:	00000000 	call	0 <__alt_mem_sdram_0-0x8000000>

Disassembly of section .exceptions:

08000020 <alt_exception>:
         * Process an exception.  For all exceptions we must preserve all
         * caller saved registers on the stack (See the Nios2 ABI
         * documentation for details).
         */

        addi  sp, sp, -76
 8000020:	deffed04 	addi	sp,sp,-76

#endif

#endif

        stw   ra,  0(sp)
 8000024:	dfc00015 	stw	ra,0(sp)
        /*
         * Leave a gap in the stack frame at 4(sp) for the muldiv handler to
         * store zero into.
         */

        stw   r1,   8(sp)
 8000028:	d8400215 	stw	at,8(sp)
        stw   r2,  12(sp)
 800002c:	d8800315 	stw	r2,12(sp)
        stw   r3,  16(sp)
 8000030:	d8c00415 	stw	r3,16(sp)
        stw   r4,  20(sp)
 8000034:	d9000515 	stw	r4,20(sp)
        stw   r5,  24(sp)
 8000038:	d9400615 	stw	r5,24(sp)
        stw   r6,  28(sp)
 800003c:	d9800715 	stw	r6,28(sp)
        stw   r7,  32(sp)
 8000040:	d9c00815 	stw	r7,32(sp)

        rdctl r5, estatus
 8000044:	000b307a 	rdctl	r5,estatus

        stw   r8,  36(sp)
 8000048:	da000915 	stw	r8,36(sp)
        stw   r9,  40(sp)
 800004c:	da400a15 	stw	r9,40(sp)
        stw   r10, 44(sp)
 8000050:	da800b15 	stw	r10,44(sp)
        stw   r11, 48(sp)
 8000054:	dac00c15 	stw	r11,48(sp)
        stw   r12, 52(sp)
 8000058:	db000d15 	stw	r12,52(sp)
        stw   r13, 56(sp)
 800005c:	db400e15 	stw	r13,56(sp)
        stw   r14, 60(sp)
 8000060:	db800f15 	stw	r14,60(sp)
        stw   r15, 64(sp)
 8000064:	dbc01015 	stw	r15,64(sp)
        /*
         * ea-4 contains the address of the instruction being executed
         * when the exception occured. For interrupt exceptions, we will
         * will be re-issue the isntruction. Store it in 72(sp)
         */
        stw   r5,  68(sp)  /* estatus */
 8000068:	d9401115 	stw	r5,68(sp)
        addi  r15, ea, -4  /* instruction that caused exception */
 800006c:	ebffff04 	addi	r15,ea,-4
        stw   r15,  72(sp)
 8000070:	dbc01215 	stw	r15,72(sp)
#else
        /*
         * Test to see if the exception was a software exception or caused 
         * by an external interrupt, and vector accordingly.
         */
        rdctl r4, ipending
 8000074:	0009313a 	rdctl	r4,ipending
        andi  r2, r5, 1
 8000078:	2880004c 	andi	r2,r5,1
        beq   r2, zero, .Lnot_irq
 800007c:	10000326 	beq	r2,zero,800008c <alt_exception+0x6c>
        beq   r4, zero, .Lnot_irq
 8000080:	20000226 	beq	r4,zero,800008c <alt_exception+0x6c>
        /*
         * Now that all necessary registers have been preserved, call 
         * alt_irq_handler() to process the interrupts.
         */

        call alt_irq_handler
 8000084:	80000ec0 	call	80000ec <alt_irq_handler>

        .section .exceptions.irqreturn, "xa"

        br    .Lexception_exit
 8000088:	00000306 	br	8000098 <alt_exception+0x78>
         * upon completion, so we write ea (address of instruction *after*
         * the one where the exception occured) into 72(sp). The actual
         * instruction that caused the exception is written in r2, which these
         * handlers will utilize.
         */
        stw   ea,  72(sp)  /* Don't re-issue */
 800008c:	df401215 	stw	ea,72(sp)
        ldw   r2, -4(ea)   /* Instruction that caused exception */
 8000090:	e8bfff17 	ldw	r2,-4(ea)
#ifdef NIOS2_HAS_DEBUG_STUB
       /*
        *  Either tell the user now (if there is a debugger attached) or go into
        *  the debug monitor which will loop until a debugger is attached.
        */
        break
 8000094:	003da03a 	break	0
        /* 
         * Restore the saved registers, so that all general purpose registers 
         * have been restored to their state at the time the interrupt occured.
         */

        ldw   r5,  68(sp)
 8000098:	d9401117 	ldw	r5,68(sp)
        ldw   ea,  72(sp)  /* This becomes the PC once eret is executed */
 800009c:	df401217 	ldw	ea,72(sp)
        ldw   ra,   0(sp)
 80000a0:	dfc00017 	ldw	ra,0(sp)

        wrctl estatus, r5
 80000a4:	2801707a 	wrctl	estatus,r5

        ldw   r1,   8(sp)
 80000a8:	d8400217 	ldw	at,8(sp)
        ldw   r2,  12(sp)
 80000ac:	d8800317 	ldw	r2,12(sp)
        ldw   r3,  16(sp)
 80000b0:	d8c00417 	ldw	r3,16(sp)
        ldw   r4,  20(sp)
 80000b4:	d9000517 	ldw	r4,20(sp)
        ldw   r5,  24(sp)
 80000b8:	d9400617 	ldw	r5,24(sp)
        ldw   r6,  28(sp)
 80000bc:	d9800717 	ldw	r6,28(sp)
        ldw   r7,  32(sp)
 80000c0:	d9c00817 	ldw	r7,32(sp)
#ifdef ALT_STACK_CHECK
        ldw   et, %gprel(alt_exception_old_stack_limit)(gp)
#endif
#endif

        ldw   r8,  36(sp)
 80000c4:	da000917 	ldw	r8,36(sp)
        ldw   r9,  40(sp)
 80000c8:	da400a17 	ldw	r9,40(sp)
        ldw   r10, 44(sp)
 80000cc:	da800b17 	ldw	r10,44(sp)
        ldw   r11, 48(sp)
 80000d0:	dac00c17 	ldw	r11,48(sp)
        ldw   r12, 52(sp)
 80000d4:	db000d17 	ldw	r12,52(sp)
        ldw   r13, 56(sp)
 80000d8:	db400e17 	ldw	r13,56(sp)
        ldw   r14, 60(sp)
 80000dc:	db800f17 	ldw	r14,60(sp)
        ldw   r15, 64(sp)
 80000e0:	dbc01017 	ldw	r15,64(sp)
#endif

        ldw   sp,  76(sp)

#else
        addi  sp, sp, 76
 80000e4:	dec01304 	addi	sp,sp,76

        /*
         * Return to the interrupted instruction.
         */

        eret
 80000e8:	ef80083a 	eret

080000ec <alt_irq_handler>:
 * instruction is present if the macro ALT_CI_INTERRUPT_VECTOR defined.
 */

void alt_irq_handler (void) __attribute__ ((section (".exceptions")));
void alt_irq_handler (void)
{
 80000ec:	defff904 	addi	sp,sp,-28
 80000f0:	dfc00615 	stw	ra,24(sp)
 80000f4:	df000515 	stw	fp,20(sp)
 80000f8:	df000504 	addi	fp,sp,20
#ifndef NIOS2_EIC_PRESENT
static ALT_INLINE alt_u32 ALT_ALWAYS_INLINE alt_irq_pending (void)
{
  alt_u32 active;

  NIOS2_READ_IPENDING (active);
 80000fc:	0005313a 	rdctl	r2,ipending
 8000100:	e0bffc15 	stw	r2,-16(fp)

  return active;
 8000104:	e0bffc17 	ldw	r2,-16(fp)
   * Consider the case where the high priority interupt is asserted during
   * the interrupt entry sequence for a lower priority interrupt to see why
   * this is the case.
   */

  active = alt_irq_pending ();
 8000108:	e0bfff15 	stw	r2,-4(fp)

  do
  {
    i = 0;
 800010c:	e03ffd15 	stw	zero,-12(fp)
    mask = 1;
 8000110:	00800044 	movi	r2,1
 8000114:	e0bffe15 	stw	r2,-8(fp)
     * called to clear the interrupt condition.
     */

    do
    {
      if (active & mask)
 8000118:	e0ffff17 	ldw	r3,-4(fp)
 800011c:	e0bffe17 	ldw	r2,-8(fp)
 8000120:	1884703a 	and	r2,r3,r2
 8000124:	1005003a 	cmpeq	r2,r2,zero
 8000128:	1000161e 	bne	r2,zero,8000184 <alt_irq_handler+0x98>
      { 
#ifdef ALT_ENHANCED_INTERRUPT_API_PRESENT
        alt_irq[i].handler(alt_irq[i].context); 
 800012c:	e0bffd17 	ldw	r2,-12(fp)
 8000130:	00c200b4 	movhi	r3,2050
 8000134:	18ef4d04 	addi	r3,r3,-17100
 8000138:	100490fa 	slli	r2,r2,3
 800013c:	10c5883a 	add	r2,r2,r3
 8000140:	11400017 	ldw	r5,0(r2)
 8000144:	e0bffd17 	ldw	r2,-12(fp)
 8000148:	00c200b4 	movhi	r3,2050
 800014c:	18ef4d04 	addi	r3,r3,-17100
 8000150:	100490fa 	slli	r2,r2,3
 8000154:	10c5883a 	add	r2,r2,r3
 8000158:	10800104 	addi	r2,r2,4
 800015c:	11000017 	ldw	r4,0(r2)
 8000160:	283ee83a 	callr	r5
#ifndef NIOS2_EIC_PRESENT
static ALT_INLINE alt_u32 ALT_ALWAYS_INLINE alt_irq_pending (void)
{
  alt_u32 active;

  NIOS2_READ_IPENDING (active);
 8000164:	0005313a 	rdctl	r2,ipending
 8000168:	e0bffb15 	stw	r2,-20(fp)

  return active;
 800016c:	e0bffb17 	ldw	r2,-20(fp)
      mask <<= 1;
      i++;

    } while (1);

    active = alt_irq_pending ();
 8000170:	e0bfff15 	stw	r2,-4(fp)
    
  } while (active);
 8000174:	e0bfff17 	ldw	r2,-4(fp)
 8000178:	1004c03a 	cmpne	r2,r2,zero
 800017c:	103fe31e 	bne	r2,zero,800010c <alt_irq_handler+0x20>
 8000180:	00000706 	br	80001a0 <alt_irq_handler+0xb4>
#else
        alt_irq[i].handler(alt_irq[i].context, i); 
#endif
        break;
      }
      mask <<= 1;
 8000184:	e0bffe17 	ldw	r2,-8(fp)
 8000188:	1085883a 	add	r2,r2,r2
 800018c:	e0bffe15 	stw	r2,-8(fp)
      i++;
 8000190:	e0bffd17 	ldw	r2,-12(fp)
 8000194:	10800044 	addi	r2,r2,1
 8000198:	e0bffd15 	stw	r2,-12(fp)

    } while (1);
 800019c:	003fde06 	br	8000118 <alt_irq_handler+0x2c>
  /*
   * Notify the operating system that interrupt processing is complete.
   */ 

  ALT_OS_INT_EXIT();
}
 80001a0:	e037883a 	mov	sp,fp
 80001a4:	dfc00117 	ldw	ra,4(sp)
 80001a8:	df000017 	ldw	fp,0(sp)
 80001ac:	dec00204 	addi	sp,sp,8
 80001b0:	f800283a 	ret

Disassembly of section .text:

080001b4 <_start>:

    /* Assume the data cache size is always a power of two. */
#if NIOS2_DCACHE_SIZE > 0x8000
    movhi r2, %hi(NIOS2_DCACHE_SIZE)
#else
    movui r2, NIOS2_DCACHE_SIZE
 80001b4:	00840014 	movui	r2,4096
#endif

0:
    initd 0(r2)
 80001b8:	10000033 	initd	0(r2)
    addi r2, r2, -NIOS2_DCACHE_LINE_SIZE
 80001bc:	10bff804 	addi	r2,r2,-32
    bgt r2, zero, 0b
 80001c0:	00bffd16 	blt	zero,r2,80001b8 <_start+0x4>
#if (NIOS2_NUM_OF_SHADOW_REG_SETS == 0)    
    /*
     * Now that the caches are initialized, set up the stack pointer.
     * The value provided by the linker is assumed to be correctly aligned.
     */
    movhi sp, %hi(__alt_stack_pointer)
 80001c4:	06c40034 	movhi	sp,4096
    ori sp, sp, %lo(__alt_stack_pointer)
 80001c8:	dec00014 	ori	sp,sp,0

    /* Set up the global pointer. */
    movhi gp, %hi(_gp)
 80001cc:	068200b4 	movhi	gp,2050
    ori gp, gp, %lo(_gp)
 80001d0:	d687ca14 	ori	gp,gp,7976
 */
#ifndef ALT_SIM_OPTIMIZE
    /* Log that the BSS is about to be cleared. */
    ALT_LOG_PUTS(alt_log_msg_bss)

    movhi r2, %hi(__bss_start)
 80001d4:	00820074 	movhi	r2,2049
    ori r2, r2, %lo(__bss_start)
 80001d8:	10af3014 	ori	r2,r2,48320

    movhi r3, %hi(__bss_end)
 80001dc:	00c20074 	movhi	r3,2049
    ori r3, r3, %lo(__bss_end)
 80001e0:	18eff114 	ori	r3,r3,49092

    beq r2, r3, 1f
 80001e4:	10c00326 	beq	r2,r3,80001f4 <_start+0x40>

0:
    stw zero, (r2)
 80001e8:	10000015 	stw	zero,0(r2)
    addi r2, r2, 4
 80001ec:	10800104 	addi	r2,r2,4
    bltu r2, r3, 0b
 80001f0:	10fffd36 	bltu	r2,r3,80001e8 <_start+0x34>
     * section aren't defined until alt_load() has been called).
     */
    mov   et, zero
#endif

    call alt_load
 80001f4:	800e7340 	call	800e734 <alt_load>

    /* Log that alt_main is about to be called. */
    ALT_LOG_PUTS(alt_log_msg_alt_main)

    /* Call the C entry point. It should never return. */
    call alt_main
 80001f8:	800e9700 	call	800e970 <alt_main>

080001fc <alt_after_alt_main>:

    /* Wait in infinite loop in case alt_main does return. */
alt_after_alt_main:
    br alt_after_alt_main
 80001fc:	003fff06 	br	80001fc <alt_after_alt_main>

08000200 <main>:
int rcount;
int bool_dec;
float scount;

int main()
{
 8000200:	deffc704 	addi	sp,sp,-228
 8000204:	dfc03815 	stw	ra,224(sp)
 8000208:	df003715 	stw	fp,220(sp)
 800020c:	dc003615 	stw	r16,216(sp)
 8000210:	df003604 	addi	fp,sp,216

	// open the .dat file
	FILE *myfile;
	//myfile = fopen("my_fs/myfile.dat","rb");
	myfile=fopen("my_fs/myfile.dat","rb");
 8000214:	01020074 	movhi	r4,2049
 8000218:	211bbf04 	addi	r4,r4,28412
 800021c:	01420074 	movhi	r5,2049
 8000220:	295bc404 	addi	r5,r5,28432
 8000224:	8003c340 	call	8003c34 <fopen>
 8000228:	e0bfff15 	stw	r2,-4(fp)
	if(myfile==NULL) perror ("error opening datafile");
 800022c:	e0bfff17 	ldw	r2,-4(fp)
 8000230:	1004c03a 	cmpne	r2,r2,zero
 8000234:	1000031e 	bne	r2,zero,8000244 <main+0x44>
 8000238:	01020074 	movhi	r4,2049
 800023c:	211bc504 	addi	r4,r4,28436
 8000240:	80052200 	call	8005220 <perror>

	//allocate memory and read image data

	alt_u32 keys;
	alt_u32 current_value = 1;
 8000244:	00800044 	movi	r2,1
 8000248:	e0bffd15 	stw	r2,-12(fp)
	alt_u32 current_state = 3;
 800024c:	008000c4 	movi	r2,3
 8000250:	e0bffc15 	stw	r2,-16(fp)
	alt_u8 *my_image;
	alt_u8 cycle_counter = 0;
 8000254:	e03ffa05 	stb	zero,-24(fp)
	my_image = (alt_u8 *)malloc(320*240*3);
 8000258:	01000134 	movhi	r4,4
 800025c:	21210004 	addi	r4,r4,-31744
 8000260:	80049480 	call	8004948 <malloc>
 8000264:	e0bffb15 	stw	r2,-20(fp)
	fread(my_image,sizeof(alt_u8),320*240*3,myfile);
 8000268:	e13ffb17 	ldw	r4,-20(fp)
 800026c:	01400044 	movi	r5,1
 8000270:	01800134 	movhi	r6,4
 8000274:	31a10004 	addi	r6,r6,-31744
 8000278:	e1ffff17 	ldw	r7,-4(fp)
 800027c:	8003e4c0 	call	8003e4c <fread>


	//pixel buffer

	//alt_up_pixel_buffer_dma_dev *my_pixel_buffer; //declare global var
	my_pixel_buffer=alt_up_pixel_buffer_dma_open_dev("/dev/video_pixel_buffer_dma_0"); //assign it
 8000280:	01020074 	movhi	r4,2049
 8000284:	211bcb04 	addi	r4,r4,28460
 8000288:	8013ba80 	call	8013ba8 <alt_up_pixel_buffer_dma_open_dev>
 800028c:	d0a76a15 	stw	r2,-25176(gp)
	alt_up_pixel_buffer_dma_clear_screen(my_pixel_buffer,0);//clear_screen();
 8000290:	d1276a17 	ldw	r4,-25176(gp)
 8000294:	000b883a 	mov	r5,zero
 8000298:	8013e6c0 	call	8013e6c <alt_up_pixel_buffer_dma_clear_screen>

	//character buffer
	alt_up_char_buffer_dev *my_char_buffer; //declare global var
	my_char_buffer = alt_up_char_buffer_open_dev("/dev/video_character_buffer_with_dma_0");
 800029c:	01020074 	movhi	r4,2049
 80002a0:	211bd304 	addi	r4,r4,28492
 80002a4:	80139280 	call	8013928 <alt_up_char_buffer_open_dev>
 80002a8:	e0bff915 	stw	r2,-28(fp)
	if(!my_char_buffer) printf ("error opening character buffer\n");
 80002ac:	e0bff917 	ldw	r2,-28(fp)
 80002b0:	1004c03a 	cmpne	r2,r2,zero
 80002b4:	1000031e 	bne	r2,zero,80002c4 <main+0xc4>
 80002b8:	01020074 	movhi	r4,2049
 80002bc:	211bdd04 	addi	r4,r4,28532
 80002c0:	800534c0 	call	800534c <puts>
	alt_up_char_buffer_clear(my_char_buffer);
 80002c4:	e13ff917 	ldw	r4,-28(fp)
 80002c8:	8013b4c0 	call	8013b4c <alt_up_char_buffer_clear>
 80002cc:	00000006 	br	80002d0 <main+0xd0>

	//write_text("Video works!");

	while (1) {
	keys=IORD_ALTERA_AVALON_PIO_DATA(KEYS_BASE);
 80002d0:	00844834 	movhi	r2,4384
 80002d4:	10940404 	addi	r2,r2,20496
 80002d8:	10800037 	ldwio	r2,0(r2)
 80002dc:	e0bffe15 	stw	r2,-8(fp)

	// detect key press
	if ((keys != 7) && (keys != current_state)) {
 80002e0:	e0bffe17 	ldw	r2,-8(fp)
 80002e4:	108001e0 	cmpeqi	r2,r2,7
 80002e8:	1000261e 	bne	r2,zero,8000384 <main+0x184>
 80002ec:	e0fffe17 	ldw	r3,-8(fp)
 80002f0:	e0bffc17 	ldw	r2,-16(fp)
 80002f4:	18802326 	beq	r3,r2,8000384 <main+0x184>
		alt_up_pixel_buffer_dma_clear_screen(my_pixel_buffer,0);
 80002f8:	d1276a17 	ldw	r4,-25176(gp)
 80002fc:	000b883a 	mov	r5,zero
 8000300:	8013e6c0 	call	8013e6c <alt_up_pixel_buffer_dma_clear_screen>
		if (keys == 3)  printf("key 3 pressed\n");
 8000304:	e0bffe17 	ldw	r2,-8(fp)
 8000308:	108000d8 	cmpnei	r2,r2,3
 800030c:	1000041e 	bne	r2,zero,8000320 <main+0x120>
 8000310:	01020074 	movhi	r4,2049
 8000314:	211be504 	addi	r4,r4,28564
 8000318:	800534c0 	call	800534c <puts>
 800031c:	00001706 	br	800037c <main+0x17c>
		else if (keys == 5) {
 8000320:	e0bffe17 	ldw	r2,-8(fp)
 8000324:	10800158 	cmpnei	r2,r2,5
 8000328:	1000081e 	bne	r2,zero,800034c <main+0x14c>
			rcount = 10;
 800032c:	00800284 	movi	r2,10
 8000330:	d0a76915 	stw	r2,-25180(gp)
			alt_up_char_buffer_clear(my_char_buffer);
 8000334:	e13ff917 	ldw	r4,-28(fp)
 8000338:	8013b4c0 	call	8013b4c <alt_up_char_buffer_clear>
			printf("key 2 pressed\n");
 800033c:	01020074 	movhi	r4,2049
 8000340:	211be904 	addi	r4,r4,28580
 8000344:	800534c0 	call	800534c <puts>
 8000348:	00000c06 	br	800037c <main+0x17c>
		}

		else if (keys == 6) {
 800034c:	e0bffe17 	ldw	r2,-8(fp)
 8000350:	10800198 	cmpnei	r2,r2,6
 8000354:	1000091e 	bne	r2,zero,800037c <main+0x17c>
			bool_dec = 1;
 8000358:	00800044 	movi	r2,1
 800035c:	d0a76615 	stw	r2,-25192(gp)
			scount = 1.0f;
 8000360:	008fe034 	movhi	r2,16256
 8000364:	d0a76715 	stw	r2,-25188(gp)
			alt_up_char_buffer_clear(my_char_buffer);
 8000368:	e13ff917 	ldw	r4,-28(fp)
 800036c:	8013b4c0 	call	8013b4c <alt_up_char_buffer_clear>
			printf("key 1 pressed\n");
 8000370:	01020074 	movhi	r4,2049
 8000374:	211bed04 	addi	r4,r4,28596
 8000378:	800534c0 	call	800534c <puts>
		}
		current_state=keys;
 800037c:	e0bffe17 	ldw	r2,-8(fp)
 8000380:	e0bffc15 	stw	r2,-16(fp)
	}

	//default state: display image and text
	if (current_state == 3) {
 8000384:	e0bffc17 	ldw	r2,-16(fp)
 8000388:	108000d8 	cmpnei	r2,r2,3
 800038c:	1000511e 	bne	r2,zero,80004d4 <main+0x2d4>
		// Display the unaltered image to the VGA

		alt_up_char_buffer_string(my_char_buffer, "Original Image!",0,59);
 8000390:	e13ff917 	ldw	r4,-28(fp)
 8000394:	01420074 	movhi	r5,2049
 8000398:	295bf104 	addi	r5,r5,28612
 800039c:	000d883a 	mov	r6,zero
 80003a0:	01c00ec4 	movi	r7,59
 80003a4:	8013a380 	call	8013a38 <alt_up_char_buffer_string>
		int i, j;

		for(i=0; i<239; i++){
 80003a8:	e03ff815 	stw	zero,-32(fp)
 80003ac:	00004506 	br	80004c4 <main+0x2c4>
			//break if key press
			keys = keys=IORD_ALTERA_AVALON_PIO_DATA(KEYS_BASE);
 80003b0:	00844834 	movhi	r2,4384
 80003b4:	10940404 	addi	r2,r2,20496
 80003b8:	10800037 	ldwio	r2,0(r2)
 80003bc:	e0bffe15 	stw	r2,-8(fp)
			if (keys != 7 && keys != 3) {
 80003c0:	e0bffe17 	ldw	r2,-8(fp)
 80003c4:	108001e0 	cmpeqi	r2,r2,7
 80003c8:	1000031e 	bne	r2,zero,80003d8 <main+0x1d8>
 80003cc:	e0bffe17 	ldw	r2,-8(fp)
 80003d0:	108000d8 	cmpnei	r2,r2,3
 80003d4:	103fbe1e 	bne	r2,zero,80002d0 <main+0xd0>
				break;
			}
			for(j=0; j<320; j++) {
 80003d8:	e03ff715 	stw	zero,-36(fp)
 80003dc:	00003306 	br	80004ac <main+0x2ac>
				//draw_pixel(i,j);
				alt_up_pixel_buffer_dma_draw(my_pixel_buffer,(my_image[(i*320*3+j*3+2)]) +(my_image[(i*320*3+j*3+1)]<<8) +(my_image[(i*320*3+j*3+0)]<<16),j,i);
 80003e0:	d2276a17 	ldw	r8,-25176(gp)
 80003e4:	e0bff817 	ldw	r2,-32(fp)
 80003e8:	1100f024 	muli	r4,r2,960
 80003ec:	e0fff717 	ldw	r3,-36(fp)
 80003f0:	1805883a 	mov	r2,r3
 80003f4:	1085883a 	add	r2,r2,r2
 80003f8:	10c5883a 	add	r2,r2,r3
 80003fc:	2085883a 	add	r2,r4,r2
 8000400:	1007883a 	mov	r3,r2
 8000404:	e0bffb17 	ldw	r2,-20(fp)
 8000408:	1885883a 	add	r2,r3,r2
 800040c:	10800084 	addi	r2,r2,2
 8000410:	10800003 	ldbu	r2,0(r2)
 8000414:	11403fcc 	andi	r5,r2,255
 8000418:	e0bff817 	ldw	r2,-32(fp)
 800041c:	1100f024 	muli	r4,r2,960
 8000420:	e0fff717 	ldw	r3,-36(fp)
 8000424:	1805883a 	mov	r2,r3
 8000428:	1085883a 	add	r2,r2,r2
 800042c:	10c5883a 	add	r2,r2,r3
 8000430:	2085883a 	add	r2,r4,r2
 8000434:	1007883a 	mov	r3,r2
 8000438:	e0bffb17 	ldw	r2,-20(fp)
 800043c:	1885883a 	add	r2,r3,r2
 8000440:	10800044 	addi	r2,r2,1
 8000444:	10800003 	ldbu	r2,0(r2)
 8000448:	10803fcc 	andi	r2,r2,255
 800044c:	1004923a 	slli	r2,r2,8
 8000450:	288b883a 	add	r5,r5,r2
 8000454:	e0bff817 	ldw	r2,-32(fp)
 8000458:	1100f024 	muli	r4,r2,960
 800045c:	e0fff717 	ldw	r3,-36(fp)
 8000460:	1805883a 	mov	r2,r3
 8000464:	1085883a 	add	r2,r2,r2
 8000468:	10c5883a 	add	r2,r2,r3
 800046c:	2085883a 	add	r2,r4,r2
 8000470:	1007883a 	mov	r3,r2
 8000474:	e0bffb17 	ldw	r2,-20(fp)
 8000478:	1885883a 	add	r2,r3,r2
 800047c:	10800003 	ldbu	r2,0(r2)
 8000480:	10803fcc 	andi	r2,r2,255
 8000484:	1004943a 	slli	r2,r2,16
 8000488:	2885883a 	add	r2,r5,r2
 800048c:	100b883a 	mov	r5,r2
 8000490:	e1bff717 	ldw	r6,-36(fp)
 8000494:	e1fff817 	ldw	r7,-32(fp)
 8000498:	4009883a 	mov	r4,r8
 800049c:	8013be80 	call	8013be8 <alt_up_pixel_buffer_dma_draw>
			//break if key press
			keys = keys=IORD_ALTERA_AVALON_PIO_DATA(KEYS_BASE);
			if (keys != 7 && keys != 3) {
				break;
			}
			for(j=0; j<320; j++) {
 80004a0:	e0bff717 	ldw	r2,-36(fp)
 80004a4:	10800044 	addi	r2,r2,1
 80004a8:	e0bff715 	stw	r2,-36(fp)
 80004ac:	e0bff717 	ldw	r2,-36(fp)
 80004b0:	10805010 	cmplti	r2,r2,320
 80004b4:	103fca1e 	bne	r2,zero,80003e0 <main+0x1e0>
		// Display the unaltered image to the VGA

		alt_up_char_buffer_string(my_char_buffer, "Original Image!",0,59);
		int i, j;

		for(i=0; i<239; i++){
 80004b8:	e0bff817 	ldw	r2,-32(fp)
 80004bc:	10800044 	addi	r2,r2,1
 80004c0:	e0bff815 	stw	r2,-32(fp)
 80004c4:	e0bff817 	ldw	r2,-32(fp)
 80004c8:	10803bd0 	cmplti	r2,r2,239
 80004cc:	103fb81e 	bne	r2,zero,80003b0 <main+0x1b0>
 80004d0:	003f7f06 	br	80002d0 <main+0xd0>
		}
	}

	// Continuously rotate the image clockwise; 10 degree increments
	// As fast as the processor can handle
	else if (current_state == 5) {
 80004d4:	e0bffc17 	ldw	r2,-16(fp)
 80004d8:	10800158 	cmpnei	r2,r2,5
 80004dc:	1001af1e 	bne	r2,zero,8000b9c <main+0x99c>
		alt_up_pixel_buffer_dma_clear_screen(my_pixel_buffer,0);
 80004e0:	d1276a17 	ldw	r4,-25176(gp)
 80004e4:	000b883a 	mov	r5,zero
 80004e8:	8013e6c0 	call	8013e6c <alt_up_pixel_buffer_dma_clear_screen>
		int i, j;
		int iterations = 0;
 80004ec:	e03ff415 	stw	zero,-48(fp)
		int sum_of_cycles = 0;
 80004f0:	e03ff315 	stw	zero,-52(fp)
		int average_cycles = 0;
 80004f4:	e03ff215 	stw	zero,-56(fp)


		#ifdef FIXED_POINT

		alt_32 sine = (alt_32)(sinf(rcount*(M_PI/180))*512.0f);
 80004f8:	d1276917 	ldw	r4,-25180(gp)
 80004fc:	80031400 	call	8003140 <__floatsisf>
 8000500:	1007883a 	mov	r3,r2
 8000504:	008f23f4 	movhi	r2,15503
 8000508:	10be8d44 	addi	r2,r2,-1483
 800050c:	1885ff32 	custom	252,r2,r3,r2
 8000510:	1009883a 	mov	r4,r2
 8000514:	80013d80 	call	80013d8 <sinf>
 8000518:	1007883a 	mov	r3,r2
 800051c:	00910034 	movhi	r2,17408
 8000520:	1885ff32 	custom	252,r2,r3,r2
 8000524:	1009883a 	mov	r4,r2
 8000528:	80031d80 	call	80031d8 <__fixsfsi>
 800052c:	e0bff115 	stw	r2,-60(fp)
		alt_32 cosine = (alt_32)(cosf(rcount*(M_PI/180))*512.0f);
 8000530:	d1276917 	ldw	r4,-25180(gp)
 8000534:	80031400 	call	8003140 <__floatsisf>
 8000538:	1007883a 	mov	r3,r2
 800053c:	008f23f4 	movhi	r2,15503
 8000540:	10be8d44 	addi	r2,r2,-1483
 8000544:	1885ff32 	custom	252,r2,r3,r2
 8000548:	1009883a 	mov	r4,r2
 800054c:	80012040 	call	8001204 <cosf>
 8000550:	1007883a 	mov	r3,r2
 8000554:	00910034 	movhi	r2,17408
 8000558:	1885ff32 	custom	252,r2,r3,r2
 800055c:	1009883a 	mov	r4,r2
 8000560:	80031d80 	call	80031d8 <__fixsfsi>
 8000564:	e0bff015 	stw	r2,-64(fp)
		#endif



		//reset performance counter
		PERF_RESET(PERFORMANCE_COUNTER_0_BASE);
 8000568:	0007883a 	mov	r3,zero
 800056c:	00800044 	movi	r2,1
 8000570:	18800035 	stwio	r2,0(r3)

		for(i=0; i<num_rows-1; i++){
 8000574:	e03ff615 	stw	zero,-40(fp)
 8000578:	00018006 	br	8000b7c <main+0x97c>
			//break if key press
			keys = keys=IORD_ALTERA_AVALON_PIO_DATA(KEYS_BASE);
 800057c:	00844834 	movhi	r2,4384
 8000580:	10940404 	addi	r2,r2,20496
 8000584:	10800037 	ldwio	r2,0(r2)
 8000588:	e0bffe15 	stw	r2,-8(fp)
			if (keys != 7 && keys != 5) {
 800058c:	e0bffe17 	ldw	r2,-8(fp)
 8000590:	108001e0 	cmpeqi	r2,r2,7
 8000594:	1000031e 	bne	r2,zero,80005a4 <main+0x3a4>
 8000598:	e0bffe17 	ldw	r2,-8(fp)
 800059c:	10800158 	cmpnei	r2,r2,5
 80005a0:	10017a1e 	bne	r2,zero,8000b8c <main+0x98c>
				break;
			}
			for(j=0; j<num_cols-1; j++) {
 80005a4:	e03ff515 	stw	zero,-44(fp)
 80005a8:	00016206 	br	8000b34 <main+0x934>
				//start performance counter to record cycles of this innermost loop
				PERF_START_MEASURING(PERFORMANCE_COUNTER_0_BASE);
 80005ac:	00800104 	movi	r2,4
 80005b0:	10000035 	stwio	zero,0(r2)

				// to rotate about center calculate offset
				int offset_i = i - num_rows/2;
 80005b4:	d0e00017 	ldw	r3,-32768(gp)
 80005b8:	1804d7fa 	srli	r2,r3,31
 80005bc:	10c5883a 	add	r2,r2,r3
 80005c0:	1005d07a 	srai	r2,r2,1
 80005c4:	1007883a 	mov	r3,r2
 80005c8:	e0bff617 	ldw	r2,-40(fp)
 80005cc:	10c5c83a 	sub	r2,r2,r3
 80005d0:	e0bfef15 	stw	r2,-68(fp)
				int offset_j = j - num_cols/2;
 80005d4:	d0e00117 	ldw	r3,-32764(gp)
 80005d8:	1804d7fa 	srli	r2,r3,31
 80005dc:	10c5883a 	add	r2,r2,r3
 80005e0:	1005d07a 	srai	r2,r2,1
 80005e4:	1007883a 	mov	r3,r2
 80005e8:	e0bff517 	ldw	r2,-44(fp)
 80005ec:	10c5c83a 	sub	r2,r2,r3
 80005f0:	e0bfee15 	stw	r2,-72(fp)

				// rotate row/col values
				#ifdef FIXED_POINT

				//check bounds
				row = offset_i*cosine-offset_j*sine + (num_rows<<shift_amt)/2;
 80005f4:	e0ffef17 	ldw	r3,-68(fp)
 80005f8:	e0bff017 	ldw	r2,-64(fp)
 80005fc:	1889383a 	mul	r4,r3,r2
 8000600:	e0ffee17 	ldw	r3,-72(fp)
 8000604:	e0bff117 	ldw	r2,-60(fp)
 8000608:	1885383a 	mul	r2,r3,r2
 800060c:	2089c83a 	sub	r4,r4,r2
 8000610:	d0e00017 	ldw	r3,-32768(gp)
 8000614:	d0a00217 	ldw	r2,-32760(gp)
 8000618:	1886983a 	sll	r3,r3,r2
 800061c:	1804d7fa 	srli	r2,r3,31
 8000620:	10c5883a 	add	r2,r2,r3
 8000624:	1005d07a 	srai	r2,r2,1
 8000628:	2089883a 	add	r4,r4,r2
 800062c:	80031400 	call	8003140 <__floatsisf>
 8000630:	d0a76b15 	stw	r2,-25172(gp)
				col = offset_i*sine+offset_j*cosine + (num_cols<<shift_amt)/2;
 8000634:	e0ffef17 	ldw	r3,-68(fp)
 8000638:	e0bff117 	ldw	r2,-60(fp)
 800063c:	1889383a 	mul	r4,r3,r2
 8000640:	e0ffee17 	ldw	r3,-72(fp)
 8000644:	e0bff017 	ldw	r2,-64(fp)
 8000648:	1885383a 	mul	r2,r3,r2
 800064c:	2089883a 	add	r4,r4,r2
 8000650:	d0e00117 	ldw	r3,-32764(gp)
 8000654:	d0a00217 	ldw	r2,-32760(gp)
 8000658:	1886983a 	sll	r3,r3,r2
 800065c:	1804d7fa 	srli	r2,r3,31
 8000660:	10c5883a 	add	r2,r2,r3
 8000664:	1005d07a 	srai	r2,r2,1
 8000668:	2089883a 	add	r4,r4,r2
 800066c:	80031400 	call	8003140 <__floatsisf>
 8000670:	d0a76815 	stw	r2,-25184(gp)

				if(col>(num_cols<<shift_amt) || col<0 || row>(num_rows<<shift_amt) || row<(0)) continue;
 8000674:	d0e00117 	ldw	r3,-32764(gp)
 8000678:	d0a00217 	ldw	r2,-32760(gp)
 800067c:	1888983a 	sll	r4,r3,r2
 8000680:	80031400 	call	8003140 <__floatsisf>
 8000684:	d0e76817 	ldw	r3,-25184(gp)
 8000688:	1009883a 	mov	r4,r2
 800068c:	180b883a 	mov	r5,r3
 8000690:	80030500 	call	8003050 <__ltsf2>
 8000694:	1004803a 	cmplt	r2,r2,zero
 8000698:	1001231e 	bne	r2,zero,8000b28 <main+0x928>
 800069c:	d0a76817 	ldw	r2,-25184(gp)
 80006a0:	1009883a 	mov	r4,r2
 80006a4:	000b883a 	mov	r5,zero
 80006a8:	80030500 	call	8003050 <__ltsf2>
 80006ac:	1004803a 	cmplt	r2,r2,zero
 80006b0:	10011d1e 	bne	r2,zero,8000b28 <main+0x928>
 80006b4:	d0e00017 	ldw	r3,-32768(gp)
 80006b8:	d0a00217 	ldw	r2,-32760(gp)
 80006bc:	1888983a 	sll	r4,r3,r2
 80006c0:	80031400 	call	8003140 <__floatsisf>
 80006c4:	d0e76b17 	ldw	r3,-25172(gp)
 80006c8:	1009883a 	mov	r4,r2
 80006cc:	180b883a 	mov	r5,r3
 80006d0:	80030500 	call	8003050 <__ltsf2>
 80006d4:	1004803a 	cmplt	r2,r2,zero
 80006d8:	1001131e 	bne	r2,zero,8000b28 <main+0x928>
 80006dc:	d0a76b17 	ldw	r2,-25172(gp)
 80006e0:	1009883a 	mov	r4,r2
 80006e4:	000b883a 	mov	r5,zero
 80006e8:	80030500 	call	8003050 <__ltsf2>
 80006ec:	1004803a 	cmplt	r2,r2,zero
 80006f0:	10010d1e 	bne	r2,zero,8000b28 <main+0x928>

				#endif

				// interpolation:
				// truncate
				int rowf = (int)floorf(row);
 80006f4:	d0a76b17 	ldw	r2,-25172(gp)
 80006f8:	1009883a 	mov	r4,r2
 80006fc:	80012c40 	call	80012c4 <floorf>
 8000700:	1009883a 	mov	r4,r2
 8000704:	80031d80 	call	80031d8 <__fixsfsi>
 8000708:	e0bfed15 	stw	r2,-76(fp)
				int colf = (int)floorf(col);
 800070c:	d0a76817 	ldw	r2,-25184(gp)
 8000710:	1009883a 	mov	r4,r2
 8000714:	80012c40 	call	80012c4 <floorf>
 8000718:	1009883a 	mov	r4,r2
 800071c:	80031d80 	call	80031d8 <__fixsfsi>
 8000720:	e0bfec15 	stw	r2,-80(fp)

				#ifdef FIXED_POINT
				alt_u32 row_fp = offset_i*cosine - offset_j*sine + ((num_rows/2)<<shift_amt);
 8000724:	e0ffef17 	ldw	r3,-68(fp)
 8000728:	e0bff017 	ldw	r2,-64(fp)
 800072c:	1889383a 	mul	r4,r3,r2
 8000730:	e0ffee17 	ldw	r3,-72(fp)
 8000734:	e0bff117 	ldw	r2,-60(fp)
 8000738:	1885383a 	mul	r2,r3,r2
 800073c:	2089c83a 	sub	r4,r4,r2
 8000740:	d0e00017 	ldw	r3,-32768(gp)
 8000744:	1804d7fa 	srli	r2,r3,31
 8000748:	10c5883a 	add	r2,r2,r3
 800074c:	1005d07a 	srai	r2,r2,1
 8000750:	1007883a 	mov	r3,r2
 8000754:	d0a00217 	ldw	r2,-32760(gp)
 8000758:	1884983a 	sll	r2,r3,r2
 800075c:	2085883a 	add	r2,r4,r2
 8000760:	e0bfeb15 	stw	r2,-84(fp)
				alt_u32 col_fp = offset_i*sine + offset_j*cosine + ((num_cols/2)<<shift_amt);
 8000764:	e0ffef17 	ldw	r3,-68(fp)
 8000768:	e0bff117 	ldw	r2,-60(fp)
 800076c:	1889383a 	mul	r4,r3,r2
 8000770:	e0ffee17 	ldw	r3,-72(fp)
 8000774:	e0bff017 	ldw	r2,-64(fp)
 8000778:	1885383a 	mul	r2,r3,r2
 800077c:	2089883a 	add	r4,r4,r2
 8000780:	d0e00117 	ldw	r3,-32764(gp)
 8000784:	1804d7fa 	srli	r2,r3,31
 8000788:	10c5883a 	add	r2,r2,r3
 800078c:	1005d07a 	srai	r2,r2,1
 8000790:	1007883a 	mov	r3,r2
 8000794:	d0a00217 	ldw	r2,-32760(gp)
 8000798:	1884983a 	sll	r2,r3,r2
 800079c:	2085883a 	add	r2,r4,r2
 80007a0:	e0bfea15 	stw	r2,-88(fp)

				alt_32 rfrac = row_fp-(rowf);
 80007a4:	e0ffed17 	ldw	r3,-76(fp)
 80007a8:	e0bfeb17 	ldw	r2,-84(fp)
 80007ac:	10c5c83a 	sub	r2,r2,r3
 80007b0:	e0bfe915 	stw	r2,-92(fp)
				alt_32 cfrac = col_fp-(colf);
 80007b4:	e0ffec17 	ldw	r3,-80(fp)
 80007b8:	e0bfea17 	ldw	r2,-88(fp)
 80007bc:	10c5c83a 	sub	r2,r2,r3
 80007c0:	e0bfe815 	stw	r2,-96(fp)

				alt_32 weight1 = ((1<<shift_amt)-rfrac)*((1<<shift_amt)-cfrac);
 80007c4:	d0e00217 	ldw	r3,-32760(gp)
 80007c8:	00800044 	movi	r2,1
 80007cc:	10c6983a 	sll	r3,r2,r3
 80007d0:	e0bfe917 	ldw	r2,-92(fp)
 80007d4:	1889c83a 	sub	r4,r3,r2
 80007d8:	d0e00217 	ldw	r3,-32760(gp)
 80007dc:	00800044 	movi	r2,1
 80007e0:	10c6983a 	sll	r3,r2,r3
 80007e4:	e0bfe817 	ldw	r2,-96(fp)
 80007e8:	1885c83a 	sub	r2,r3,r2
 80007ec:	2085383a 	mul	r2,r4,r2
 80007f0:	e0bfe715 	stw	r2,-100(fp)
				alt_32 weight2 = rfrac*((1<<shift_amt)-cfrac);
 80007f4:	d0e00217 	ldw	r3,-32760(gp)
 80007f8:	00800044 	movi	r2,1
 80007fc:	10c6983a 	sll	r3,r2,r3
 8000800:	e0bfe817 	ldw	r2,-96(fp)
 8000804:	1887c83a 	sub	r3,r3,r2
 8000808:	e0bfe917 	ldw	r2,-92(fp)
 800080c:	1885383a 	mul	r2,r3,r2
 8000810:	e0bfe615 	stw	r2,-104(fp)
				alt_32 weight3 = rfrac*cfrac;
 8000814:	e0ffe917 	ldw	r3,-92(fp)
 8000818:	e0bfe817 	ldw	r2,-96(fp)
 800081c:	1885383a 	mul	r2,r3,r2
 8000820:	e0bfe515 	stw	r2,-108(fp)
				alt_32 weight4 = ((1<<shift_amt)-rfrac)*cfrac;
 8000824:	d0e00217 	ldw	r3,-32760(gp)
 8000828:	00800044 	movi	r2,1
 800082c:	10c6983a 	sll	r3,r2,r3
 8000830:	e0bfe917 	ldw	r2,-92(fp)
 8000834:	1887c83a 	sub	r3,r3,r2
 8000838:	e0bfe817 	ldw	r2,-96(fp)
 800083c:	1885383a 	mul	r2,r3,r2
 8000840:	e0bfe415 	stw	r2,-112(fp)
				weight1 = weight1>>shift_amt;
 8000844:	d0e00217 	ldw	r3,-32760(gp)
 8000848:	e0bfe717 	ldw	r2,-100(fp)
 800084c:	10c5d83a 	sra	r2,r2,r3
 8000850:	e0bfe715 	stw	r2,-100(fp)
				weight2 = weight2>>shift_amt;
 8000854:	d0e00217 	ldw	r3,-32760(gp)
 8000858:	e0bfe617 	ldw	r2,-104(fp)
 800085c:	10c5d83a 	sra	r2,r2,r3
 8000860:	e0bfe615 	stw	r2,-104(fp)
				weight3 = weight3>>shift_amt;
 8000864:	d0e00217 	ldw	r3,-32760(gp)
 8000868:	e0bfe517 	ldw	r2,-108(fp)
 800086c:	10c5d83a 	sra	r2,r2,r3
 8000870:	e0bfe515 	stw	r2,-108(fp)
				weight4 = weight4>>shift_amt;
 8000874:	d0e00217 	ldw	r3,-32760(gp)
 8000878:	e0bfe417 	ldw	r2,-112(fp)
 800087c:	10c5d83a 	sra	r2,r2,r3
 8000880:	e0bfe415 	stw	r2,-112(fp)
				float weight3 = rfrac*cfrac;
				float weight4 = (1.0-rfrac)*cfrac;

				#endif

				int pixel1 = rowf*320*3 + colf*3;
 8000884:	e0bfed17 	ldw	r2,-76(fp)
 8000888:	1100f024 	muli	r4,r2,960
 800088c:	e0ffec17 	ldw	r3,-80(fp)
 8000890:	1805883a 	mov	r2,r3
 8000894:	1085883a 	add	r2,r2,r2
 8000898:	10c5883a 	add	r2,r2,r3
 800089c:	2085883a 	add	r2,r4,r2
 80008a0:	e0bfe315 	stw	r2,-116(fp)
				int pixel2 = (rowf + 1)*320*3 + colf*3;
 80008a4:	e0bfed17 	ldw	r2,-76(fp)
 80008a8:	1100f024 	muli	r4,r2,960
 80008ac:	e0ffec17 	ldw	r3,-80(fp)
 80008b0:	1805883a 	mov	r2,r3
 80008b4:	1085883a 	add	r2,r2,r2
 80008b8:	10c5883a 	add	r2,r2,r3
 80008bc:	2085883a 	add	r2,r4,r2
 80008c0:	1080f004 	addi	r2,r2,960
 80008c4:	e0bfe215 	stw	r2,-120(fp)
				int pixel3 = (rowf + 1)*320*3 + (colf + 1)*3;
 80008c8:	e0bfed17 	ldw	r2,-76(fp)
 80008cc:	1100f024 	muli	r4,r2,960
 80008d0:	e0ffec17 	ldw	r3,-80(fp)
 80008d4:	1805883a 	mov	r2,r3
 80008d8:	1085883a 	add	r2,r2,r2
 80008dc:	10c5883a 	add	r2,r2,r3
 80008e0:	2085883a 	add	r2,r4,r2
 80008e4:	1080f0c4 	addi	r2,r2,963
 80008e8:	e0bfe115 	stw	r2,-124(fp)
				int pixel4 = rowf*320*3 + (colf + 1)*3;
 80008ec:	e0ffec17 	ldw	r3,-80(fp)
 80008f0:	1805883a 	mov	r2,r3
 80008f4:	1085883a 	add	r2,r2,r2
 80008f8:	10c7883a 	add	r3,r2,r3
 80008fc:	e0bfed17 	ldw	r2,-76(fp)
 8000900:	1080f024 	muli	r2,r2,960
 8000904:	1885883a 	add	r2,r3,r2
 8000908:	108000c4 	addi	r2,r2,3
 800090c:	e0bfe015 	stw	r2,-128(fp)

				//three colors
				int in1 = (int) (weight1*my_image[pixel1] +
						weight2*my_image[pixel2] +
						weight3*my_image[pixel3] +
						weight4*my_image[pixel4]);
 8000910:	e0bfe317 	ldw	r2,-116(fp)
 8000914:	1007883a 	mov	r3,r2
 8000918:	e0bffb17 	ldw	r2,-20(fp)
 800091c:	1885883a 	add	r2,r3,r2
 8000920:	10800003 	ldbu	r2,0(r2)
 8000924:	10c03fcc 	andi	r3,r2,255
 8000928:	e0bfe717 	ldw	r2,-100(fp)
 800092c:	1889383a 	mul	r4,r3,r2
 8000930:	e0bfe217 	ldw	r2,-120(fp)
 8000934:	1007883a 	mov	r3,r2
 8000938:	e0bffb17 	ldw	r2,-20(fp)
 800093c:	1885883a 	add	r2,r3,r2
 8000940:	10800003 	ldbu	r2,0(r2)
 8000944:	10c03fcc 	andi	r3,r2,255
 8000948:	e0bfe617 	ldw	r2,-104(fp)
 800094c:	1885383a 	mul	r2,r3,r2
 8000950:	208b883a 	add	r5,r4,r2
 8000954:	e0bfe017 	ldw	r2,-128(fp)
 8000958:	1007883a 	mov	r3,r2
 800095c:	e0bffb17 	ldw	r2,-20(fp)
 8000960:	1885883a 	add	r2,r3,r2
 8000964:	10800003 	ldbu	r2,0(r2)
 8000968:	10c03fcc 	andi	r3,r2,255
 800096c:	e0bfe417 	ldw	r2,-112(fp)
 8000970:	1889383a 	mul	r4,r3,r2
 8000974:	e0bfe117 	ldw	r2,-124(fp)
 8000978:	1007883a 	mov	r3,r2
 800097c:	e0bffb17 	ldw	r2,-20(fp)
 8000980:	1885883a 	add	r2,r3,r2
 8000984:	10800003 	ldbu	r2,0(r2)
 8000988:	10c03fcc 	andi	r3,r2,255
 800098c:	e0bfe517 	ldw	r2,-108(fp)
 8000990:	1885383a 	mul	r2,r3,r2
 8000994:	2085883a 	add	r2,r4,r2
 8000998:	2885883a 	add	r2,r5,r2
 800099c:	e0bfdf15 	stw	r2,-132(fp)

				int in2 = (int) (weight1*my_image[pixel1+1] +
						weight2*my_image[pixel2+1] +
						weight3*my_image[pixel3+1] +
						weight4*my_image[pixel4+1]);
 80009a0:	e0ffe317 	ldw	r3,-116(fp)
 80009a4:	e0bffb17 	ldw	r2,-20(fp)
 80009a8:	1885883a 	add	r2,r3,r2
 80009ac:	10800044 	addi	r2,r2,1
 80009b0:	10800003 	ldbu	r2,0(r2)
 80009b4:	10c03fcc 	andi	r3,r2,255
 80009b8:	e0bfe717 	ldw	r2,-100(fp)
 80009bc:	1889383a 	mul	r4,r3,r2
 80009c0:	e0ffe217 	ldw	r3,-120(fp)
 80009c4:	e0bffb17 	ldw	r2,-20(fp)
 80009c8:	1885883a 	add	r2,r3,r2
 80009cc:	10800044 	addi	r2,r2,1
 80009d0:	10800003 	ldbu	r2,0(r2)
 80009d4:	10c03fcc 	andi	r3,r2,255
 80009d8:	e0bfe617 	ldw	r2,-104(fp)
 80009dc:	1885383a 	mul	r2,r3,r2
 80009e0:	208b883a 	add	r5,r4,r2
 80009e4:	e0ffe017 	ldw	r3,-128(fp)
 80009e8:	e0bffb17 	ldw	r2,-20(fp)
 80009ec:	1885883a 	add	r2,r3,r2
 80009f0:	10800044 	addi	r2,r2,1
 80009f4:	10800003 	ldbu	r2,0(r2)
 80009f8:	10c03fcc 	andi	r3,r2,255
 80009fc:	e0bfe417 	ldw	r2,-112(fp)
 8000a00:	1889383a 	mul	r4,r3,r2
 8000a04:	e0ffe117 	ldw	r3,-124(fp)
 8000a08:	e0bffb17 	ldw	r2,-20(fp)
 8000a0c:	1885883a 	add	r2,r3,r2
 8000a10:	10800044 	addi	r2,r2,1
 8000a14:	10800003 	ldbu	r2,0(r2)
 8000a18:	10c03fcc 	andi	r3,r2,255
 8000a1c:	e0bfe517 	ldw	r2,-108(fp)
 8000a20:	1885383a 	mul	r2,r3,r2
 8000a24:	2085883a 	add	r2,r4,r2
 8000a28:	2885883a 	add	r2,r5,r2
 8000a2c:	e0bfde15 	stw	r2,-136(fp)

				int in3 = (int) (weight1*my_image[pixel1+2] +
						weight2*my_image[pixel2+2] +
						weight3*my_image[pixel3+2] +
						weight4*my_image[pixel4+2]);
 8000a30:	e0ffe317 	ldw	r3,-116(fp)
 8000a34:	e0bffb17 	ldw	r2,-20(fp)
 8000a38:	1885883a 	add	r2,r3,r2
 8000a3c:	10800084 	addi	r2,r2,2
 8000a40:	10800003 	ldbu	r2,0(r2)
 8000a44:	10c03fcc 	andi	r3,r2,255
 8000a48:	e0bfe717 	ldw	r2,-100(fp)
 8000a4c:	1889383a 	mul	r4,r3,r2
 8000a50:	e0ffe217 	ldw	r3,-120(fp)
 8000a54:	e0bffb17 	ldw	r2,-20(fp)
 8000a58:	1885883a 	add	r2,r3,r2
 8000a5c:	10800084 	addi	r2,r2,2
 8000a60:	10800003 	ldbu	r2,0(r2)
 8000a64:	10c03fcc 	andi	r3,r2,255
 8000a68:	e0bfe617 	ldw	r2,-104(fp)
 8000a6c:	1885383a 	mul	r2,r3,r2
 8000a70:	208b883a 	add	r5,r4,r2
 8000a74:	e0ffe017 	ldw	r3,-128(fp)
 8000a78:	e0bffb17 	ldw	r2,-20(fp)
 8000a7c:	1885883a 	add	r2,r3,r2
 8000a80:	10800084 	addi	r2,r2,2
 8000a84:	10800003 	ldbu	r2,0(r2)
 8000a88:	10c03fcc 	andi	r3,r2,255
 8000a8c:	e0bfe417 	ldw	r2,-112(fp)
 8000a90:	1889383a 	mul	r4,r3,r2
 8000a94:	e0ffe117 	ldw	r3,-124(fp)
 8000a98:	e0bffb17 	ldw	r2,-20(fp)
 8000a9c:	1885883a 	add	r2,r3,r2
 8000aa0:	10800084 	addi	r2,r2,2
 8000aa4:	10800003 	ldbu	r2,0(r2)
 8000aa8:	10c03fcc 	andi	r3,r2,255
 8000aac:	e0bfe517 	ldw	r2,-108(fp)
 8000ab0:	1885383a 	mul	r2,r3,r2
 8000ab4:	2085883a 	add	r2,r4,r2
 8000ab8:	2885883a 	add	r2,r5,r2
 8000abc:	e0bfdd15 	stw	r2,-140(fp)



				//draw_pixel
				cycle_counter = perf_get_total_time ((void*) PERFORMANCE_COUNTER_0_BASE);
 8000ac0:	0009883a 	mov	r4,zero
 8000ac4:	8012c5c0 	call	8012c5c <perf_get_total_time>
 8000ac8:	1009883a 	mov	r4,r2
 8000acc:	180b883a 	mov	r5,r3
 8000ad0:	e13ffa05 	stb	r4,-24(fp)
				PERF_START_MEASURING(PERFORMANCE_COUNTER_0_BASE);
 8000ad4:	00800104 	movi	r2,4
 8000ad8:	10000035 	stwio	zero,0(r2)
				++iterations;
 8000adc:	e0bff417 	ldw	r2,-48(fp)
 8000ae0:	10800044 	addi	r2,r2,1
 8000ae4:	e0bff415 	stw	r2,-48(fp)
				sum_of_cycles += cycle_counter;
 8000ae8:	e0fffa03 	ldbu	r3,-24(fp)
 8000aec:	e0bff317 	ldw	r2,-52(fp)
 8000af0:	10c5883a 	add	r2,r2,r3
 8000af4:	e0bff315 	stw	r2,-52(fp)
				//printf("# of Cycles:");
				//printf("%d\n", average_cycles);
				alt_up_pixel_buffer_dma_draw(my_pixel_buffer,(in3 +(in2<<8) +(in1<<16)),j,i);
 8000af8:	d1276a17 	ldw	r4,-25176(gp)
 8000afc:	e0bfde17 	ldw	r2,-136(fp)
 8000b00:	1006923a 	slli	r3,r2,8
 8000b04:	e0bfdd17 	ldw	r2,-140(fp)
 8000b08:	1887883a 	add	r3,r3,r2
 8000b0c:	e0bfdf17 	ldw	r2,-132(fp)
 8000b10:	1004943a 	slli	r2,r2,16
 8000b14:	1885883a 	add	r2,r3,r2
 8000b18:	100b883a 	mov	r5,r2
 8000b1c:	e1bff517 	ldw	r6,-44(fp)
 8000b20:	e1fff617 	ldw	r7,-40(fp)
 8000b24:	8013be80 	call	8013be8 <alt_up_pixel_buffer_dma_draw>
			//break if key press
			keys = keys=IORD_ALTERA_AVALON_PIO_DATA(KEYS_BASE);
			if (keys != 7 && keys != 5) {
				break;
			}
			for(j=0; j<num_cols-1; j++) {
 8000b28:	e0bff517 	ldw	r2,-44(fp)
 8000b2c:	10800044 	addi	r2,r2,1
 8000b30:	e0bff515 	stw	r2,-44(fp)
 8000b34:	d0a00117 	ldw	r2,-32764(gp)
 8000b38:	10ffffc4 	addi	r3,r2,-1
 8000b3c:	e0bff517 	ldw	r2,-44(fp)
 8000b40:	10fe9a16 	blt	r2,r3,80005ac <main+0x3ac>
				sum_of_cycles += cycle_counter;
				//printf("# of Cycles:");
				//printf("%d\n", average_cycles);
				alt_up_pixel_buffer_dma_draw(my_pixel_buffer,(in3 +(in2<<8) +(in1<<16)),j,i);
			}
			average_cycles = sum_of_cycles/iterations;
 8000b44:	e13ff317 	ldw	r4,-52(fp)
 8000b48:	e17ff417 	ldw	r5,-48(fp)
 8000b4c:	80033740 	call	8003374 <__divsi3>
 8000b50:	e0bff215 	stw	r2,-56(fp)
			printf("Average # of Cycles:");
 8000b54:	01020074 	movhi	r4,2049
 8000b58:	211bf504 	addi	r4,r4,28628
 8000b5c:	80052340 	call	8005234 <printf>
			printf("%d\n", average_cycles);
 8000b60:	01020074 	movhi	r4,2049
 8000b64:	211bfb04 	addi	r4,r4,28652
 8000b68:	e17ff217 	ldw	r5,-56(fp)
 8000b6c:	80052340 	call	8005234 <printf>


		//reset performance counter
		PERF_RESET(PERFORMANCE_COUNTER_0_BASE);

		for(i=0; i<num_rows-1; i++){
 8000b70:	e0bff617 	ldw	r2,-40(fp)
 8000b74:	10800044 	addi	r2,r2,1
 8000b78:	e0bff615 	stw	r2,-40(fp)
 8000b7c:	d0a00017 	ldw	r2,-32768(gp)
 8000b80:	10ffffc4 	addi	r3,r2,-1
 8000b84:	e0bff617 	ldw	r2,-40(fp)
 8000b88:	10fe7c16 	blt	r2,r3,800057c <main+0x37c>
			}
			average_cycles = sum_of_cycles/iterations;
			printf("Average # of Cycles:");
			printf("%d\n", average_cycles);
		}
		rcount+=10;
 8000b8c:	d0a76917 	ldw	r2,-25180(gp)
 8000b90:	10800284 	addi	r2,r2,10
 8000b94:	d0a76915 	stw	r2,-25180(gp)
 8000b98:	003dcd06 	br	80002d0 <main+0xd0>

	}
	// Shrink the image in 10% increments until it is 10% of the original
	// Grow the image back to original size
	// Repeat as fast as the processor can handle
	else if (current_state == 6) {
 8000b9c:	e0bffc17 	ldw	r2,-16(fp)
 8000ba0:	10800198 	cmpnei	r2,r2,6
 8000ba4:	103dca1e 	bne	r2,zero,80002d0 <main+0xd0>
		alt_up_pixel_buffer_dma_clear_screen(my_pixel_buffer,0);
 8000ba8:	d1276a17 	ldw	r4,-25176(gp)
 8000bac:	000b883a 	mov	r5,zero
 8000bb0:	8013e6c0 	call	8013e6c <alt_up_pixel_buffer_dma_clear_screen>
		printf("scount before drawing is:");
 8000bb4:	01020074 	movhi	r4,2049
 8000bb8:	211bfc04 	addi	r4,r4,28656
 8000bbc:	80052340 	call	8005234 <printf>
		printf("%f\n", scount);
 8000bc0:	d0a76717 	ldw	r2,-25188(gp)
 8000bc4:	1009883a 	mov	r4,r2
 8000bc8:	800326c0 	call	800326c <__extendsfdf2>
 8000bcc:	100d883a 	mov	r6,r2
 8000bd0:	180f883a 	mov	r7,r3
 8000bd4:	01020074 	movhi	r4,2049
 8000bd8:	211c0304 	addi	r4,r4,28684
 8000bdc:	300b883a 	mov	r5,r6
 8000be0:	380d883a 	mov	r6,r7
 8000be4:	80052340 	call	8005234 <printf>
		int i, j;
		for(i=0; i<num_rows-1; i++){
 8000be8:	e03fdc15 	stw	zero,-144(fp)
 8000bec:	00014306 	br	80010fc <main+0xefc>
			//break if key press
			keys=IORD_ALTERA_AVALON_PIO_DATA(KEYS_BASE);
 8000bf0:	00844834 	movhi	r2,4384
 8000bf4:	10940404 	addi	r2,r2,20496
 8000bf8:	10800037 	ldwio	r2,0(r2)
 8000bfc:	e0bffe15 	stw	r2,-8(fp)
			if (keys != 7 && keys != 6) {
 8000c00:	e0bffe17 	ldw	r2,-8(fp)
 8000c04:	108001e0 	cmpeqi	r2,r2,7
 8000c08:	1000031e 	bne	r2,zero,8000c18 <main+0xa18>
 8000c0c:	e0bffe17 	ldw	r2,-8(fp)
 8000c10:	10800198 	cmpnei	r2,r2,6
 8000c14:	10013d1e 	bne	r2,zero,800110c <main+0xf0c>
				break;
			}
			for(j=0; j<num_cols-1; j++) {
 8000c18:	e03fdb15 	stw	zero,-148(fp)
 8000c1c:	00013006 	br	80010e0 <main+0xee0>
				//center transformation
				int offset_i = i - num_rows/2;
 8000c20:	d0e00017 	ldw	r3,-32768(gp)
 8000c24:	1804d7fa 	srli	r2,r3,31
 8000c28:	10c5883a 	add	r2,r2,r3
 8000c2c:	1005d07a 	srai	r2,r2,1
 8000c30:	1007883a 	mov	r3,r2
 8000c34:	e0bfdc17 	ldw	r2,-144(fp)
 8000c38:	10c5c83a 	sub	r2,r2,r3
 8000c3c:	e0bfda15 	stw	r2,-152(fp)
				int offset_j = j - num_cols/2;
 8000c40:	d0e00117 	ldw	r3,-32764(gp)
 8000c44:	1804d7fa 	srli	r2,r3,31
 8000c48:	10c5883a 	add	r2,r2,r3
 8000c4c:	1005d07a 	srai	r2,r2,1
 8000c50:	1007883a 	mov	r3,r2
 8000c54:	e0bfdb17 	ldw	r2,-148(fp)
 8000c58:	10c5c83a 	sub	r2,r2,r3
 8000c5c:	e0bfd915 	stw	r2,-156(fp)
				//shrink/grow 10%
				row = offset_i*scount+num_rows/2;
 8000c60:	e13fda17 	ldw	r4,-152(fp)
 8000c64:	80031400 	call	8003140 <__floatsisf>
 8000c68:	1007883a 	mov	r3,r2
 8000c6c:	d0a76717 	ldw	r2,-25188(gp)
 8000c70:	18a1ff32 	custom	252,r16,r3,r2
 8000c74:	d0e00017 	ldw	r3,-32768(gp)
 8000c78:	1804d7fa 	srli	r2,r3,31
 8000c7c:	10c5883a 	add	r2,r2,r3
 8000c80:	1005d07a 	srai	r2,r2,1
 8000c84:	1009883a 	mov	r4,r2
 8000c88:	80031400 	call	8003140 <__floatsisf>
 8000c8c:	8085ff72 	custom	253,r2,r16,r2
 8000c90:	d0a76b15 	stw	r2,-25172(gp)
				col = offset_j*scount+num_cols/2;
 8000c94:	e13fd917 	ldw	r4,-156(fp)
 8000c98:	80031400 	call	8003140 <__floatsisf>
 8000c9c:	1007883a 	mov	r3,r2
 8000ca0:	d0a76717 	ldw	r2,-25188(gp)
 8000ca4:	18a1ff32 	custom	252,r16,r3,r2
 8000ca8:	d0e00117 	ldw	r3,-32764(gp)
 8000cac:	1804d7fa 	srli	r2,r3,31
 8000cb0:	10c5883a 	add	r2,r2,r3
 8000cb4:	1005d07a 	srai	r2,r2,1
 8000cb8:	1009883a 	mov	r4,r2
 8000cbc:	80031400 	call	8003140 <__floatsisf>
 8000cc0:	8085ff72 	custom	253,r2,r16,r2
 8000cc4:	d0a76815 	stw	r2,-25184(gp)

				if(col>num_cols || col<0 || row>num_rows || row<0) continue;
 8000cc8:	d1200117 	ldw	r4,-32764(gp)
 8000ccc:	80031400 	call	8003140 <__floatsisf>
 8000cd0:	d0e76817 	ldw	r3,-25184(gp)
 8000cd4:	1009883a 	mov	r4,r2
 8000cd8:	180b883a 	mov	r5,r3
 8000cdc:	80030500 	call	8003050 <__ltsf2>
 8000ce0:	1004803a 	cmplt	r2,r2,zero
 8000ce4:	1000fb1e 	bne	r2,zero,80010d4 <main+0xed4>
 8000ce8:	d0a76817 	ldw	r2,-25184(gp)
 8000cec:	1009883a 	mov	r4,r2
 8000cf0:	000b883a 	mov	r5,zero
 8000cf4:	80030500 	call	8003050 <__ltsf2>
 8000cf8:	1004803a 	cmplt	r2,r2,zero
 8000cfc:	1000f51e 	bne	r2,zero,80010d4 <main+0xed4>
 8000d00:	d1200017 	ldw	r4,-32768(gp)
 8000d04:	80031400 	call	8003140 <__floatsisf>
 8000d08:	d0e76b17 	ldw	r3,-25172(gp)
 8000d0c:	1009883a 	mov	r4,r2
 8000d10:	180b883a 	mov	r5,r3
 8000d14:	80030500 	call	8003050 <__ltsf2>
 8000d18:	1004803a 	cmplt	r2,r2,zero
 8000d1c:	1000ed1e 	bne	r2,zero,80010d4 <main+0xed4>
 8000d20:	d0a76b17 	ldw	r2,-25172(gp)
 8000d24:	1009883a 	mov	r4,r2
 8000d28:	000b883a 	mov	r5,zero
 8000d2c:	80030500 	call	8003050 <__ltsf2>
 8000d30:	1004803a 	cmplt	r2,r2,zero
 8000d34:	1000e71e 	bne	r2,zero,80010d4 <main+0xed4>


				//interpolation: cut and pasted from above; should be put in a function
				int rowf = (int)floorf(row);
 8000d38:	d0a76b17 	ldw	r2,-25172(gp)
 8000d3c:	1009883a 	mov	r4,r2
 8000d40:	80012c40 	call	80012c4 <floorf>
 8000d44:	1009883a 	mov	r4,r2
 8000d48:	80031d80 	call	80031d8 <__fixsfsi>
 8000d4c:	e0bfd815 	stw	r2,-160(fp)
				int colf = (int)floorf(col);
 8000d50:	d0a76817 	ldw	r2,-25184(gp)
 8000d54:	1009883a 	mov	r4,r2
 8000d58:	80012c40 	call	80012c4 <floorf>
 8000d5c:	1009883a 	mov	r4,r2
 8000d60:	80031d80 	call	80031d8 <__fixsfsi>
 8000d64:	e0bfd715 	stw	r2,-164(fp)
				float rfrac = row-rowf;
 8000d68:	d4276b17 	ldw	r16,-25172(gp)
 8000d6c:	e13fd817 	ldw	r4,-160(fp)
 8000d70:	80031400 	call	8003140 <__floatsisf>
 8000d74:	8085ffb2 	custom	254,r2,r16,r2
 8000d78:	e0bfd615 	stw	r2,-168(fp)
				float cfrac = col-colf;
 8000d7c:	d4276817 	ldw	r16,-25184(gp)
 8000d80:	e13fd717 	ldw	r4,-164(fp)
 8000d84:	80031400 	call	8003140 <__floatsisf>
 8000d88:	8085ffb2 	custom	254,r2,r16,r2
 8000d8c:	e0bfd515 	stw	r2,-172(fp)


				float weight1 = (1.0-rfrac)*(1.0-cfrac);
 8000d90:	00cfe034 	movhi	r3,16256
 8000d94:	e0bfd617 	ldw	r2,-168(fp)
 8000d98:	1889ffb2 	custom	254,r4,r3,r2
 8000d9c:	00cfe034 	movhi	r3,16256
 8000da0:	e0bfd517 	ldw	r2,-172(fp)
 8000da4:	1885ffb2 	custom	254,r2,r3,r2
 8000da8:	2085ff32 	custom	252,r2,r4,r2
 8000dac:	e0bfd415 	stw	r2,-176(fp)
				float weight2 = rfrac*(1.0-cfrac);
 8000db0:	00cfe034 	movhi	r3,16256
 8000db4:	e0bfd517 	ldw	r2,-172(fp)
 8000db8:	1887ffb2 	custom	254,r3,r3,r2
 8000dbc:	e0bfd617 	ldw	r2,-168(fp)
 8000dc0:	1885ff32 	custom	252,r2,r3,r2
 8000dc4:	e0bfd315 	stw	r2,-180(fp)
				float weight3 = rfrac*cfrac;
 8000dc8:	e0ffd617 	ldw	r3,-168(fp)
 8000dcc:	e0bfd517 	ldw	r2,-172(fp)
 8000dd0:	1885ff32 	custom	252,r2,r3,r2
 8000dd4:	e0bfd215 	stw	r2,-184(fp)
				float weight4 = (1.0-rfrac)*cfrac;
 8000dd8:	00cfe034 	movhi	r3,16256
 8000ddc:	e0bfd617 	ldw	r2,-168(fp)
 8000de0:	1887ffb2 	custom	254,r3,r3,r2
 8000de4:	e0bfd517 	ldw	r2,-172(fp)
 8000de8:	1885ff32 	custom	252,r2,r3,r2
 8000dec:	e0bfd115 	stw	r2,-188(fp)


				int pixel1 = (rowf*320*3 + colf*3);
 8000df0:	e0bfd817 	ldw	r2,-160(fp)
 8000df4:	1100f024 	muli	r4,r2,960
 8000df8:	e0ffd717 	ldw	r3,-164(fp)
 8000dfc:	1805883a 	mov	r2,r3
 8000e00:	1085883a 	add	r2,r2,r2
 8000e04:	10c5883a 	add	r2,r2,r3
 8000e08:	2085883a 	add	r2,r4,r2
 8000e0c:	e0bfd015 	stw	r2,-192(fp)
				int pixel2 = ((rowf + 1)*320*3 + colf*3);
 8000e10:	e0bfd817 	ldw	r2,-160(fp)
 8000e14:	1100f024 	muli	r4,r2,960
 8000e18:	e0ffd717 	ldw	r3,-164(fp)
 8000e1c:	1805883a 	mov	r2,r3
 8000e20:	1085883a 	add	r2,r2,r2
 8000e24:	10c5883a 	add	r2,r2,r3
 8000e28:	2085883a 	add	r2,r4,r2
 8000e2c:	1080f004 	addi	r2,r2,960
 8000e30:	e0bfcf15 	stw	r2,-196(fp)
				int pixel3 = ((rowf + 1)*320*3 + (colf + 1)*3);
 8000e34:	e0bfd817 	ldw	r2,-160(fp)
 8000e38:	1100f024 	muli	r4,r2,960
 8000e3c:	e0ffd717 	ldw	r3,-164(fp)
 8000e40:	1805883a 	mov	r2,r3
 8000e44:	1085883a 	add	r2,r2,r2
 8000e48:	10c5883a 	add	r2,r2,r3
 8000e4c:	2085883a 	add	r2,r4,r2
 8000e50:	1080f0c4 	addi	r2,r2,963
 8000e54:	e0bfce15 	stw	r2,-200(fp)
				int pixel4 = (rowf*320*3 + (colf + 1)*3);
 8000e58:	e0ffd717 	ldw	r3,-164(fp)
 8000e5c:	1805883a 	mov	r2,r3
 8000e60:	1085883a 	add	r2,r2,r2
 8000e64:	10c7883a 	add	r3,r2,r3
 8000e68:	e0bfd817 	ldw	r2,-160(fp)
 8000e6c:	1080f024 	muli	r2,r2,960
 8000e70:	1885883a 	add	r2,r3,r2
 8000e74:	108000c4 	addi	r2,r2,3
 8000e78:	e0bfcd15 	stw	r2,-204(fp)

				int in1 = (int) (weight1*my_image[pixel1] +
						weight2*my_image[pixel2] +
						weight3*my_image[pixel3] +
						weight4*my_image[pixel4]);
 8000e7c:	e0bfd017 	ldw	r2,-192(fp)
 8000e80:	1007883a 	mov	r3,r2
 8000e84:	e0bffb17 	ldw	r2,-20(fp)
 8000e88:	1885883a 	add	r2,r3,r2
 8000e8c:	10800003 	ldbu	r2,0(r2)
 8000e90:	11003fcc 	andi	r4,r2,255
 8000e94:	80031400 	call	8003140 <__floatsisf>
 8000e98:	1007883a 	mov	r3,r2
 8000e9c:	e0bfd417 	ldw	r2,-176(fp)
 8000ea0:	18a1ff32 	custom	252,r16,r3,r2
 8000ea4:	e0bfcf17 	ldw	r2,-196(fp)
 8000ea8:	1007883a 	mov	r3,r2
 8000eac:	e0bffb17 	ldw	r2,-20(fp)
 8000eb0:	1885883a 	add	r2,r3,r2
 8000eb4:	10800003 	ldbu	r2,0(r2)
 8000eb8:	11003fcc 	andi	r4,r2,255
 8000ebc:	80031400 	call	8003140 <__floatsisf>
 8000ec0:	1007883a 	mov	r3,r2
 8000ec4:	e0bfd317 	ldw	r2,-180(fp)
 8000ec8:	1885ff32 	custom	252,r2,r3,r2
 8000ecc:	80a1ff72 	custom	253,r16,r16,r2
 8000ed0:	e0bfce17 	ldw	r2,-200(fp)
 8000ed4:	1007883a 	mov	r3,r2
 8000ed8:	e0bffb17 	ldw	r2,-20(fp)
 8000edc:	1885883a 	add	r2,r3,r2
 8000ee0:	10800003 	ldbu	r2,0(r2)
 8000ee4:	11003fcc 	andi	r4,r2,255
 8000ee8:	80031400 	call	8003140 <__floatsisf>
 8000eec:	1007883a 	mov	r3,r2
 8000ef0:	e0bfd217 	ldw	r2,-184(fp)
 8000ef4:	1885ff32 	custom	252,r2,r3,r2
 8000ef8:	80a1ff72 	custom	253,r16,r16,r2
 8000efc:	e0bfcd17 	ldw	r2,-204(fp)
 8000f00:	1007883a 	mov	r3,r2
 8000f04:	e0bffb17 	ldw	r2,-20(fp)
 8000f08:	1885883a 	add	r2,r3,r2
 8000f0c:	10800003 	ldbu	r2,0(r2)
 8000f10:	11003fcc 	andi	r4,r2,255
 8000f14:	80031400 	call	8003140 <__floatsisf>
 8000f18:	1007883a 	mov	r3,r2
 8000f1c:	e0bfd117 	ldw	r2,-188(fp)
 8000f20:	1885ff32 	custom	252,r2,r3,r2
 8000f24:	8085ff72 	custom	253,r2,r16,r2
 8000f28:	1009883a 	mov	r4,r2
 8000f2c:	80031d80 	call	80031d8 <__fixsfsi>
 8000f30:	e0bfcc15 	stw	r2,-208(fp)

				int in2 = (int) (weight1*my_image[pixel1+1] +
						weight2*my_image[pixel2+1] +
						weight3*my_image[pixel3+1] +
						weight4*my_image[pixel4+1]);
 8000f34:	e0ffd017 	ldw	r3,-192(fp)
 8000f38:	e0bffb17 	ldw	r2,-20(fp)
 8000f3c:	1885883a 	add	r2,r3,r2
 8000f40:	10800044 	addi	r2,r2,1
 8000f44:	10800003 	ldbu	r2,0(r2)
 8000f48:	11003fcc 	andi	r4,r2,255
 8000f4c:	80031400 	call	8003140 <__floatsisf>
 8000f50:	1007883a 	mov	r3,r2
 8000f54:	e0bfd417 	ldw	r2,-176(fp)
 8000f58:	18a1ff32 	custom	252,r16,r3,r2
 8000f5c:	e0ffcf17 	ldw	r3,-196(fp)
 8000f60:	e0bffb17 	ldw	r2,-20(fp)
 8000f64:	1885883a 	add	r2,r3,r2
 8000f68:	10800044 	addi	r2,r2,1
 8000f6c:	10800003 	ldbu	r2,0(r2)
 8000f70:	11003fcc 	andi	r4,r2,255
 8000f74:	80031400 	call	8003140 <__floatsisf>
 8000f78:	1007883a 	mov	r3,r2
 8000f7c:	e0bfd317 	ldw	r2,-180(fp)
 8000f80:	1885ff32 	custom	252,r2,r3,r2
 8000f84:	80a1ff72 	custom	253,r16,r16,r2
 8000f88:	e0ffce17 	ldw	r3,-200(fp)
 8000f8c:	e0bffb17 	ldw	r2,-20(fp)
 8000f90:	1885883a 	add	r2,r3,r2
 8000f94:	10800044 	addi	r2,r2,1
 8000f98:	10800003 	ldbu	r2,0(r2)
 8000f9c:	11003fcc 	andi	r4,r2,255
 8000fa0:	80031400 	call	8003140 <__floatsisf>
 8000fa4:	1007883a 	mov	r3,r2
 8000fa8:	e0bfd217 	ldw	r2,-184(fp)
 8000fac:	1885ff32 	custom	252,r2,r3,r2
 8000fb0:	80a1ff72 	custom	253,r16,r16,r2
 8000fb4:	e0ffcd17 	ldw	r3,-204(fp)
 8000fb8:	e0bffb17 	ldw	r2,-20(fp)
 8000fbc:	1885883a 	add	r2,r3,r2
 8000fc0:	10800044 	addi	r2,r2,1
 8000fc4:	10800003 	ldbu	r2,0(r2)
 8000fc8:	11003fcc 	andi	r4,r2,255
 8000fcc:	80031400 	call	8003140 <__floatsisf>
 8000fd0:	1007883a 	mov	r3,r2
 8000fd4:	e0bfd117 	ldw	r2,-188(fp)
 8000fd8:	1885ff32 	custom	252,r2,r3,r2
 8000fdc:	8085ff72 	custom	253,r2,r16,r2
 8000fe0:	1009883a 	mov	r4,r2
 8000fe4:	80031d80 	call	80031d8 <__fixsfsi>
 8000fe8:	e0bfcb15 	stw	r2,-212(fp)

				int in3 = (int) (weight1*my_image[pixel1+2] +
						weight2*my_image[pixel2+2] +
						weight3*my_image[pixel3+2] +
						weight4*my_image[pixel4+2]);
 8000fec:	e0ffd017 	ldw	r3,-192(fp)
 8000ff0:	e0bffb17 	ldw	r2,-20(fp)
 8000ff4:	1885883a 	add	r2,r3,r2
 8000ff8:	10800084 	addi	r2,r2,2
 8000ffc:	10800003 	ldbu	r2,0(r2)
 8001000:	11003fcc 	andi	r4,r2,255
 8001004:	80031400 	call	8003140 <__floatsisf>
 8001008:	1007883a 	mov	r3,r2
 800100c:	e0bfd417 	ldw	r2,-176(fp)
 8001010:	18a1ff32 	custom	252,r16,r3,r2
 8001014:	e0ffcf17 	ldw	r3,-196(fp)
 8001018:	e0bffb17 	ldw	r2,-20(fp)
 800101c:	1885883a 	add	r2,r3,r2
 8001020:	10800084 	addi	r2,r2,2
 8001024:	10800003 	ldbu	r2,0(r2)
 8001028:	11003fcc 	andi	r4,r2,255
 800102c:	80031400 	call	8003140 <__floatsisf>
 8001030:	1007883a 	mov	r3,r2
 8001034:	e0bfd317 	ldw	r2,-180(fp)
 8001038:	1885ff32 	custom	252,r2,r3,r2
 800103c:	80a1ff72 	custom	253,r16,r16,r2
 8001040:	e0ffce17 	ldw	r3,-200(fp)
 8001044:	e0bffb17 	ldw	r2,-20(fp)
 8001048:	1885883a 	add	r2,r3,r2
 800104c:	10800084 	addi	r2,r2,2
 8001050:	10800003 	ldbu	r2,0(r2)
 8001054:	11003fcc 	andi	r4,r2,255
 8001058:	80031400 	call	8003140 <__floatsisf>
 800105c:	1007883a 	mov	r3,r2
 8001060:	e0bfd217 	ldw	r2,-184(fp)
 8001064:	1885ff32 	custom	252,r2,r3,r2
 8001068:	80a1ff72 	custom	253,r16,r16,r2
 800106c:	e0ffcd17 	ldw	r3,-204(fp)
 8001070:	e0bffb17 	ldw	r2,-20(fp)
 8001074:	1885883a 	add	r2,r3,r2
 8001078:	10800084 	addi	r2,r2,2
 800107c:	10800003 	ldbu	r2,0(r2)
 8001080:	11003fcc 	andi	r4,r2,255
 8001084:	80031400 	call	8003140 <__floatsisf>
 8001088:	1007883a 	mov	r3,r2
 800108c:	e0bfd117 	ldw	r2,-188(fp)
 8001090:	1885ff32 	custom	252,r2,r3,r2
 8001094:	8085ff72 	custom	253,r2,r16,r2
 8001098:	1009883a 	mov	r4,r2
 800109c:	80031d80 	call	80031d8 <__fixsfsi>
 80010a0:	e0bfca15 	stw	r2,-216(fp)

				//draw_pixel(row, col, my_image);
				alt_up_pixel_buffer_dma_draw(my_pixel_buffer,(in3 +(in2<<8) +(in1<<16)),j,i);
 80010a4:	d1276a17 	ldw	r4,-25176(gp)
 80010a8:	e0bfcb17 	ldw	r2,-212(fp)
 80010ac:	1006923a 	slli	r3,r2,8
 80010b0:	e0bfca17 	ldw	r2,-216(fp)
 80010b4:	1887883a 	add	r3,r3,r2
 80010b8:	e0bfcc17 	ldw	r2,-208(fp)
 80010bc:	1004943a 	slli	r2,r2,16
 80010c0:	1885883a 	add	r2,r3,r2
 80010c4:	100b883a 	mov	r5,r2
 80010c8:	e1bfdb17 	ldw	r6,-148(fp)
 80010cc:	e1ffdc17 	ldw	r7,-144(fp)
 80010d0:	8013be80 	call	8013be8 <alt_up_pixel_buffer_dma_draw>
			//break if key press
			keys=IORD_ALTERA_AVALON_PIO_DATA(KEYS_BASE);
			if (keys != 7 && keys != 6) {
				break;
			}
			for(j=0; j<num_cols-1; j++) {
 80010d4:	e0bfdb17 	ldw	r2,-148(fp)
 80010d8:	10800044 	addi	r2,r2,1
 80010dc:	e0bfdb15 	stw	r2,-148(fp)
 80010e0:	d0a00117 	ldw	r2,-32764(gp)
 80010e4:	10ffffc4 	addi	r3,r2,-1
 80010e8:	e0bfdb17 	ldw	r2,-148(fp)
 80010ec:	10fecc16 	blt	r2,r3,8000c20 <main+0xa20>
	else if (current_state == 6) {
		alt_up_pixel_buffer_dma_clear_screen(my_pixel_buffer,0);
		printf("scount before drawing is:");
		printf("%f\n", scount);
		int i, j;
		for(i=0; i<num_rows-1; i++){
 80010f0:	e0bfdc17 	ldw	r2,-144(fp)
 80010f4:	10800044 	addi	r2,r2,1
 80010f8:	e0bfdc15 	stw	r2,-144(fp)
 80010fc:	d0a00017 	ldw	r2,-32768(gp)
 8001100:	10ffffc4 	addi	r3,r2,-1
 8001104:	e0bfdc17 	ldw	r2,-144(fp)
 8001108:	10feb916 	blt	r2,r3,8000bf0 <main+0x9f0>

				//draw_pixel(row, col, my_image);
				alt_up_pixel_buffer_dma_draw(my_pixel_buffer,(in3 +(in2<<8) +(in1<<16)),j,i);
			}
		}
		if(bool_dec == 1) {
 800110c:	d0a76617 	ldw	r2,-25192(gp)
 8001110:	10800058 	cmpnei	r2,r2,1
 8001114:	10001c1e 	bne	r2,zero,8001188 <main+0xf88>
			scount+=0.1f;
 8001118:	d0e76717 	ldw	r3,-25188(gp)
 800111c:	008f7374 	movhi	r2,15821
 8001120:	10b33344 	addi	r2,r2,-13107
 8001124:	1885ff72 	custom	253,r2,r3,r2
 8001128:	d0a76715 	stw	r2,-25188(gp)
			printf("scount is decrementing to:");
 800112c:	01020074 	movhi	r4,2049
 8001130:	211c0404 	addi	r4,r4,28688
 8001134:	80052340 	call	8005234 <printf>
			printf("%f\n", scount);
 8001138:	d0a76717 	ldw	r2,-25188(gp)
 800113c:	1009883a 	mov	r4,r2
 8001140:	800326c0 	call	800326c <__extendsfdf2>
 8001144:	100d883a 	mov	r6,r2
 8001148:	180f883a 	mov	r7,r3
 800114c:	01020074 	movhi	r4,2049
 8001150:	211c0304 	addi	r4,r4,28684
 8001154:	300b883a 	mov	r5,r6
 8001158:	380d883a 	mov	r6,r7
 800115c:	80052340 	call	8005234 <printf>
			if (scount >=1.9f) {
 8001160:	d0a76717 	ldw	r2,-25188(gp)
 8001164:	1009883a 	mov	r4,r2
 8001168:	014ffcf4 	movhi	r5,16371
 800116c:	294cccc4 	addi	r5,r5,13107
 8001170:	8002fd80 	call	8002fd8 <__gesf2>
 8001174:	1004403a 	cmpge	r2,r2,zero
 8001178:	1000011e 	bne	r2,zero,8001180 <main+0xf80>
 800117c:	003c5406 	br	80002d0 <main+0xd0>
				bool_dec = 0;
 8001180:	d0276615 	stw	zero,-25192(gp)
 8001184:	003c5206 	br	80002d0 <main+0xd0>
			}
		} else if(bool_dec == 0) {
 8001188:	d0a76617 	ldw	r2,-25192(gp)
 800118c:	1004c03a 	cmpne	r2,r2,zero
 8001190:	103c4f1e 	bne	r2,zero,80002d0 <main+0xd0>
			scount-=0.1f;
 8001194:	d0e76717 	ldw	r3,-25188(gp)
 8001198:	008f7374 	movhi	r2,15821
 800119c:	10b33344 	addi	r2,r2,-13107
 80011a0:	1885ffb2 	custom	254,r2,r3,r2
 80011a4:	d0a76715 	stw	r2,-25188(gp)
			printf("scount is incrementing to:");
 80011a8:	01020074 	movhi	r4,2049
 80011ac:	211c0b04 	addi	r4,r4,28716
 80011b0:	80052340 	call	8005234 <printf>
			printf("%f\n", scount);
 80011b4:	d0a76717 	ldw	r2,-25188(gp)
 80011b8:	1009883a 	mov	r4,r2
 80011bc:	800326c0 	call	800326c <__extendsfdf2>
 80011c0:	100d883a 	mov	r6,r2
 80011c4:	180f883a 	mov	r7,r3
 80011c8:	01020074 	movhi	r4,2049
 80011cc:	211c0304 	addi	r4,r4,28684
 80011d0:	300b883a 	mov	r5,r6
 80011d4:	380d883a 	mov	r6,r7
 80011d8:	80052340 	call	8005234 <printf>
			if (scount <=1.0f) {
 80011dc:	d0a76717 	ldw	r2,-25188(gp)
 80011e0:	1009883a 	mov	r4,r2
 80011e4:	014fe034 	movhi	r5,16256
 80011e8:	80030c80 	call	80030c8 <__lesf2>
 80011ec:	10800050 	cmplti	r2,r2,1
 80011f0:	1000011e 	bne	r2,zero,80011f8 <main+0xff8>
 80011f4:	003c3606 	br	80002d0 <main+0xd0>
				bool_dec = 1;
 80011f8:	00800044 	movi	r2,1
 80011fc:	d0a76615 	stw	r2,-25192(gp)
			}
		}

		}
	}
 8001200:	003c3306 	br	80002d0 <main+0xd0>

08001204 <cosf>:
 8001204:	00a00034 	movhi	r2,32768
 8001208:	10bfffc4 	addi	r2,r2,-1
 800120c:	defffd04 	addi	sp,sp,-12
 8001210:	110c703a 	and	r6,r2,r4
 8001214:	00cfd274 	movhi	r3,16201
 8001218:	18c3f604 	addi	r3,r3,4056
 800121c:	dfc00215 	stw	ra,8(sp)
 8001220:	200b883a 	mov	r5,r4
 8001224:	1980130e 	bge	r3,r6,8001274 <cosf+0x70>
 8001228:	009fe034 	movhi	r2,32640
 800122c:	10bfffc4 	addi	r2,r2,-1
 8001230:	1180040e 	bge	r2,r6,8001244 <cosf+0x40>
 8001234:	8002c340 	call	8002c34 <__subsf3>
 8001238:	dfc00217 	ldw	ra,8(sp)
 800123c:	dec00304 	addi	sp,sp,12
 8001240:	f800283a 	ret
 8001244:	d80b883a 	mov	r5,sp
 8001248:	80014980 	call	8001498 <__ieee754_rem_pio2f>
 800124c:	118000cc 	andi	r6,r2,3
 8001250:	00c00044 	movi	r3,1
 8001254:	30c00c26 	beq	r6,r3,8001288 <cosf+0x84>
 8001258:	00800084 	movi	r2,2
 800125c:	30801426 	beq	r6,r2,80012b0 <cosf+0xac>
 8001260:	30000e1e 	bne	r6,zero,800129c <cosf+0x98>
 8001264:	d9000017 	ldw	r4,0(sp)
 8001268:	d9400117 	ldw	r5,4(sp)
 800126c:	80019d40 	call	80019d4 <__kernel_cosf>
 8001270:	003ff106 	br	8001238 <cosf+0x34>
 8001274:	000b883a 	mov	r5,zero
 8001278:	80019d40 	call	80019d4 <__kernel_cosf>
 800127c:	dfc00217 	ldw	ra,8(sp)
 8001280:	dec00304 	addi	sp,sp,12
 8001284:	f800283a 	ret
 8001288:	d9000017 	ldw	r4,0(sp)
 800128c:	d9400117 	ldw	r5,4(sp)
 8001290:	80027200 	call	8002720 <__kernel_sinf>
 8001294:	10a0003c 	xorhi	r2,r2,32768
 8001298:	003fe706 	br	8001238 <cosf+0x34>
 800129c:	d9000017 	ldw	r4,0(sp)
 80012a0:	d9400117 	ldw	r5,4(sp)
 80012a4:	180d883a 	mov	r6,r3
 80012a8:	80027200 	call	8002720 <__kernel_sinf>
 80012ac:	003fe206 	br	8001238 <cosf+0x34>
 80012b0:	d9000017 	ldw	r4,0(sp)
 80012b4:	d9400117 	ldw	r5,4(sp)
 80012b8:	80019d40 	call	80019d4 <__kernel_cosf>
 80012bc:	10a0003c 	xorhi	r2,r2,32768
 80012c0:	003fdd06 	br	8001238 <cosf+0x34>

080012c4 <floorf>:
 80012c4:	defffc04 	addi	sp,sp,-16
 80012c8:	00a00034 	movhi	r2,32768
 80012cc:	10bfffc4 	addi	r2,r2,-1
 80012d0:	dc400115 	stw	r17,4(sp)
 80012d4:	20a2703a 	and	r17,r4,r2
 80012d8:	8806d5fa 	srli	r3,r17,23
 80012dc:	dc000015 	stw	r16,0(sp)
 80012e0:	00800584 	movi	r2,22
 80012e4:	1c3fe044 	addi	r16,r3,-127
 80012e8:	dc800215 	stw	r18,8(sp)
 80012ec:	dfc00315 	stw	ra,12(sp)
 80012f0:	200b883a 	mov	r5,r4
 80012f4:	2025883a 	mov	r18,r4
 80012f8:	14001816 	blt	r2,r16,800135c <floorf+0x98>
 80012fc:	80002316 	blt	r16,zero,800138c <floorf+0xc8>
 8001300:	00802034 	movhi	r2,128
 8001304:	10bfffc4 	addi	r2,r2,-1
 8001308:	1423d83a 	sra	r17,r2,r16
 800130c:	2446703a 	and	r3,r4,r17
 8001310:	18000b26 	beq	r3,zero,8001340 <floorf+0x7c>
 8001314:	015c52b4 	movhi	r5,29002
 8001318:	297cb284 	addi	r5,r5,-3382
 800131c:	8002ca40 	call	8002ca4 <__addsf3>
 8001320:	1009883a 	mov	r4,r2
 8001324:	000b883a 	mov	r5,zero
 8001328:	8002f600 	call	8002f60 <__gtsf2>
 800132c:	0080030e 	bge	zero,r2,800133c <floorf+0x78>
 8001330:	90002116 	blt	r18,zero,80013b8 <floorf+0xf4>
 8001334:	0444303a 	nor	r2,zero,r17
 8001338:	90a4703a 	and	r18,r18,r2
 800133c:	900b883a 	mov	r5,r18
 8001340:	2805883a 	mov	r2,r5
 8001344:	dfc00317 	ldw	ra,12(sp)
 8001348:	dc800217 	ldw	r18,8(sp)
 800134c:	dc400117 	ldw	r17,4(sp)
 8001350:	dc000017 	ldw	r16,0(sp)
 8001354:	dec00404 	addi	sp,sp,16
 8001358:	f800283a 	ret
 800135c:	009fe034 	movhi	r2,32640
 8001360:	10bfffc4 	addi	r2,r2,-1
 8001364:	147ff62e 	bgeu	r2,r17,8001340 <floorf+0x7c>
 8001368:	8002ca40 	call	8002ca4 <__addsf3>
 800136c:	100b883a 	mov	r5,r2
 8001370:	2805883a 	mov	r2,r5
 8001374:	dfc00317 	ldw	ra,12(sp)
 8001378:	dc800217 	ldw	r18,8(sp)
 800137c:	dc400117 	ldw	r17,4(sp)
 8001380:	dc000017 	ldw	r16,0(sp)
 8001384:	dec00404 	addi	sp,sp,16
 8001388:	f800283a 	ret
 800138c:	015c52b4 	movhi	r5,29002
 8001390:	297cb284 	addi	r5,r5,-3382
 8001394:	8002ca40 	call	8002ca4 <__addsf3>
 8001398:	1009883a 	mov	r4,r2
 800139c:	000b883a 	mov	r5,zero
 80013a0:	8002f600 	call	8002f60 <__gtsf2>
 80013a4:	00bfe50e 	bge	zero,r2,800133c <floorf+0x78>
 80013a8:	90000716 	blt	r18,zero,80013c8 <floorf+0x104>
 80013ac:	0025883a 	mov	r18,zero
 80013b0:	900b883a 	mov	r5,r18
 80013b4:	003fe206 	br	8001340 <floorf+0x7c>
 80013b8:	00802034 	movhi	r2,128
 80013bc:	1405d83a 	sra	r2,r2,r16
 80013c0:	90a5883a 	add	r18,r18,r2
 80013c4:	003fdb06 	br	8001334 <floorf+0x70>
 80013c8:	883fdc26 	beq	r17,zero,800133c <floorf+0x78>
 80013cc:	04afe034 	movhi	r18,49024
 80013d0:	900b883a 	mov	r5,r18
 80013d4:	003fda06 	br	8001340 <floorf+0x7c>

080013d8 <sinf>:
 80013d8:	00a00034 	movhi	r2,32768
 80013dc:	10bfffc4 	addi	r2,r2,-1
 80013e0:	defffd04 	addi	sp,sp,-12
 80013e4:	110c703a 	and	r6,r2,r4
 80013e8:	00cfd274 	movhi	r3,16201
 80013ec:	18c3f604 	addi	r3,r3,4056
 80013f0:	dfc00215 	stw	ra,8(sp)
 80013f4:	200b883a 	mov	r5,r4
 80013f8:	1980130e 	bge	r3,r6,8001448 <sinf+0x70>
 80013fc:	009fe034 	movhi	r2,32640
 8001400:	10bfffc4 	addi	r2,r2,-1
 8001404:	1180040e 	bge	r2,r6,8001418 <sinf+0x40>
 8001408:	8002c340 	call	8002c34 <__subsf3>
 800140c:	dfc00217 	ldw	ra,8(sp)
 8001410:	dec00304 	addi	sp,sp,12
 8001414:	f800283a 	ret
 8001418:	d80b883a 	mov	r5,sp
 800141c:	80014980 	call	8001498 <__ieee754_rem_pio2f>
 8001420:	10c000cc 	andi	r3,r2,3
 8001424:	01800044 	movi	r6,1
 8001428:	19800d26 	beq	r3,r6,8001460 <sinf+0x88>
 800142c:	00800084 	movi	r2,2
 8001430:	18801426 	beq	r3,r2,8001484 <sinf+0xac>
 8001434:	18000e1e 	bne	r3,zero,8001470 <sinf+0x98>
 8001438:	d9000017 	ldw	r4,0(sp)
 800143c:	d9400117 	ldw	r5,4(sp)
 8001440:	80027200 	call	8002720 <__kernel_sinf>
 8001444:	003ff106 	br	800140c <sinf+0x34>
 8001448:	000b883a 	mov	r5,zero
 800144c:	000d883a 	mov	r6,zero
 8001450:	80027200 	call	8002720 <__kernel_sinf>
 8001454:	dfc00217 	ldw	ra,8(sp)
 8001458:	dec00304 	addi	sp,sp,12
 800145c:	f800283a 	ret
 8001460:	d9000017 	ldw	r4,0(sp)
 8001464:	d9400117 	ldw	r5,4(sp)
 8001468:	80019d40 	call	80019d4 <__kernel_cosf>
 800146c:	003fe706 	br	800140c <sinf+0x34>
 8001470:	d9000017 	ldw	r4,0(sp)
 8001474:	d9400117 	ldw	r5,4(sp)
 8001478:	80019d40 	call	80019d4 <__kernel_cosf>
 800147c:	10a0003c 	xorhi	r2,r2,32768
 8001480:	003fe206 	br	800140c <sinf+0x34>
 8001484:	d9000017 	ldw	r4,0(sp)
 8001488:	d9400117 	ldw	r5,4(sp)
 800148c:	80027200 	call	8002720 <__kernel_sinf>
 8001490:	10a0003c 	xorhi	r2,r2,32768
 8001494:	003fdd06 	br	800140c <sinf+0x34>

08001498 <__ieee754_rem_pio2f>:
 8001498:	defff104 	addi	sp,sp,-60
 800149c:	00a00034 	movhi	r2,32768
 80014a0:	10bfffc4 	addi	r2,r2,-1
 80014a4:	dcc00815 	stw	r19,32(sp)
 80014a8:	20a6703a 	and	r19,r4,r2
 80014ac:	008fd274 	movhi	r2,16201
 80014b0:	1083f604 	addi	r2,r2,4056
 80014b4:	dd800b15 	stw	r22,44(sp)
 80014b8:	dd000915 	stw	r20,36(sp)
 80014bc:	dfc00e15 	stw	ra,56(sp)
 80014c0:	df000d15 	stw	fp,52(sp)
 80014c4:	ddc00c15 	stw	r23,48(sp)
 80014c8:	dd400a15 	stw	r21,40(sp)
 80014cc:	dc800715 	stw	r18,28(sp)
 80014d0:	dc400615 	stw	r17,24(sp)
 80014d4:	dc000515 	stw	r16,20(sp)
 80014d8:	202d883a 	mov	r22,r4
 80014dc:	2829883a 	mov	r20,r5
 80014e0:	14c01016 	blt	r2,r19,8001524 <__ieee754_rem_pio2f+0x8c>
 80014e4:	a1000015 	stw	r4,0(r20)
 80014e8:	002b883a 	mov	r21,zero
 80014ec:	28000115 	stw	zero,4(r5)
 80014f0:	a805883a 	mov	r2,r21
 80014f4:	dfc00e17 	ldw	ra,56(sp)
 80014f8:	df000d17 	ldw	fp,52(sp)
 80014fc:	ddc00c17 	ldw	r23,48(sp)
 8001500:	dd800b17 	ldw	r22,44(sp)
 8001504:	dd400a17 	ldw	r21,40(sp)
 8001508:	dd000917 	ldw	r20,36(sp)
 800150c:	dcc00817 	ldw	r19,32(sp)
 8001510:	dc800717 	ldw	r18,28(sp)
 8001514:	dc400617 	ldw	r17,24(sp)
 8001518:	dc000517 	ldw	r16,20(sp)
 800151c:	dec00f04 	addi	sp,sp,60
 8001520:	f800283a 	ret
 8001524:	009005f4 	movhi	r2,16407
 8001528:	10b2f8c4 	addi	r2,r2,-13341
 800152c:	14c00c0e 	bge	r2,r19,8001560 <__ieee754_rem_pio2f+0xc8>
 8001530:	0090d274 	movhi	r2,17225
 8001534:	1083e004 	addi	r2,r2,3968
 8001538:	14c0220e 	bge	r2,r19,80015c4 <__ieee754_rem_pio2f+0x12c>
 800153c:	009fe034 	movhi	r2,32640
 8001540:	10bfffc4 	addi	r2,r2,-1
 8001544:	14c0930e 	bge	r2,r19,8001794 <__ieee754_rem_pio2f+0x2fc>
 8001548:	200b883a 	mov	r5,r4
 800154c:	8002c340 	call	8002c34 <__subsf3>
 8001550:	002b883a 	mov	r21,zero
 8001554:	a0800015 	stw	r2,0(r20)
 8001558:	a0800115 	stw	r2,4(r20)
 800155c:	003fe406 	br	80014f0 <__ieee754_rem_pio2f+0x58>
 8001560:	0100740e 	bge	zero,r4,8001734 <__ieee754_rem_pio2f+0x29c>
 8001564:	014ff274 	movhi	r5,16329
 8001568:	2943e004 	addi	r5,r5,3968
 800156c:	8002c340 	call	8002c34 <__subsf3>
 8001570:	1023883a 	mov	r17,r2
 8001574:	00bffc04 	movi	r2,-16
 8001578:	9884703a 	and	r2,r19,r2
 800157c:	00cff274 	movhi	r3,16329
 8001580:	18c3f404 	addi	r3,r3,4048
 8001584:	10c0c026 	beq	r2,r3,8001888 <__ieee754_rem_pio2f+0x3f0>
 8001588:	040dcd74 	movhi	r16,14133
 800158c:	841110c4 	addi	r16,r16,17475
 8001590:	8809883a 	mov	r4,r17
 8001594:	800b883a 	mov	r5,r16
 8001598:	8002c340 	call	8002c34 <__subsf3>
 800159c:	100b883a 	mov	r5,r2
 80015a0:	8809883a 	mov	r4,r17
 80015a4:	a0800015 	stw	r2,0(r20)
 80015a8:	8002c340 	call	8002c34 <__subsf3>
 80015ac:	1009883a 	mov	r4,r2
 80015b0:	800b883a 	mov	r5,r16
 80015b4:	8002c340 	call	8002c34 <__subsf3>
 80015b8:	05400044 	movi	r21,1
 80015bc:	a0800115 	stw	r2,4(r20)
 80015c0:	003fcb06 	br	80014f0 <__ieee754_rem_pio2f+0x58>
 80015c4:	80028dc0 	call	80028dc <fabsf>
 80015c8:	1009883a 	mov	r4,r2
 80015cc:	014fc8f4 	movhi	r5,16163
 80015d0:	297e6104 	addi	r5,r5,-1660
 80015d4:	1023883a 	mov	r17,r2
 80015d8:	8002d080 	call	8002d08 <__mulsf3>
 80015dc:	1009883a 	mov	r4,r2
 80015e0:	014fc034 	movhi	r5,16128
 80015e4:	8002ca40 	call	8002ca4 <__addsf3>
 80015e8:	1009883a 	mov	r4,r2
 80015ec:	80031d80 	call	80031d8 <__fixsfsi>
 80015f0:	1009883a 	mov	r4,r2
 80015f4:	102b883a 	mov	r21,r2
 80015f8:	80031400 	call	8003140 <__floatsisf>
 80015fc:	1009883a 	mov	r4,r2
 8001600:	016ff274 	movhi	r5,49097
 8001604:	2943e004 	addi	r5,r5,3968
 8001608:	1021883a 	mov	r16,r2
 800160c:	8002d080 	call	8002d08 <__mulsf3>
 8001610:	100b883a 	mov	r5,r2
 8001614:	8809883a 	mov	r4,r17
 8001618:	8002ca40 	call	8002ca4 <__addsf3>
 800161c:	014dcd74 	movhi	r5,14133
 8001620:	295110c4 	addi	r5,r5,17475
 8001624:	8009883a 	mov	r4,r16
 8001628:	102f883a 	mov	r23,r2
 800162c:	8002d080 	call	8002d08 <__mulsf3>
 8001630:	100b883a 	mov	r5,r2
 8001634:	1023883a 	mov	r17,r2
 8001638:	008007c4 	movi	r2,31
 800163c:	8039883a 	mov	fp,r16
 8001640:	b825883a 	mov	r18,r23
 8001644:	1540a40e 	bge	r2,r21,80018d8 <__ieee754_rem_pio2f+0x440>
 8001648:	9009883a 	mov	r4,r18
 800164c:	880b883a 	mov	r5,r17
 8001650:	8002c340 	call	8002c34 <__subsf3>
 8001654:	1006d5fa 	srli	r3,r2,23
 8001658:	982fd5fa 	srai	r23,r19,23
 800165c:	a0800015 	stw	r2,0(r20)
 8001660:	18c03fcc 	andi	r3,r3,255
 8001664:	b8c7c83a 	sub	r3,r23,r3
 8001668:	00800204 	movi	r2,8
 800166c:	10c0220e 	bge	r2,r3,80016f8 <__ieee754_rem_pio2f+0x260>
 8001670:	e009883a 	mov	r4,fp
 8001674:	014dcd74 	movhi	r5,14133
 8001678:	29510004 	addi	r5,r5,17408
 800167c:	8002d080 	call	8002d08 <__mulsf3>
 8001680:	100b883a 	mov	r5,r2
 8001684:	9009883a 	mov	r4,r18
 8001688:	1023883a 	mov	r17,r2
 800168c:	8002c340 	call	8002c34 <__subsf3>
 8001690:	1027883a 	mov	r19,r2
 8001694:	e009883a 	mov	r4,fp
 8001698:	014ba1b4 	movhi	r5,11910
 800169c:	2968c204 	addi	r5,r5,-23800
 80016a0:	8002d080 	call	8002d08 <__mulsf3>
 80016a4:	9009883a 	mov	r4,r18
 80016a8:	980b883a 	mov	r5,r19
 80016ac:	1021883a 	mov	r16,r2
 80016b0:	8002c340 	call	8002c34 <__subsf3>
 80016b4:	1009883a 	mov	r4,r2
 80016b8:	880b883a 	mov	r5,r17
 80016bc:	8002c340 	call	8002c34 <__subsf3>
 80016c0:	100b883a 	mov	r5,r2
 80016c4:	8009883a 	mov	r4,r16
 80016c8:	8002c340 	call	8002c34 <__subsf3>
 80016cc:	100b883a 	mov	r5,r2
 80016d0:	9809883a 	mov	r4,r19
 80016d4:	1023883a 	mov	r17,r2
 80016d8:	8002c340 	call	8002c34 <__subsf3>
 80016dc:	1006d5fa 	srli	r3,r2,23
 80016e0:	a0800015 	stw	r2,0(r20)
 80016e4:	00800644 	movi	r2,25
 80016e8:	18c03fcc 	andi	r3,r3,255
 80016ec:	b8c7c83a 	sub	r3,r23,r3
 80016f0:	10c09a16 	blt	r2,r3,800195c <__ieee754_rem_pio2f+0x4c4>
 80016f4:	9825883a 	mov	r18,r19
 80016f8:	a1400017 	ldw	r5,0(r20)
 80016fc:	9009883a 	mov	r4,r18
 8001700:	8002c340 	call	8002c34 <__subsf3>
 8001704:	1009883a 	mov	r4,r2
 8001708:	880b883a 	mov	r5,r17
 800170c:	8002c340 	call	8002c34 <__subsf3>
 8001710:	a0800115 	stw	r2,4(r20)
 8001714:	b03f760e 	bge	r22,zero,80014f0 <__ieee754_rem_pio2f+0x58>
 8001718:	a0c00017 	ldw	r3,0(r20)
 800171c:	10a0003c 	xorhi	r2,r2,32768
 8001720:	056bc83a 	sub	r21,zero,r21
 8001724:	18e0003c 	xorhi	r3,r3,32768
 8001728:	a0800115 	stw	r2,4(r20)
 800172c:	a0c00015 	stw	r3,0(r20)
 8001730:	003f6f06 	br	80014f0 <__ieee754_rem_pio2f+0x58>
 8001734:	014ff274 	movhi	r5,16329
 8001738:	2943e004 	addi	r5,r5,3968
 800173c:	8002ca40 	call	8002ca4 <__addsf3>
 8001740:	1023883a 	mov	r17,r2
 8001744:	00bffc04 	movi	r2,-16
 8001748:	9884703a 	and	r2,r19,r2
 800174c:	00cff274 	movhi	r3,16329
 8001750:	18c3f404 	addi	r3,r3,4048
 8001754:	10c06d26 	beq	r2,r3,800190c <__ieee754_rem_pio2f+0x474>
 8001758:	040dcd74 	movhi	r16,14133
 800175c:	841110c4 	addi	r16,r16,17475
 8001760:	8809883a 	mov	r4,r17
 8001764:	800b883a 	mov	r5,r16
 8001768:	8002ca40 	call	8002ca4 <__addsf3>
 800176c:	100b883a 	mov	r5,r2
 8001770:	8809883a 	mov	r4,r17
 8001774:	a0800015 	stw	r2,0(r20)
 8001778:	8002c340 	call	8002c34 <__subsf3>
 800177c:	1009883a 	mov	r4,r2
 8001780:	800b883a 	mov	r5,r16
 8001784:	8002ca40 	call	8002ca4 <__addsf3>
 8001788:	057fffc4 	movi	r21,-1
 800178c:	a0800115 	stw	r2,4(r20)
 8001790:	003f5706 	br	80014f0 <__ieee754_rem_pio2f+0x58>
 8001794:	9805d5fa 	srai	r2,r19,23
 8001798:	0490e034 	movhi	r18,17280
 800179c:	054000c4 	movi	r21,3
 80017a0:	15ffde84 	addi	r23,r2,-134
 80017a4:	b82295fa 	slli	r17,r23,23
 80017a8:	9c63c83a 	sub	r17,r19,r17
 80017ac:	8809883a 	mov	r4,r17
 80017b0:	80031d80 	call	80031d8 <__fixsfsi>
 80017b4:	1009883a 	mov	r4,r2
 80017b8:	80031400 	call	8003140 <__floatsisf>
 80017bc:	100b883a 	mov	r5,r2
 80017c0:	8809883a 	mov	r4,r17
 80017c4:	d8800215 	stw	r2,8(sp)
 80017c8:	8002c340 	call	8002c34 <__subsf3>
 80017cc:	1009883a 	mov	r4,r2
 80017d0:	900b883a 	mov	r5,r18
 80017d4:	8002d080 	call	8002d08 <__mulsf3>
 80017d8:	1009883a 	mov	r4,r2
 80017dc:	1021883a 	mov	r16,r2
 80017e0:	80031d80 	call	80031d8 <__fixsfsi>
 80017e4:	1009883a 	mov	r4,r2
 80017e8:	80031400 	call	8003140 <__floatsisf>
 80017ec:	100b883a 	mov	r5,r2
 80017f0:	8009883a 	mov	r4,r16
 80017f4:	d8800315 	stw	r2,12(sp)
 80017f8:	8002c340 	call	8002c34 <__subsf3>
 80017fc:	1009883a 	mov	r4,r2
 8001800:	900b883a 	mov	r5,r18
 8001804:	8002d080 	call	8002d08 <__mulsf3>
 8001808:	d8800415 	stw	r2,16(sp)
 800180c:	00000106 	br	8001814 <__ieee754_rem_pio2f+0x37c>
 8001810:	802b883a 	mov	r21,r16
 8001814:	ac3fffc4 	addi	r16,r21,-1
 8001818:	8405883a 	add	r2,r16,r16
 800181c:	1085883a 	add	r2,r2,r2
 8001820:	d8c00204 	addi	r3,sp,8
 8001824:	10c5883a 	add	r2,r2,r3
 8001828:	11000017 	ldw	r4,0(r2)
 800182c:	000b883a 	mov	r5,zero
 8001830:	8002ee80 	call	8002ee8 <__eqsf2>
 8001834:	103ff626 	beq	r2,zero,8001810 <__ieee754_rem_pio2f+0x378>
 8001838:	a80f883a 	mov	r7,r21
 800183c:	00800084 	movi	r2,2
 8001840:	00c20074 	movhi	r3,2049
 8001844:	18dc3204 	addi	r3,r3,28872
 8001848:	b80d883a 	mov	r6,r23
 800184c:	d9000204 	addi	r4,sp,8
 8001850:	a00b883a 	mov	r5,r20
 8001854:	d8800015 	stw	r2,0(sp)
 8001858:	d8c00115 	stw	r3,4(sp)
 800185c:	8001c900 	call	8001c90 <__kernel_rem_pio2f>
 8001860:	102b883a 	mov	r21,r2
 8001864:	b03f220e 	bge	r22,zero,80014f0 <__ieee754_rem_pio2f+0x58>
 8001868:	a0c00017 	ldw	r3,0(r20)
 800186c:	a0800117 	ldw	r2,4(r20)
 8001870:	056bc83a 	sub	r21,zero,r21
 8001874:	18e0003c 	xorhi	r3,r3,32768
 8001878:	10a0003c 	xorhi	r2,r2,32768
 800187c:	a0800115 	stw	r2,4(r20)
 8001880:	a0c00015 	stw	r3,0(r20)
 8001884:	003f1a06 	br	80014f0 <__ieee754_rem_pio2f+0x58>
 8001888:	8809883a 	mov	r4,r17
 800188c:	014dcd74 	movhi	r5,14133
 8001890:	29510004 	addi	r5,r5,17408
 8001894:	8002c340 	call	8002c34 <__subsf3>
 8001898:	044ba1b4 	movhi	r17,11910
 800189c:	8c68c204 	addi	r17,r17,-23800
 80018a0:	1009883a 	mov	r4,r2
 80018a4:	880b883a 	mov	r5,r17
 80018a8:	1021883a 	mov	r16,r2
 80018ac:	8002c340 	call	8002c34 <__subsf3>
 80018b0:	100b883a 	mov	r5,r2
 80018b4:	8009883a 	mov	r4,r16
 80018b8:	a0800015 	stw	r2,0(r20)
 80018bc:	8002c340 	call	8002c34 <__subsf3>
 80018c0:	1009883a 	mov	r4,r2
 80018c4:	880b883a 	mov	r5,r17
 80018c8:	8002c340 	call	8002c34 <__subsf3>
 80018cc:	05400044 	movi	r21,1
 80018d0:	a0800115 	stw	r2,4(r20)
 80018d4:	003f0606 	br	80014f0 <__ieee754_rem_pio2f+0x58>
 80018d8:	ad47883a 	add	r3,r21,r21
 80018dc:	00820074 	movhi	r2,2049
 80018e0:	109c1204 	addi	r2,r2,28744
 80018e4:	18c7883a 	add	r3,r3,r3
 80018e8:	1887883a 	add	r3,r3,r2
 80018ec:	193fff17 	ldw	r4,-4(r3)
 80018f0:	00bfc004 	movi	r2,-256
 80018f4:	9884703a 	and	r2,r19,r2
 80018f8:	113f5326 	beq	r2,r4,8001648 <__ieee754_rem_pio2f+0x1b0>
 80018fc:	b809883a 	mov	r4,r23
 8001900:	8002c340 	call	8002c34 <__subsf3>
 8001904:	a0800015 	stw	r2,0(r20)
 8001908:	003f7b06 	br	80016f8 <__ieee754_rem_pio2f+0x260>
 800190c:	8809883a 	mov	r4,r17
 8001910:	014dcd74 	movhi	r5,14133
 8001914:	29510004 	addi	r5,r5,17408
 8001918:	8002ca40 	call	8002ca4 <__addsf3>
 800191c:	044ba1b4 	movhi	r17,11910
 8001920:	8c68c204 	addi	r17,r17,-23800
 8001924:	1009883a 	mov	r4,r2
 8001928:	880b883a 	mov	r5,r17
 800192c:	1021883a 	mov	r16,r2
 8001930:	8002ca40 	call	8002ca4 <__addsf3>
 8001934:	100b883a 	mov	r5,r2
 8001938:	8009883a 	mov	r4,r16
 800193c:	a0800015 	stw	r2,0(r20)
 8001940:	8002c340 	call	8002c34 <__subsf3>
 8001944:	1009883a 	mov	r4,r2
 8001948:	880b883a 	mov	r5,r17
 800194c:	8002ca40 	call	8002ca4 <__addsf3>
 8001950:	057fffc4 	movi	r21,-1
 8001954:	a0800115 	stw	r2,4(r20)
 8001958:	003ee506 	br	80014f0 <__ieee754_rem_pio2f+0x58>
 800195c:	e009883a 	mov	r4,fp
 8001960:	014ba1b4 	movhi	r5,11910
 8001964:	2968c004 	addi	r5,r5,-23808
 8001968:	8002d080 	call	8002d08 <__mulsf3>
 800196c:	100b883a 	mov	r5,r2
 8001970:	9809883a 	mov	r4,r19
 8001974:	1025883a 	mov	r18,r2
 8001978:	8002c340 	call	8002c34 <__subsf3>
 800197c:	1021883a 	mov	r16,r2
 8001980:	e009883a 	mov	r4,fp
 8001984:	01492374 	movhi	r5,9357
 8001988:	294c4c84 	addi	r5,r5,12594
 800198c:	8002d080 	call	8002d08 <__mulsf3>
 8001990:	9809883a 	mov	r4,r19
 8001994:	800b883a 	mov	r5,r16
 8001998:	1023883a 	mov	r17,r2
 800199c:	8002c340 	call	8002c34 <__subsf3>
 80019a0:	1009883a 	mov	r4,r2
 80019a4:	900b883a 	mov	r5,r18
 80019a8:	8002c340 	call	8002c34 <__subsf3>
 80019ac:	100b883a 	mov	r5,r2
 80019b0:	8809883a 	mov	r4,r17
 80019b4:	8002c340 	call	8002c34 <__subsf3>
 80019b8:	100b883a 	mov	r5,r2
 80019bc:	8009883a 	mov	r4,r16
 80019c0:	1023883a 	mov	r17,r2
 80019c4:	8025883a 	mov	r18,r16
 80019c8:	8002c340 	call	8002c34 <__subsf3>
 80019cc:	a0800015 	stw	r2,0(r20)
 80019d0:	003f4906 	br	80016f8 <__ieee754_rem_pio2f+0x260>

080019d4 <__kernel_cosf>:
 80019d4:	defff904 	addi	sp,sp,-28
 80019d8:	00a00034 	movhi	r2,32768
 80019dc:	10bfffc4 	addi	r2,r2,-1
 80019e0:	dc400115 	stw	r17,4(sp)
 80019e4:	1122703a 	and	r17,r2,r4
 80019e8:	008c8034 	movhi	r2,12800
 80019ec:	10bfffc4 	addi	r2,r2,-1
 80019f0:	dd400515 	stw	r21,20(sp)
 80019f4:	dcc00315 	stw	r19,12(sp)
 80019f8:	dfc00615 	stw	ra,24(sp)
 80019fc:	dd000415 	stw	r20,16(sp)
 8001a00:	dc800215 	stw	r18,8(sp)
 8001a04:	dc000015 	stw	r16,0(sp)
 8001a08:	2027883a 	mov	r19,r4
 8001a0c:	282b883a 	mov	r21,r5
 8001a10:	14404b16 	blt	r2,r17,8001b40 <__kernel_cosf+0x16c>
 8001a14:	80031d80 	call	80031d8 <__fixsfsi>
 8001a18:	10009326 	beq	r2,zero,8001c68 <__kernel_cosf+0x294>
 8001a1c:	9809883a 	mov	r4,r19
 8001a20:	980b883a 	mov	r5,r19
 8001a24:	8002d080 	call	8002d08 <__mulsf3>
 8001a28:	1009883a 	mov	r4,r2
 8001a2c:	016b5234 	movhi	r5,44360
 8001a30:	2975d384 	addi	r5,r5,-10418
 8001a34:	1021883a 	mov	r16,r2
 8001a38:	8002d080 	call	8002d08 <__mulsf3>
 8001a3c:	1009883a 	mov	r4,r2
 8001a40:	014c43f4 	movhi	r5,12559
 8001a44:	295d3d84 	addi	r5,r5,29942
 8001a48:	8002ca40 	call	8002ca4 <__addsf3>
 8001a4c:	100b883a 	mov	r5,r2
 8001a50:	8009883a 	mov	r4,r16
 8001a54:	8002d080 	call	8002d08 <__mulsf3>
 8001a58:	1009883a 	mov	r4,r2
 8001a5c:	014d2534 	movhi	r5,13460
 8001a60:	297c9f04 	addi	r5,r5,-3460
 8001a64:	8002c340 	call	8002c34 <__subsf3>
 8001a68:	100b883a 	mov	r5,r2
 8001a6c:	8009883a 	mov	r4,r16
 8001a70:	8002d080 	call	8002d08 <__mulsf3>
 8001a74:	1009883a 	mov	r4,r2
 8001a78:	014df434 	movhi	r5,14288
 8001a7c:	29434044 	addi	r5,r5,3329
 8001a80:	8002ca40 	call	8002ca4 <__addsf3>
 8001a84:	100b883a 	mov	r5,r2
 8001a88:	8009883a 	mov	r4,r16
 8001a8c:	8002d080 	call	8002d08 <__mulsf3>
 8001a90:	1009883a 	mov	r4,r2
 8001a94:	014eadb4 	movhi	r5,15030
 8001a98:	2942d844 	addi	r5,r5,2913
 8001a9c:	8002c340 	call	8002c34 <__subsf3>
 8001aa0:	100b883a 	mov	r5,r2
 8001aa4:	8009883a 	mov	r4,r16
 8001aa8:	8002d080 	call	8002d08 <__mulsf3>
 8001aac:	1009883a 	mov	r4,r2
 8001ab0:	014f4af4 	movhi	r5,15659
 8001ab4:	296aaac4 	addi	r5,r5,-21845
 8001ab8:	8002ca40 	call	8002ca4 <__addsf3>
 8001abc:	100b883a 	mov	r5,r2
 8001ac0:	8009883a 	mov	r4,r16
 8001ac4:	8002d080 	call	8002d08 <__mulsf3>
 8001ac8:	1025883a 	mov	r18,r2
 8001acc:	8009883a 	mov	r4,r16
 8001ad0:	014fc034 	movhi	r5,16128
 8001ad4:	8002d080 	call	8002d08 <__mulsf3>
 8001ad8:	8009883a 	mov	r4,r16
 8001adc:	900b883a 	mov	r5,r18
 8001ae0:	1023883a 	mov	r17,r2
 8001ae4:	8002d080 	call	8002d08 <__mulsf3>
 8001ae8:	9809883a 	mov	r4,r19
 8001aec:	a80b883a 	mov	r5,r21
 8001af0:	1021883a 	mov	r16,r2
 8001af4:	8002d080 	call	8002d08 <__mulsf3>
 8001af8:	100b883a 	mov	r5,r2
 8001afc:	8009883a 	mov	r4,r16
 8001b00:	8002c340 	call	8002c34 <__subsf3>
 8001b04:	100b883a 	mov	r5,r2
 8001b08:	8809883a 	mov	r4,r17
 8001b0c:	8002c340 	call	8002c34 <__subsf3>
 8001b10:	100b883a 	mov	r5,r2
 8001b14:	010fe034 	movhi	r4,16256
 8001b18:	8002c340 	call	8002c34 <__subsf3>
 8001b1c:	dfc00617 	ldw	ra,24(sp)
 8001b20:	dd400517 	ldw	r21,20(sp)
 8001b24:	dd000417 	ldw	r20,16(sp)
 8001b28:	dcc00317 	ldw	r19,12(sp)
 8001b2c:	dc800217 	ldw	r18,8(sp)
 8001b30:	dc400117 	ldw	r17,4(sp)
 8001b34:	dc000017 	ldw	r16,0(sp)
 8001b38:	dec00704 	addi	sp,sp,28
 8001b3c:	f800283a 	ret
 8001b40:	200b883a 	mov	r5,r4
 8001b44:	8002d080 	call	8002d08 <__mulsf3>
 8001b48:	1009883a 	mov	r4,r2
 8001b4c:	016b5234 	movhi	r5,44360
 8001b50:	2975d384 	addi	r5,r5,-10418
 8001b54:	1021883a 	mov	r16,r2
 8001b58:	8002d080 	call	8002d08 <__mulsf3>
 8001b5c:	1009883a 	mov	r4,r2
 8001b60:	014c43f4 	movhi	r5,12559
 8001b64:	295d3d84 	addi	r5,r5,29942
 8001b68:	8002ca40 	call	8002ca4 <__addsf3>
 8001b6c:	100b883a 	mov	r5,r2
 8001b70:	8009883a 	mov	r4,r16
 8001b74:	8002d080 	call	8002d08 <__mulsf3>
 8001b78:	1009883a 	mov	r4,r2
 8001b7c:	014d2534 	movhi	r5,13460
 8001b80:	297c9f04 	addi	r5,r5,-3460
 8001b84:	8002c340 	call	8002c34 <__subsf3>
 8001b88:	100b883a 	mov	r5,r2
 8001b8c:	8009883a 	mov	r4,r16
 8001b90:	8002d080 	call	8002d08 <__mulsf3>
 8001b94:	1009883a 	mov	r4,r2
 8001b98:	014df434 	movhi	r5,14288
 8001b9c:	29434044 	addi	r5,r5,3329
 8001ba0:	8002ca40 	call	8002ca4 <__addsf3>
 8001ba4:	100b883a 	mov	r5,r2
 8001ba8:	8009883a 	mov	r4,r16
 8001bac:	8002d080 	call	8002d08 <__mulsf3>
 8001bb0:	1009883a 	mov	r4,r2
 8001bb4:	014eadb4 	movhi	r5,15030
 8001bb8:	2942d844 	addi	r5,r5,2913
 8001bbc:	8002c340 	call	8002c34 <__subsf3>
 8001bc0:	100b883a 	mov	r5,r2
 8001bc4:	8009883a 	mov	r4,r16
 8001bc8:	8002d080 	call	8002d08 <__mulsf3>
 8001bcc:	1009883a 	mov	r4,r2
 8001bd0:	014f4af4 	movhi	r5,15659
 8001bd4:	296aaac4 	addi	r5,r5,-21845
 8001bd8:	8002ca40 	call	8002ca4 <__addsf3>
 8001bdc:	100b883a 	mov	r5,r2
 8001be0:	8009883a 	mov	r4,r16
 8001be4:	8002d080 	call	8002d08 <__mulsf3>
 8001be8:	1025883a 	mov	r18,r2
 8001bec:	008fa6b4 	movhi	r2,16026
 8001bf0:	10a66644 	addi	r2,r2,-26215
 8001bf4:	147fb50e 	bge	r2,r17,8001acc <__kernel_cosf+0xf8>
 8001bf8:	008fd234 	movhi	r2,16200
 8001bfc:	14401c0e 	bge	r2,r17,8001c70 <__kernel_cosf+0x29c>
 8001c00:	044fa434 	movhi	r17,16016
 8001c04:	050fce34 	movhi	r20,16184
 8001c08:	8009883a 	mov	r4,r16
 8001c0c:	014fc034 	movhi	r5,16128
 8001c10:	8002d080 	call	8002d08 <__mulsf3>
 8001c14:	1009883a 	mov	r4,r2
 8001c18:	880b883a 	mov	r5,r17
 8001c1c:	8002c340 	call	8002c34 <__subsf3>
 8001c20:	8009883a 	mov	r4,r16
 8001c24:	900b883a 	mov	r5,r18
 8001c28:	1023883a 	mov	r17,r2
 8001c2c:	8002d080 	call	8002d08 <__mulsf3>
 8001c30:	9809883a 	mov	r4,r19
 8001c34:	a80b883a 	mov	r5,r21
 8001c38:	1021883a 	mov	r16,r2
 8001c3c:	8002d080 	call	8002d08 <__mulsf3>
 8001c40:	100b883a 	mov	r5,r2
 8001c44:	8009883a 	mov	r4,r16
 8001c48:	8002c340 	call	8002c34 <__subsf3>
 8001c4c:	100b883a 	mov	r5,r2
 8001c50:	8809883a 	mov	r4,r17
 8001c54:	8002c340 	call	8002c34 <__subsf3>
 8001c58:	100b883a 	mov	r5,r2
 8001c5c:	a009883a 	mov	r4,r20
 8001c60:	8002c340 	call	8002c34 <__subsf3>
 8001c64:	003fad06 	br	8001b1c <__kernel_cosf+0x148>
 8001c68:	008fe034 	movhi	r2,16256
 8001c6c:	003fab06 	br	8001b1c <__kernel_cosf+0x148>
 8001c70:	00bfc034 	movhi	r2,65280
 8001c74:	8885883a 	add	r2,r17,r2
 8001c78:	100b883a 	mov	r5,r2
 8001c7c:	010fe034 	movhi	r4,16256
 8001c80:	1023883a 	mov	r17,r2
 8001c84:	8002c340 	call	8002c34 <__subsf3>
 8001c88:	1029883a 	mov	r20,r2
 8001c8c:	003fde06 	br	8001c08 <__kernel_cosf+0x234>

08001c90 <__kernel_rem_pio2f>:
 8001c90:	deff9804 	addi	sp,sp,-416
 8001c94:	d8806817 	ldw	r2,416(sp)
 8001c98:	ddc06515 	stw	r23,404(sp)
 8001c9c:	dfc06715 	stw	ra,412(sp)
 8001ca0:	1087883a 	add	r3,r2,r2
 8001ca4:	18c7883a 	add	r3,r3,r3
 8001ca8:	00820074 	movhi	r2,2049
 8001cac:	109cf804 	addi	r2,r2,29664
 8001cb0:	1887883a 	add	r3,r3,r2
 8001cb4:	1dc00017 	ldw	r23,0(r3)
 8001cb8:	30bfff44 	addi	r2,r6,-3
 8001cbc:	38ffffc4 	addi	r3,r7,-1
 8001cc0:	df006615 	stw	fp,408(sp)
 8001cc4:	dd806415 	stw	r22,400(sp)
 8001cc8:	dd406315 	stw	r21,396(sp)
 8001ccc:	dd006215 	stw	r20,392(sp)
 8001cd0:	dcc06115 	stw	r19,388(sp)
 8001cd4:	dc806015 	stw	r18,384(sp)
 8001cd8:	dc405f15 	stw	r17,380(sp)
 8001cdc:	dc005e15 	stw	r16,376(sp)
 8001ce0:	d9c05915 	stw	r7,356(sp)
 8001ce4:	d9005715 	stw	r4,348(sp)
 8001ce8:	d9405815 	stw	r5,352(sp)
 8001cec:	d8c05615 	stw	r3,344(sp)
 8001cf0:	10024716 	blt	r2,zero,8002610 <__kernel_rem_pio2f+0x980>
 8001cf4:	1005d0fa 	srai	r2,r2,3
 8001cf8:	d8805015 	stw	r2,320(sp)
 8001cfc:	10024816 	blt	r2,zero,8002620 <__kernel_rem_pio2f+0x990>
 8001d00:	d9005017 	ldw	r4,320(sp)
 8001d04:	d9405617 	ldw	r5,344(sp)
 8001d08:	20bffe24 	muli	r2,r4,-8
 8001d0c:	b947883a 	add	r3,r23,r5
 8001d10:	3085883a 	add	r2,r6,r2
 8001d14:	173ffe04 	addi	fp,r2,-8
 8001d18:	18001116 	blt	r3,zero,8001d60 <__kernel_rem_pio2f+0xd0>
 8001d1c:	2161c83a 	sub	r16,r4,r5
 8001d20:	d9c06917 	ldw	r7,420(sp)
 8001d24:	8405883a 	add	r2,r16,r16
 8001d28:	1085883a 	add	r2,r2,r2
 8001d2c:	38a3883a 	add	r17,r7,r2
 8001d30:	80e7883a 	add	r19,r16,r3
 8001d34:	dc801404 	addi	r18,sp,80
 8001d38:	00000106 	br	8001d40 <__kernel_rem_pio2f+0xb0>
 8001d3c:	84000044 	addi	r16,r16,1
 8001d40:	0005883a 	mov	r2,zero
 8001d44:	80000216 	blt	r16,zero,8001d50 <__kernel_rem_pio2f+0xc0>
 8001d48:	89000017 	ldw	r4,0(r17)
 8001d4c:	80031400 	call	8003140 <__floatsisf>
 8001d50:	90800015 	stw	r2,0(r18)
 8001d54:	8c400104 	addi	r17,r17,4
 8001d58:	94800104 	addi	r18,r18,4
 8001d5c:	84fff71e 	bne	r16,r19,8001d3c <__kernel_rem_pio2f+0xac>
 8001d60:	b8001c16 	blt	r23,zero,8001dd4 <__kernel_rem_pio2f+0x144>
 8001d64:	dcc05617 	ldw	r19,344(sp)
 8001d68:	da005917 	ldw	r8,356(sp)
 8001d6c:	dd003c04 	addi	r20,sp,240
 8001d70:	982a403a 	cmpge	r21,r19,zero
 8001d74:	ba2d883a 	add	r22,r23,r8
 8001d78:	a801ad26 	beq	r21,zero,8002430 <__kernel_rem_pio2f+0x7a0>
 8001d7c:	dc405717 	ldw	r17,348(sp)
 8001d80:	0021883a 	mov	r16,zero
 8001d84:	0025883a 	mov	r18,zero
 8001d88:	9c05c83a 	sub	r2,r19,r16
 8001d8c:	1085883a 	add	r2,r2,r2
 8001d90:	1085883a 	add	r2,r2,r2
 8001d94:	16c5883a 	add	r2,r2,sp
 8001d98:	89000017 	ldw	r4,0(r17)
 8001d9c:	11401417 	ldw	r5,80(r2)
 8001da0:	84000044 	addi	r16,r16,1
 8001da4:	8c400104 	addi	r17,r17,4
 8001da8:	8002d080 	call	8002d08 <__mulsf3>
 8001dac:	100b883a 	mov	r5,r2
 8001db0:	9009883a 	mov	r4,r18
 8001db4:	8002ca40 	call	8002ca4 <__addsf3>
 8001db8:	1025883a 	mov	r18,r2
 8001dbc:	d8805917 	ldw	r2,356(sp)
 8001dc0:	143ff11e 	bne	r2,r16,8001d88 <__kernel_rem_pio2f+0xf8>
 8001dc4:	9cc00044 	addi	r19,r19,1
 8001dc8:	a4800015 	stw	r18,0(r20)
 8001dcc:	a5000104 	addi	r20,r20,4
 8001dd0:	9dbfe91e 	bne	r19,r22,8001d78 <__kernel_rem_pio2f+0xe8>
 8001dd4:	bdc5883a 	add	r2,r23,r23
 8001dd8:	d9005617 	ldw	r4,344(sp)
 8001ddc:	15c7883a 	add	r3,r2,r23
 8001de0:	1dc7883a 	add	r3,r3,r23
 8001de4:	1085883a 	add	r2,r2,r2
 8001de8:	2008403a 	cmpge	r4,r4,zero
 8001dec:	16c5883a 	add	r2,r2,sp
 8001df0:	1ec7883a 	add	r3,r3,sp
 8001df4:	e1400050 	cmplti	r5,fp,1
 8001df8:	b82d883a 	mov	r22,r23
 8001dfc:	d9005d15 	stw	r4,372(sp)
 8001e00:	d8805a15 	stw	r2,360(sp)
 8001e04:	d8c05c15 	stw	r3,368(sp)
 8001e08:	d9405b15 	stw	r5,364(sp)
 8001e0c:	b5a3883a 	add	r17,r22,r22
 8001e10:	8c45883a 	add	r2,r17,r17
 8001e14:	16c5883a 	add	r2,r2,sp
 8001e18:	14803c17 	ldw	r18,240(r2)
 8001e1c:	05801c0e 	bge	zero,r22,8001e90 <__kernel_rem_pio2f+0x200>
 8001e20:	15003c04 	addi	r20,r2,240
 8001e24:	b027883a 	mov	r19,r22
 8001e28:	d82b883a 	mov	r21,sp
 8001e2c:	014ee034 	movhi	r5,15232
 8001e30:	9009883a 	mov	r4,r18
 8001e34:	8002d080 	call	8002d08 <__mulsf3>
 8001e38:	1009883a 	mov	r4,r2
 8001e3c:	80031d80 	call	80031d8 <__fixsfsi>
 8001e40:	1009883a 	mov	r4,r2
 8001e44:	80031400 	call	8003140 <__floatsisf>
 8001e48:	1009883a 	mov	r4,r2
 8001e4c:	0170e034 	movhi	r5,50048
 8001e50:	1021883a 	mov	r16,r2
 8001e54:	8002d080 	call	8002d08 <__mulsf3>
 8001e58:	1009883a 	mov	r4,r2
 8001e5c:	900b883a 	mov	r5,r18
 8001e60:	8002ca40 	call	8002ca4 <__addsf3>
 8001e64:	1009883a 	mov	r4,r2
 8001e68:	80031d80 	call	80031d8 <__fixsfsi>
 8001e6c:	a8800015 	stw	r2,0(r21)
 8001e70:	a53fff04 	addi	r20,r20,-4
 8001e74:	a1400017 	ldw	r5,0(r20)
 8001e78:	8009883a 	mov	r4,r16
 8001e7c:	9cffffc4 	addi	r19,r19,-1
 8001e80:	8002ca40 	call	8002ca4 <__addsf3>
 8001e84:	1025883a 	mov	r18,r2
 8001e88:	ad400104 	addi	r21,r21,4
 8001e8c:	983fe71e 	bne	r19,zero,8001e2c <__kernel_rem_pio2f+0x19c>
 8001e90:	9009883a 	mov	r4,r18
 8001e94:	e00b883a 	mov	r5,fp
 8001e98:	80028ec0 	call	80028ec <scalbnf>
 8001e9c:	1009883a 	mov	r4,r2
 8001ea0:	014f8034 	movhi	r5,15872
 8001ea4:	1021883a 	mov	r16,r2
 8001ea8:	8002d080 	call	8002d08 <__mulsf3>
 8001eac:	1009883a 	mov	r4,r2
 8001eb0:	80012c40 	call	80012c4 <floorf>
 8001eb4:	1009883a 	mov	r4,r2
 8001eb8:	01704034 	movhi	r5,49408
 8001ebc:	8002d080 	call	8002d08 <__mulsf3>
 8001ec0:	100b883a 	mov	r5,r2
 8001ec4:	8009883a 	mov	r4,r16
 8001ec8:	8002ca40 	call	8002ca4 <__addsf3>
 8001ecc:	1009883a 	mov	r4,r2
 8001ed0:	1021883a 	mov	r16,r2
 8001ed4:	80031d80 	call	80031d8 <__fixsfsi>
 8001ed8:	1009883a 	mov	r4,r2
 8001edc:	d8805515 	stw	r2,340(sp)
 8001ee0:	80031400 	call	8003140 <__floatsisf>
 8001ee4:	100b883a 	mov	r5,r2
 8001ee8:	8009883a 	mov	r4,r16
 8001eec:	8002c340 	call	8002c34 <__subsf3>
 8001ef0:	d9c05b17 	ldw	r7,364(sp)
 8001ef4:	1027883a 	mov	r19,r2
 8001ef8:	38012b1e 	bne	r7,zero,80023a8 <__kernel_rem_pio2f+0x718>
 8001efc:	b0bfffc4 	addi	r2,r22,-1
 8001f00:	1085883a 	add	r2,r2,r2
 8001f04:	1085883a 	add	r2,r2,r2
 8001f08:	16c5883a 	add	r2,r2,sp
 8001f0c:	11400017 	ldw	r5,0(r2)
 8001f10:	00c00204 	movi	r3,8
 8001f14:	1f07c83a 	sub	r3,r3,fp
 8001f18:	28cdd83a 	sra	r6,r5,r3
 8001f1c:	010001c4 	movi	r4,7
 8001f20:	da005517 	ldw	r8,340(sp)
 8001f24:	30c6983a 	sll	r3,r6,r3
 8001f28:	2709c83a 	sub	r4,r4,fp
 8001f2c:	4191883a 	add	r8,r8,r6
 8001f30:	28cbc83a 	sub	r5,r5,r3
 8001f34:	2909d83a 	sra	r4,r5,r4
 8001f38:	da005515 	stw	r8,340(sp)
 8001f3c:	11400015 	stw	r5,0(r2)
 8001f40:	d9005415 	stw	r4,336(sp)
 8001f44:	d8c05417 	ldw	r3,336(sp)
 8001f48:	00c0220e 	bge	zero,r3,8001fd4 <__kernel_rem_pio2f+0x344>
 8001f4c:	d9005517 	ldw	r4,340(sp)
 8001f50:	21000044 	addi	r4,r4,1
 8001f54:	d9005515 	stw	r4,340(sp)
 8001f58:	0581450e 	bge	zero,r22,8002470 <__kernel_rem_pio2f+0x7e0>
 8001f5c:	0021883a 	mov	r16,zero
 8001f60:	000b883a 	mov	r5,zero
 8001f64:	d809883a 	mov	r4,sp
 8001f68:	01c04004 	movi	r7,256
 8001f6c:	01803fc4 	movi	r6,255
 8001f70:	00000706 	br	8001f90 <__kernel_rem_pio2f+0x300>
 8001f74:	38c5c83a 	sub	r2,r7,r3
 8001f78:	18000226 	beq	r3,zero,8001f84 <__kernel_rem_pio2f+0x2f4>
 8001f7c:	04000044 	movi	r16,1
 8001f80:	20800015 	stw	r2,0(r4)
 8001f84:	29400044 	addi	r5,r5,1
 8001f88:	21000104 	addi	r4,r4,4
 8001f8c:	b1400826 	beq	r22,r5,8001fb0 <__kernel_rem_pio2f+0x320>
 8001f90:	8004c03a 	cmpne	r2,r16,zero
 8001f94:	20c00017 	ldw	r3,0(r4)
 8001f98:	103ff626 	beq	r2,zero,8001f74 <__kernel_rem_pio2f+0x2e4>
 8001f9c:	30c5c83a 	sub	r2,r6,r3
 8001fa0:	29400044 	addi	r5,r5,1
 8001fa4:	20800015 	stw	r2,0(r4)
 8001fa8:	21000104 	addi	r4,r4,4
 8001fac:	b17ff81e 	bne	r22,r5,8001f90 <__kernel_rem_pio2f+0x300>
 8001fb0:	d9405b17 	ldw	r5,364(sp)
 8001fb4:	2800041e 	bne	r5,zero,8001fc8 <__kernel_rem_pio2f+0x338>
 8001fb8:	00800044 	movi	r2,1
 8001fbc:	e0810126 	beq	fp,r2,80023c4 <__kernel_rem_pio2f+0x734>
 8001fc0:	00800084 	movi	r2,2
 8001fc4:	e0810726 	beq	fp,r2,80023e4 <__kernel_rem_pio2f+0x754>
 8001fc8:	d9c05417 	ldw	r7,336(sp)
 8001fcc:	00800084 	movi	r2,2
 8001fd0:	38806126 	beq	r7,r2,8002158 <__kernel_rem_pio2f+0x4c8>
 8001fd4:	9809883a 	mov	r4,r19
 8001fd8:	000b883a 	mov	r5,zero
 8001fdc:	8002ee80 	call	8002ee8 <__eqsf2>
 8001fe0:	1000701e 	bne	r2,zero,80021a4 <__kernel_rem_pio2f+0x514>
 8001fe4:	b1bfffc4 	addi	r6,r22,-1
 8001fe8:	35c00b16 	blt	r6,r23,8002018 <__kernel_rem_pio2f+0x388>
 8001fec:	3185883a 	add	r2,r6,r6
 8001ff0:	1085883a 	add	r2,r2,r2
 8001ff4:	16c9883a 	add	r4,r2,sp
 8001ff8:	3007883a 	mov	r3,r6
 8001ffc:	000b883a 	mov	r5,zero
 8002000:	20800017 	ldw	r2,0(r4)
 8002004:	18ffffc4 	addi	r3,r3,-1
 8002008:	213fff04 	addi	r4,r4,-4
 800200c:	288ab03a 	or	r5,r5,r2
 8002010:	1dfffb0e 	bge	r3,r23,8002000 <__kernel_rem_pio2f+0x370>
 8002014:	2800681e 	bne	r5,zero,80021b8 <__kernel_rem_pio2f+0x528>
 8002018:	da005a17 	ldw	r8,360(sp)
 800201c:	40bfff17 	ldw	r2,-4(r8)
 8002020:	1000fe1e 	bne	r2,zero,800241c <__kernel_rem_pio2f+0x78c>
 8002024:	d8805c17 	ldw	r2,368(sp)
 8002028:	01000044 	movi	r4,1
 800202c:	10ffff04 	addi	r3,r2,-4
 8002030:	18ffff04 	addi	r3,r3,-4
 8002034:	18800017 	ldw	r2,0(r3)
 8002038:	21000044 	addi	r4,r4,1
 800203c:	103ffc26 	beq	r2,zero,8002030 <__kernel_rem_pio2f+0x3a0>
 8002040:	b12b883a 	add	r21,r22,r4
 8002044:	b4000044 	addi	r16,r22,1
 8002048:	ac00020e 	bge	r21,r16,8002054 <__kernel_rem_pio2f+0x3c4>
 800204c:	a82d883a 	mov	r22,r21
 8002050:	003f6e06 	br	8001e0c <__kernel_rem_pio2f+0x17c>
 8002054:	d8c05017 	ldw	r3,320(sp)
 8002058:	d9005917 	ldw	r4,356(sp)
 800205c:	da006917 	ldw	r8,420(sp)
 8002060:	b0c5883a 	add	r2,r22,r3
 8002064:	b10f883a 	add	r7,r22,r4
 8002068:	1085883a 	add	r2,r2,r2
 800206c:	1085883a 	add	r2,r2,r2
 8002070:	39cb883a 	add	r5,r7,r7
 8002074:	840d883a 	add	r6,r16,r16
 8002078:	4085883a 	add	r2,r8,r2
 800207c:	294b883a 	add	r5,r5,r5
 8002080:	318d883a 	add	r6,r6,r6
 8002084:	d8c01404 	addi	r3,sp,80
 8002088:	d9003c04 	addi	r4,sp,240
 800208c:	1947883a 	add	r3,r3,r5
 8002090:	2189883a 	add	r4,r4,r6
 8002094:	10800104 	addi	r2,r2,4
 8002098:	d8c05215 	stw	r3,328(sp)
 800209c:	d9005115 	stw	r4,324(sp)
 80020a0:	d8805315 	stw	r2,332(sp)
 80020a4:	382d883a 	mov	r22,r7
 80020a8:	d8805317 	ldw	r2,332(sp)
 80020ac:	11000017 	ldw	r4,0(r2)
 80020b0:	80031400 	call	8003140 <__floatsisf>
 80020b4:	d8c05217 	ldw	r3,328(sp)
 80020b8:	d9005d17 	ldw	r4,372(sp)
 80020bc:	18800015 	stw	r2,0(r3)
 80020c0:	20002326 	beq	r4,zero,8002150 <__kernel_rem_pio2f+0x4c0>
 80020c4:	b585883a 	add	r2,r22,r22
 80020c8:	1585883a 	add	r2,r2,r22
 80020cc:	1585883a 	add	r2,r2,r22
 80020d0:	dc405717 	ldw	r17,348(sp)
 80020d4:	16c5883a 	add	r2,r2,sp
 80020d8:	14801404 	addi	r18,r2,80
 80020dc:	0029883a 	mov	r20,zero
 80020e0:	0027883a 	mov	r19,zero
 80020e4:	89000017 	ldw	r4,0(r17)
 80020e8:	91400017 	ldw	r5,0(r18)
 80020ec:	a5000044 	addi	r20,r20,1
 80020f0:	94bfff04 	addi	r18,r18,-4
 80020f4:	8002d080 	call	8002d08 <__mulsf3>
 80020f8:	100b883a 	mov	r5,r2
 80020fc:	9809883a 	mov	r4,r19
 8002100:	8002ca40 	call	8002ca4 <__addsf3>
 8002104:	d9405917 	ldw	r5,356(sp)
 8002108:	1027883a 	mov	r19,r2
 800210c:	8c400104 	addi	r17,r17,4
 8002110:	2d3ff41e 	bne	r5,r20,80020e4 <__kernel_rem_pio2f+0x454>
 8002114:	d9c05117 	ldw	r7,324(sp)
 8002118:	da005317 	ldw	r8,332(sp)
 800211c:	d8805217 	ldw	r2,328(sp)
 8002120:	3cc00015 	stw	r19,0(r7)
 8002124:	42000104 	addi	r8,r8,4
 8002128:	10800104 	addi	r2,r2,4
 800212c:	39c00104 	addi	r7,r7,4
 8002130:	84000044 	addi	r16,r16,1
 8002134:	da005315 	stw	r8,332(sp)
 8002138:	d8805215 	stw	r2,328(sp)
 800213c:	d9c05115 	stw	r7,324(sp)
 8002140:	b5800044 	addi	r22,r22,1
 8002144:	ac3fd80e 	bge	r21,r16,80020a8 <__kernel_rem_pio2f+0x418>
 8002148:	a82d883a 	mov	r22,r21
 800214c:	003f2f06 	br	8001e0c <__kernel_rem_pio2f+0x17c>
 8002150:	0027883a 	mov	r19,zero
 8002154:	003fef06 	br	8002114 <__kernel_rem_pio2f+0x484>
 8002158:	050fe034 	movhi	r20,16256
 800215c:	980b883a 	mov	r5,r19
 8002160:	a009883a 	mov	r4,r20
 8002164:	8002c340 	call	8002c34 <__subsf3>
 8002168:	1025883a 	mov	r18,r2
 800216c:	8005003a 	cmpeq	r2,r16,zero
 8002170:	9027883a 	mov	r19,r18
 8002174:	103f971e 	bne	r2,zero,8001fd4 <__kernel_rem_pio2f+0x344>
 8002178:	a009883a 	mov	r4,r20
 800217c:	e00b883a 	mov	r5,fp
 8002180:	80028ec0 	call	80028ec <scalbnf>
 8002184:	100b883a 	mov	r5,r2
 8002188:	9009883a 	mov	r4,r18
 800218c:	8002c340 	call	8002c34 <__subsf3>
 8002190:	1027883a 	mov	r19,r2
 8002194:	9809883a 	mov	r4,r19
 8002198:	000b883a 	mov	r5,zero
 800219c:	8002ee80 	call	8002ee8 <__eqsf2>
 80021a0:	103f9026 	beq	r2,zero,8001fe4 <__kernel_rem_pio2f+0x354>
 80021a4:	9809883a 	mov	r4,r19
 80021a8:	000b883a 	mov	r5,zero
 80021ac:	8002ee80 	call	8002ee8 <__eqsf2>
 80021b0:	10011d1e 	bne	r2,zero,8002628 <__kernel_rem_pio2f+0x998>
 80021b4:	b1bfffc4 	addi	r6,r22,-1
 80021b8:	3185883a 	add	r2,r6,r6
 80021bc:	1085883a 	add	r2,r2,r2
 80021c0:	16c5883a 	add	r2,r2,sp
 80021c4:	10c00017 	ldw	r3,0(r2)
 80021c8:	e73ffe04 	addi	fp,fp,-8
 80021cc:	18013c1e 	bne	r3,zero,80026c0 <__kernel_rem_pio2f+0xa30>
 80021d0:	302d883a 	mov	r22,r6
 80021d4:	1007883a 	mov	r3,r2
 80021d8:	18ffff04 	addi	r3,r3,-4
 80021dc:	18800017 	ldw	r2,0(r3)
 80021e0:	b5bfffc4 	addi	r22,r22,-1
 80021e4:	e73ffe04 	addi	fp,fp,-8
 80021e8:	103ffb26 	beq	r2,zero,80021d8 <__kernel_rem_pio2f+0x548>
 80021ec:	e00b883a 	mov	r5,fp
 80021f0:	010fe034 	movhi	r4,16256
 80021f4:	80028ec0 	call	80028ec <scalbnf>
 80021f8:	1025883a 	mov	r18,r2
 80021fc:	b0003416 	blt	r22,zero,80022d0 <__kernel_rem_pio2f+0x640>
 8002200:	b585883a 	add	r2,r22,r22
 8002204:	1085883a 	add	r2,r2,r2
 8002208:	16e1883a 	add	r16,r2,sp
 800220c:	b023883a 	mov	r17,r22
 8002210:	04ffffc4 	movi	r19,-1
 8002214:	81000017 	ldw	r4,0(r16)
 8002218:	8c7fffc4 	addi	r17,r17,-1
 800221c:	80031400 	call	8003140 <__floatsisf>
 8002220:	900b883a 	mov	r5,r18
 8002224:	1009883a 	mov	r4,r2
 8002228:	8002d080 	call	8002d08 <__mulsf3>
 800222c:	80803c15 	stw	r2,240(r16)
 8002230:	9009883a 	mov	r4,r18
 8002234:	014ee034 	movhi	r5,15232
 8002238:	8002d080 	call	8002d08 <__mulsf3>
 800223c:	1025883a 	mov	r18,r2
 8002240:	843fff04 	addi	r16,r16,-4
 8002244:	8cfff31e 	bne	r17,r19,8002214 <__kernel_rem_pio2f+0x584>
 8002248:	b02b883a 	mov	r21,r22
 800224c:	0029883a 	mov	r20,zero
 8002250:	b838403a 	cmpge	fp,r23,zero
 8002254:	e0007c26 	beq	fp,zero,8002448 <__kernel_rem_pio2f+0x7b8>
 8002258:	a0007b16 	blt	r20,zero,8002448 <__kernel_rem_pio2f+0x7b8>
 800225c:	ad45883a 	add	r2,r21,r21
 8002260:	1085883a 	add	r2,r2,r2
 8002264:	d8c03c04 	addi	r3,sp,240
 8002268:	18a5883a 	add	r18,r3,r2
 800226c:	0021883a 	mov	r16,zero
 8002270:	0027883a 	mov	r19,zero
 8002274:	04420074 	movhi	r17,2049
 8002278:	8c5cfb04 	addi	r17,r17,29676
 800227c:	00000106 	br	8002284 <__kernel_rem_pio2f+0x5f4>
 8002280:	a4000b16 	blt	r20,r16,80022b0 <__kernel_rem_pio2f+0x620>
 8002284:	89000017 	ldw	r4,0(r17)
 8002288:	91400017 	ldw	r5,0(r18)
 800228c:	84000044 	addi	r16,r16,1
 8002290:	8c400104 	addi	r17,r17,4
 8002294:	8002d080 	call	8002d08 <__mulsf3>
 8002298:	100b883a 	mov	r5,r2
 800229c:	9809883a 	mov	r4,r19
 80022a0:	8002ca40 	call	8002ca4 <__addsf3>
 80022a4:	94800104 	addi	r18,r18,4
 80022a8:	1027883a 	mov	r19,r2
 80022ac:	bc3ff40e 	bge	r23,r16,8002280 <__kernel_rem_pio2f+0x5f0>
 80022b0:	a505883a 	add	r2,r20,r20
 80022b4:	1085883a 	add	r2,r2,r2
 80022b8:	16c5883a 	add	r2,r2,sp
 80022bc:	14c02815 	stw	r19,160(r2)
 80022c0:	ad7fffc4 	addi	r21,r21,-1
 80022c4:	00bfffc4 	movi	r2,-1
 80022c8:	a5000044 	addi	r20,r20,1
 80022cc:	a8bfe11e 	bne	r21,r2,8002254 <__kernel_rem_pio2f+0x5c4>
 80022d0:	d8c06817 	ldw	r3,416(sp)
 80022d4:	00800084 	movi	r2,2
 80022d8:	10c06a16 	blt	r2,r3,8002484 <__kernel_rem_pio2f+0x7f4>
 80022dc:	00c0b70e 	bge	zero,r3,80025bc <__kernel_rem_pio2f+0x92c>
 80022e0:	b0010916 	blt	r22,zero,8002708 <__kernel_rem_pio2f+0xa78>
 80022e4:	b585883a 	add	r2,r22,r22
 80022e8:	1085883a 	add	r2,r2,r2
 80022ec:	16c5883a 	add	r2,r2,sp
 80022f0:	14402804 	addi	r17,r2,160
 80022f4:	b021883a 	mov	r16,r22
 80022f8:	0005883a 	mov	r2,zero
 80022fc:	04bfffc4 	movi	r18,-1
 8002300:	89400017 	ldw	r5,0(r17)
 8002304:	1009883a 	mov	r4,r2
 8002308:	843fffc4 	addi	r16,r16,-1
 800230c:	8002ca40 	call	8002ca4 <__addsf3>
 8002310:	8c7fff04 	addi	r17,r17,-4
 8002314:	84bffa1e 	bne	r16,r18,8002300 <__kernel_rem_pio2f+0x670>
 8002318:	da005417 	ldw	r8,336(sp)
 800231c:	4000e61e 	bne	r8,zero,80026b8 <__kernel_rem_pio2f+0xa28>
 8002320:	1007883a 	mov	r3,r2
 8002324:	d9405817 	ldw	r5,352(sp)
 8002328:	d9002817 	ldw	r4,160(sp)
 800232c:	28c00015 	stw	r3,0(r5)
 8002330:	100b883a 	mov	r5,r2
 8002334:	8002c340 	call	8002c34 <__subsf3>
 8002338:	0580080e 	bge	zero,r22,800235c <__kernel_rem_pio2f+0x6cc>
 800233c:	0023883a 	mov	r17,zero
 8002340:	dc002904 	addi	r16,sp,164
 8002344:	81400017 	ldw	r5,0(r16)
 8002348:	1009883a 	mov	r4,r2
 800234c:	8c400044 	addi	r17,r17,1
 8002350:	8002ca40 	call	8002ca4 <__addsf3>
 8002354:	84000104 	addi	r16,r16,4
 8002358:	8dbffa1e 	bne	r17,r22,8002344 <__kernel_rem_pio2f+0x6b4>
 800235c:	d9c05417 	ldw	r7,336(sp)
 8002360:	38000126 	beq	r7,zero,8002368 <__kernel_rem_pio2f+0x6d8>
 8002364:	10a0003c 	xorhi	r2,r2,32768
 8002368:	da005817 	ldw	r8,352(sp)
 800236c:	40800115 	stw	r2,4(r8)
 8002370:	da005517 	ldw	r8,340(sp)
 8002374:	408001cc 	andi	r2,r8,7
 8002378:	dfc06717 	ldw	ra,412(sp)
 800237c:	df006617 	ldw	fp,408(sp)
 8002380:	ddc06517 	ldw	r23,404(sp)
 8002384:	dd806417 	ldw	r22,400(sp)
 8002388:	dd406317 	ldw	r21,396(sp)
 800238c:	dd006217 	ldw	r20,392(sp)
 8002390:	dcc06117 	ldw	r19,388(sp)
 8002394:	dc806017 	ldw	r18,384(sp)
 8002398:	dc405f17 	ldw	r17,380(sp)
 800239c:	dc005e17 	ldw	r16,376(sp)
 80023a0:	dec06804 	addi	sp,sp,416
 80023a4:	f800283a 	ret
 80023a8:	e000161e 	bne	fp,zero,8002404 <__kernel_rem_pio2f+0x774>
 80023ac:	8c45883a 	add	r2,r17,r17
 80023b0:	16c5883a 	add	r2,r2,sp
 80023b4:	10ffff17 	ldw	r3,-4(r2)
 80023b8:	1807d23a 	srai	r3,r3,8
 80023bc:	d8c05415 	stw	r3,336(sp)
 80023c0:	003ee006 	br	8001f44 <__kernel_rem_pio2f+0x2b4>
 80023c4:	b705c83a 	sub	r2,r22,fp
 80023c8:	1085883a 	add	r2,r2,r2
 80023cc:	1085883a 	add	r2,r2,r2
 80023d0:	16c5883a 	add	r2,r2,sp
 80023d4:	10c00017 	ldw	r3,0(r2)
 80023d8:	18c01fcc 	andi	r3,r3,127
 80023dc:	10c00015 	stw	r3,0(r2)
 80023e0:	003ef906 	br	8001fc8 <__kernel_rem_pio2f+0x338>
 80023e4:	b0bfffc4 	addi	r2,r22,-1
 80023e8:	1085883a 	add	r2,r2,r2
 80023ec:	1085883a 	add	r2,r2,r2
 80023f0:	16c5883a 	add	r2,r2,sp
 80023f4:	10c00017 	ldw	r3,0(r2)
 80023f8:	18c00fcc 	andi	r3,r3,63
 80023fc:	10c00015 	stw	r3,0(r2)
 8002400:	003ef106 	br	8001fc8 <__kernel_rem_pio2f+0x338>
 8002404:	1009883a 	mov	r4,r2
 8002408:	014fc034 	movhi	r5,16128
 800240c:	8002fd80 	call	8002fd8 <__gesf2>
 8002410:	1000190e 	bge	r2,zero,8002478 <__kernel_rem_pio2f+0x7e8>
 8002414:	d8005415 	stw	zero,336(sp)
 8002418:	003eee06 	br	8001fd4 <__kernel_rem_pio2f+0x344>
 800241c:	01000044 	movi	r4,1
 8002420:	b12b883a 	add	r21,r22,r4
 8002424:	b4000044 	addi	r16,r22,1
 8002428:	ac3f0816 	blt	r21,r16,800204c <__kernel_rem_pio2f+0x3bc>
 800242c:	003f0906 	br	8002054 <__kernel_rem_pio2f+0x3c4>
 8002430:	0025883a 	mov	r18,zero
 8002434:	9cc00044 	addi	r19,r19,1
 8002438:	a4800015 	stw	r18,0(r20)
 800243c:	a5000104 	addi	r20,r20,4
 8002440:	9dbe4d1e 	bne	r19,r22,8001d78 <__kernel_rem_pio2f+0xe8>
 8002444:	003e6306 	br	8001dd4 <__kernel_rem_pio2f+0x144>
 8002448:	a505883a 	add	r2,r20,r20
 800244c:	1085883a 	add	r2,r2,r2
 8002450:	16c5883a 	add	r2,r2,sp
 8002454:	0027883a 	mov	r19,zero
 8002458:	14c02815 	stw	r19,160(r2)
 800245c:	ad7fffc4 	addi	r21,r21,-1
 8002460:	00bfffc4 	movi	r2,-1
 8002464:	a5000044 	addi	r20,r20,1
 8002468:	a8bf7a1e 	bne	r21,r2,8002254 <__kernel_rem_pio2f+0x5c4>
 800246c:	003f9806 	br	80022d0 <__kernel_rem_pio2f+0x640>
 8002470:	0021883a 	mov	r16,zero
 8002474:	003ece06 	br	8001fb0 <__kernel_rem_pio2f+0x320>
 8002478:	00800084 	movi	r2,2
 800247c:	d8805415 	stw	r2,336(sp)
 8002480:	003eb206 	br	8001f4c <__kernel_rem_pio2f+0x2bc>
 8002484:	d9006817 	ldw	r4,416(sp)
 8002488:	008000c4 	movi	r2,3
 800248c:	20bfb81e 	bne	r4,r2,8002370 <__kernel_rem_pio2f+0x6e0>
 8002490:	0580190e 	bge	zero,r22,80024f8 <__kernel_rem_pio2f+0x868>
 8002494:	b021883a 	mov	r16,r22
 8002498:	00000106 	br	80024a0 <__kernel_rem_pio2f+0x810>
 800249c:	a821883a 	mov	r16,r21
 80024a0:	857fffc4 	addi	r21,r16,-1
 80024a4:	ad63883a 	add	r17,r21,r21
 80024a8:	8421883a 	add	r16,r16,r16
 80024ac:	8c63883a 	add	r17,r17,r17
 80024b0:	8421883a 	add	r16,r16,r16
 80024b4:	8ee3883a 	add	r17,r17,sp
 80024b8:	86e1883a 	add	r16,r16,sp
 80024bc:	8c802817 	ldw	r18,160(r17)
 80024c0:	84c02817 	ldw	r19,160(r16)
 80024c4:	9009883a 	mov	r4,r18
 80024c8:	980b883a 	mov	r5,r19
 80024cc:	8002ca40 	call	8002ca4 <__addsf3>
 80024d0:	100b883a 	mov	r5,r2
 80024d4:	9009883a 	mov	r4,r18
 80024d8:	1029883a 	mov	r20,r2
 80024dc:	8002c340 	call	8002c34 <__subsf3>
 80024e0:	100b883a 	mov	r5,r2
 80024e4:	9809883a 	mov	r4,r19
 80024e8:	8002ca40 	call	8002ca4 <__addsf3>
 80024ec:	80802815 	stw	r2,160(r16)
 80024f0:	8d002815 	stw	r20,160(r17)
 80024f4:	a83fe91e 	bne	r21,zero,800249c <__kernel_rem_pio2f+0x80c>
 80024f8:	00800044 	movi	r2,1
 80024fc:	1580840e 	bge	r2,r22,8002710 <__kernel_rem_pio2f+0xa80>
 8002500:	b007883a 	mov	r3,r22
 8002504:	1cffffc4 	addi	r19,r3,-1
 8002508:	18e1883a 	add	r16,r3,r3
 800250c:	9ce3883a 	add	r17,r19,r19
 8002510:	8c63883a 	add	r17,r17,r17
 8002514:	8421883a 	add	r16,r16,r16
 8002518:	8ee3883a 	add	r17,r17,sp
 800251c:	86e1883a 	add	r16,r16,sp
 8002520:	8c802817 	ldw	r18,160(r17)
 8002524:	85002817 	ldw	r20,160(r16)
 8002528:	9009883a 	mov	r4,r18
 800252c:	a00b883a 	mov	r5,r20
 8002530:	8002ca40 	call	8002ca4 <__addsf3>
 8002534:	100b883a 	mov	r5,r2
 8002538:	9009883a 	mov	r4,r18
 800253c:	102b883a 	mov	r21,r2
 8002540:	8002c340 	call	8002c34 <__subsf3>
 8002544:	100b883a 	mov	r5,r2
 8002548:	a009883a 	mov	r4,r20
 800254c:	8002ca40 	call	8002ca4 <__addsf3>
 8002550:	80802815 	stw	r2,160(r16)
 8002554:	01000044 	movi	r4,1
 8002558:	9807883a 	mov	r3,r19
 800255c:	8d402815 	stw	r21,160(r17)
 8002560:	993fe81e 	bne	r19,r4,8002504 <__kernel_rem_pio2f+0x874>
 8002564:	b585883a 	add	r2,r22,r22
 8002568:	1085883a 	add	r2,r2,r2
 800256c:	16c5883a 	add	r2,r2,sp
 8002570:	2025883a 	mov	r18,r4
 8002574:	b021883a 	mov	r16,r22
 8002578:	14402804 	addi	r17,r2,160
 800257c:	0009883a 	mov	r4,zero
 8002580:	89400017 	ldw	r5,0(r17)
 8002584:	843fffc4 	addi	r16,r16,-1
 8002588:	8c7fff04 	addi	r17,r17,-4
 800258c:	8002ca40 	call	8002ca4 <__addsf3>
 8002590:	1009883a 	mov	r4,r2
 8002594:	84bffa1e 	bne	r16,r18,8002580 <__kernel_rem_pio2f+0x8f0>
 8002598:	d8805417 	ldw	r2,336(sp)
 800259c:	1000501e 	bne	r2,zero,80026e0 <__kernel_rem_pio2f+0xa50>
 80025a0:	d8802817 	ldw	r2,160(sp)
 80025a4:	d8c02917 	ldw	r3,164(sp)
 80025a8:	d9405817 	ldw	r5,352(sp)
 80025ac:	29000215 	stw	r4,8(r5)
 80025b0:	28800015 	stw	r2,0(r5)
 80025b4:	28c00115 	stw	r3,4(r5)
 80025b8:	003f6d06 	br	8002370 <__kernel_rem_pio2f+0x6e0>
 80025bc:	183f6c1e 	bne	r3,zero,8002370 <__kernel_rem_pio2f+0x6e0>
 80025c0:	b0005516 	blt	r22,zero,8002718 <__kernel_rem_pio2f+0xa88>
 80025c4:	b585883a 	add	r2,r22,r22
 80025c8:	1085883a 	add	r2,r2,r2
 80025cc:	16c5883a 	add	r2,r2,sp
 80025d0:	14402804 	addi	r17,r2,160
 80025d4:	b021883a 	mov	r16,r22
 80025d8:	0005883a 	mov	r2,zero
 80025dc:	04bfffc4 	movi	r18,-1
 80025e0:	89400017 	ldw	r5,0(r17)
 80025e4:	1009883a 	mov	r4,r2
 80025e8:	843fffc4 	addi	r16,r16,-1
 80025ec:	8002ca40 	call	8002ca4 <__addsf3>
 80025f0:	8c7fff04 	addi	r17,r17,-4
 80025f4:	84bffa1e 	bne	r16,r18,80025e0 <__kernel_rem_pio2f+0x950>
 80025f8:	d9405417 	ldw	r5,336(sp)
 80025fc:	28000126 	beq	r5,zero,8002604 <__kernel_rem_pio2f+0x974>
 8002600:	10a0003c 	xorhi	r2,r2,32768
 8002604:	d9c05817 	ldw	r7,352(sp)
 8002608:	38800015 	stw	r2,0(r7)
 800260c:	003f5806 	br	8002370 <__kernel_rem_pio2f+0x6e0>
 8002610:	30800104 	addi	r2,r6,4
 8002614:	1005d0fa 	srai	r2,r2,3
 8002618:	d8805015 	stw	r2,320(sp)
 800261c:	103db80e 	bge	r2,zero,8001d00 <__kernel_rem_pio2f+0x70>
 8002620:	d8005015 	stw	zero,320(sp)
 8002624:	003db606 	br	8001d00 <__kernel_rem_pio2f+0x70>
 8002628:	9809883a 	mov	r4,r19
 800262c:	070bc83a 	sub	r5,zero,fp
 8002630:	80028ec0 	call	80028ec <scalbnf>
 8002634:	1009883a 	mov	r4,r2
 8002638:	0150e034 	movhi	r5,17280
 800263c:	1027883a 	mov	r19,r2
 8002640:	8002fd80 	call	8002fd8 <__gesf2>
 8002644:	10002016 	blt	r2,zero,80026c8 <__kernel_rem_pio2f+0xa38>
 8002648:	014ee034 	movhi	r5,15232
 800264c:	9809883a 	mov	r4,r19
 8002650:	8002d080 	call	8002d08 <__mulsf3>
 8002654:	1009883a 	mov	r4,r2
 8002658:	80031d80 	call	80031d8 <__fixsfsi>
 800265c:	1009883a 	mov	r4,r2
 8002660:	80031400 	call	8003140 <__floatsisf>
 8002664:	1009883a 	mov	r4,r2
 8002668:	0170e034 	movhi	r5,50048
 800266c:	1025883a 	mov	r18,r2
 8002670:	8002d080 	call	8002d08 <__mulsf3>
 8002674:	100b883a 	mov	r5,r2
 8002678:	9809883a 	mov	r4,r19
 800267c:	8002ca40 	call	8002ca4 <__addsf3>
 8002680:	1009883a 	mov	r4,r2
 8002684:	8c63883a 	add	r17,r17,r17
 8002688:	b5800044 	addi	r22,r22,1
 800268c:	80031d80 	call	80031d8 <__fixsfsi>
 8002690:	8ee3883a 	add	r17,r17,sp
 8002694:	b5a1883a 	add	r16,r22,r22
 8002698:	8421883a 	add	r16,r16,r16
 800269c:	9009883a 	mov	r4,r18
 80026a0:	88800015 	stw	r2,0(r17)
 80026a4:	86e1883a 	add	r16,r16,sp
 80026a8:	80031d80 	call	80031d8 <__fixsfsi>
 80026ac:	e7000204 	addi	fp,fp,8
 80026b0:	80800015 	stw	r2,0(r16)
 80026b4:	003ecd06 	br	80021ec <__kernel_rem_pio2f+0x55c>
 80026b8:	10e0003c 	xorhi	r3,r2,32768
 80026bc:	003f1906 	br	8002324 <__kernel_rem_pio2f+0x694>
 80026c0:	302d883a 	mov	r22,r6
 80026c4:	003ec906 	br	80021ec <__kernel_rem_pio2f+0x55c>
 80026c8:	8c61883a 	add	r16,r17,r17
 80026cc:	9809883a 	mov	r4,r19
 80026d0:	86e1883a 	add	r16,r16,sp
 80026d4:	80031d80 	call	80031d8 <__fixsfsi>
 80026d8:	80800015 	stw	r2,0(r16)
 80026dc:	003ec306 	br	80021ec <__kernel_rem_pio2f+0x55c>
 80026e0:	d8c02817 	ldw	r3,160(sp)
 80026e4:	d8802917 	ldw	r2,164(sp)
 80026e8:	d9c05817 	ldw	r7,352(sp)
 80026ec:	2120003c 	xorhi	r4,r4,32768
 80026f0:	18e0003c 	xorhi	r3,r3,32768
 80026f4:	10a0003c 	xorhi	r2,r2,32768
 80026f8:	39000215 	stw	r4,8(r7)
 80026fc:	38c00015 	stw	r3,0(r7)
 8002700:	38800115 	stw	r2,4(r7)
 8002704:	003f1a06 	br	8002370 <__kernel_rem_pio2f+0x6e0>
 8002708:	0005883a 	mov	r2,zero
 800270c:	003f0206 	br	8002318 <__kernel_rem_pio2f+0x688>
 8002710:	0009883a 	mov	r4,zero
 8002714:	003fa006 	br	8002598 <__kernel_rem_pio2f+0x908>
 8002718:	0005883a 	mov	r2,zero
 800271c:	003fb606 	br	80025f8 <__kernel_rem_pio2f+0x968>

08002720 <__kernel_sinf>:
 8002720:	00e00034 	movhi	r3,32768
 8002724:	18ffffc4 	addi	r3,r3,-1
 8002728:	defff904 	addi	sp,sp,-28
 800272c:	1906703a 	and	r3,r3,r4
 8002730:	008c8034 	movhi	r2,12800
 8002734:	10bfffc4 	addi	r2,r2,-1
 8002738:	dd400515 	stw	r21,20(sp)
 800273c:	dc800215 	stw	r18,8(sp)
 8002740:	dc000015 	stw	r16,0(sp)
 8002744:	dfc00615 	stw	ra,24(sp)
 8002748:	dd000415 	stw	r20,16(sp)
 800274c:	dcc00315 	stw	r19,12(sp)
 8002750:	dc400115 	stw	r17,4(sp)
 8002754:	2025883a 	mov	r18,r4
 8002758:	3021883a 	mov	r16,r6
 800275c:	282b883a 	mov	r21,r5
 8002760:	10c00216 	blt	r2,r3,800276c <__kernel_sinf+0x4c>
 8002764:	80031d80 	call	80031d8 <__fixsfsi>
 8002768:	10004326 	beq	r2,zero,8002878 <__kernel_sinf+0x158>
 800276c:	9009883a 	mov	r4,r18
 8002770:	900b883a 	mov	r5,r18
 8002774:	8002d080 	call	8002d08 <__mulsf3>
 8002778:	1023883a 	mov	r17,r2
 800277c:	9009883a 	mov	r4,r18
 8002780:	100b883a 	mov	r5,r2
 8002784:	8002d080 	call	8002d08 <__mulsf3>
 8002788:	8809883a 	mov	r4,r17
 800278c:	014bcbf4 	movhi	r5,12079
 8002790:	297274c4 	addi	r5,r5,-13869
 8002794:	1029883a 	mov	r20,r2
 8002798:	8002d080 	call	8002d08 <__mulsf3>
 800279c:	1009883a 	mov	r4,r2
 80027a0:	014cb5f4 	movhi	r5,13015
 80027a4:	294bcd04 	addi	r5,r5,12084
 80027a8:	8002c340 	call	8002c34 <__subsf3>
 80027ac:	100b883a 	mov	r5,r2
 80027b0:	8809883a 	mov	r4,r17
 80027b4:	8002d080 	call	8002d08 <__mulsf3>
 80027b8:	1009883a 	mov	r4,r2
 80027bc:	014d8e74 	movhi	r5,13881
 80027c0:	297bc6c4 	addi	r5,r5,-4325
 80027c4:	8002ca40 	call	8002ca4 <__addsf3>
 80027c8:	100b883a 	mov	r5,r2
 80027cc:	8809883a 	mov	r4,r17
 80027d0:	8002d080 	call	8002d08 <__mulsf3>
 80027d4:	1009883a 	mov	r4,r2
 80027d8:	014e5434 	movhi	r5,14672
 80027dc:	29434044 	addi	r5,r5,3329
 80027e0:	8002c340 	call	8002c34 <__subsf3>
 80027e4:	100b883a 	mov	r5,r2
 80027e8:	8809883a 	mov	r4,r17
 80027ec:	8002d080 	call	8002d08 <__mulsf3>
 80027f0:	1009883a 	mov	r4,r2
 80027f4:	014f0274 	movhi	r5,15369
 80027f8:	29622244 	addi	r5,r5,-30583
 80027fc:	8002ca40 	call	8002ca4 <__addsf3>
 8002800:	1027883a 	mov	r19,r2
 8002804:	a809883a 	mov	r4,r21
 8002808:	014fc034 	movhi	r5,16128
 800280c:	80002426 	beq	r16,zero,80028a0 <__kernel_sinf+0x180>
 8002810:	8002d080 	call	8002d08 <__mulsf3>
 8002814:	a009883a 	mov	r4,r20
 8002818:	980b883a 	mov	r5,r19
 800281c:	1021883a 	mov	r16,r2
 8002820:	8002d080 	call	8002d08 <__mulsf3>
 8002824:	100b883a 	mov	r5,r2
 8002828:	8009883a 	mov	r4,r16
 800282c:	8002c340 	call	8002c34 <__subsf3>
 8002830:	100b883a 	mov	r5,r2
 8002834:	8809883a 	mov	r4,r17
 8002838:	8002d080 	call	8002d08 <__mulsf3>
 800283c:	1009883a 	mov	r4,r2
 8002840:	a80b883a 	mov	r5,r21
 8002844:	8002c340 	call	8002c34 <__subsf3>
 8002848:	a009883a 	mov	r4,r20
 800284c:	014f8af4 	movhi	r5,15915
 8002850:	296aaac4 	addi	r5,r5,-21845
 8002854:	1021883a 	mov	r16,r2
 8002858:	8002d080 	call	8002d08 <__mulsf3>
 800285c:	100b883a 	mov	r5,r2
 8002860:	8009883a 	mov	r4,r16
 8002864:	8002ca40 	call	8002ca4 <__addsf3>
 8002868:	100b883a 	mov	r5,r2
 800286c:	9009883a 	mov	r4,r18
 8002870:	8002c340 	call	8002c34 <__subsf3>
 8002874:	1025883a 	mov	r18,r2
 8002878:	9005883a 	mov	r2,r18
 800287c:	dfc00617 	ldw	ra,24(sp)
 8002880:	dd400517 	ldw	r21,20(sp)
 8002884:	dd000417 	ldw	r20,16(sp)
 8002888:	dcc00317 	ldw	r19,12(sp)
 800288c:	dc800217 	ldw	r18,8(sp)
 8002890:	dc400117 	ldw	r17,4(sp)
 8002894:	dc000017 	ldw	r16,0(sp)
 8002898:	dec00704 	addi	sp,sp,28
 800289c:	f800283a 	ret
 80028a0:	100b883a 	mov	r5,r2
 80028a4:	8809883a 	mov	r4,r17
 80028a8:	8002d080 	call	8002d08 <__mulsf3>
 80028ac:	1009883a 	mov	r4,r2
 80028b0:	014f8af4 	movhi	r5,15915
 80028b4:	296aaac4 	addi	r5,r5,-21845
 80028b8:	8002c340 	call	8002c34 <__subsf3>
 80028bc:	100b883a 	mov	r5,r2
 80028c0:	a009883a 	mov	r4,r20
 80028c4:	8002d080 	call	8002d08 <__mulsf3>
 80028c8:	100b883a 	mov	r5,r2
 80028cc:	9009883a 	mov	r4,r18
 80028d0:	8002ca40 	call	8002ca4 <__addsf3>
 80028d4:	1025883a 	mov	r18,r2
 80028d8:	003fe706 	br	8002878 <__kernel_sinf+0x158>

080028dc <fabsf>:
 80028dc:	00a00034 	movhi	r2,32768
 80028e0:	10bfffc4 	addi	r2,r2,-1
 80028e4:	2084703a 	and	r2,r4,r2
 80028e8:	f800283a 	ret

080028ec <scalbnf>:
 80028ec:	00a00034 	movhi	r2,32768
 80028f0:	10bfffc4 	addi	r2,r2,-1
 80028f4:	defffe04 	addi	sp,sp,-8
 80028f8:	2086703a 	and	r3,r4,r2
 80028fc:	dc000015 	stw	r16,0(sp)
 8002900:	dfc00115 	stw	ra,4(sp)
 8002904:	200d883a 	mov	r6,r4
 8002908:	200f883a 	mov	r7,r4
 800290c:	2821883a 	mov	r16,r5
 8002910:	18001a26 	beq	r3,zero,800297c <scalbnf+0x90>
 8002914:	009fe034 	movhi	r2,32640
 8002918:	10bfffc4 	addi	r2,r2,-1
 800291c:	10c01c36 	bltu	r2,r3,8002990 <scalbnf+0xa4>
 8002920:	00802034 	movhi	r2,128
 8002924:	10bfffc4 	addi	r2,r2,-1
 8002928:	10c02136 	bltu	r2,r3,80029b0 <scalbnf+0xc4>
 800292c:	01530034 	movhi	r5,19456
 8002930:	8002d080 	call	8002d08 <__mulsf3>
 8002934:	1009883a 	mov	r4,r2
 8002938:	100d883a 	mov	r6,r2
 800293c:	00bffff4 	movhi	r2,65535
 8002940:	108f2c04 	addi	r2,r2,15536
 8002944:	80802616 	blt	r16,r2,80029e0 <scalbnf+0xf4>
 8002948:	209fe02c 	andhi	r2,r4,32640
 800294c:	1005d5fa 	srai	r2,r2,23
 8002950:	200f883a 	mov	r7,r4
 8002954:	10bff9c4 	addi	r2,r2,-25
 8002958:	1407883a 	add	r3,r2,r16
 800295c:	00803f84 	movi	r2,254
 8002960:	10c01516 	blt	r2,r3,80029b8 <scalbnf+0xcc>
 8002964:	00c0230e 	bge	zero,r3,80029f4 <scalbnf+0x108>
 8002968:	180695fa 	slli	r3,r3,23
 800296c:	00a02034 	movhi	r2,32896
 8002970:	10bfffc4 	addi	r2,r2,-1
 8002974:	3884703a 	and	r2,r7,r2
 8002978:	10ccb03a 	or	r6,r2,r3
 800297c:	3005883a 	mov	r2,r6
 8002980:	dfc00117 	ldw	ra,4(sp)
 8002984:	dc000017 	ldw	r16,0(sp)
 8002988:	dec00204 	addi	sp,sp,8
 800298c:	f800283a 	ret
 8002990:	200b883a 	mov	r5,r4
 8002994:	8002ca40 	call	8002ca4 <__addsf3>
 8002998:	100d883a 	mov	r6,r2
 800299c:	3005883a 	mov	r2,r6
 80029a0:	dfc00117 	ldw	ra,4(sp)
 80029a4:	dc000017 	ldw	r16,0(sp)
 80029a8:	dec00204 	addi	sp,sp,8
 80029ac:	f800283a 	ret
 80029b0:	1804d5fa 	srli	r2,r3,23
 80029b4:	003fe806 	br	8002958 <scalbnf+0x6c>
 80029b8:	041c52b4 	movhi	r16,29002
 80029bc:	843cb284 	addi	r16,r16,-3382
 80029c0:	300b883a 	mov	r5,r6
 80029c4:	8009883a 	mov	r4,r16
 80029c8:	8002a380 	call	8002a38 <copysignf>
 80029cc:	1009883a 	mov	r4,r2
 80029d0:	800b883a 	mov	r5,r16
 80029d4:	8002d080 	call	8002d08 <__mulsf3>
 80029d8:	100d883a 	mov	r6,r2
 80029dc:	003fe706 	br	800297c <scalbnf+0x90>
 80029e0:	014368b4 	movhi	r5,3490
 80029e4:	29509804 	addi	r5,r5,16992
 80029e8:	8002d080 	call	8002d08 <__mulsf3>
 80029ec:	100d883a 	mov	r6,r2
 80029f0:	003fe206 	br	800297c <scalbnf+0x90>
 80029f4:	00bffa84 	movi	r2,-22
 80029f8:	1880050e 	bge	r3,r2,8002a10 <scalbnf+0x124>
 80029fc:	00b0d414 	movui	r2,50000
 8002a00:	143fed16 	blt	r2,r16,80029b8 <scalbnf+0xcc>
 8002a04:	040368b4 	movhi	r16,3490
 8002a08:	84109804 	addi	r16,r16,16992
 8002a0c:	003fec06 	br	80029c0 <scalbnf+0xd4>
 8002a10:	18800644 	addi	r2,r3,25
 8002a14:	100495fa 	slli	r2,r2,23
 8002a18:	01202034 	movhi	r4,32896
 8002a1c:	213fffc4 	addi	r4,r4,-1
 8002a20:	3908703a 	and	r4,r7,r4
 8002a24:	2088b03a 	or	r4,r4,r2
 8002a28:	014cc034 	movhi	r5,13056
 8002a2c:	8002d080 	call	8002d08 <__mulsf3>
 8002a30:	100d883a 	mov	r6,r2
 8002a34:	003fd106 	br	800297c <scalbnf+0x90>

08002a38 <copysignf>:
 8002a38:	00a00034 	movhi	r2,32768
 8002a3c:	10bfffc4 	addi	r2,r2,-1
 8002a40:	2088703a 	and	r4,r4,r2
 8002a44:	28a0002c 	andhi	r2,r5,32768
 8002a48:	2084b03a 	or	r2,r4,r2
 8002a4c:	f800283a 	ret

08002a50 <_fpadd_parts>:
 8002a50:	21c00017 	ldw	r7,0(r4)
 8002a54:	02000044 	movi	r8,1
 8002a58:	41c0332e 	bgeu	r8,r7,8002b28 <_fpadd_parts+0xd8>
 8002a5c:	28800017 	ldw	r2,0(r5)
 8002a60:	4080462e 	bgeu	r8,r2,8002b7c <_fpadd_parts+0x12c>
 8002a64:	00c00104 	movi	r3,4
 8002a68:	38c06b26 	beq	r7,r3,8002c18 <_fpadd_parts+0x1c8>
 8002a6c:	10c04326 	beq	r2,r3,8002b7c <_fpadd_parts+0x12c>
 8002a70:	00c00084 	movi	r3,2
 8002a74:	10c02e26 	beq	r2,r3,8002b30 <_fpadd_parts+0xe0>
 8002a78:	38c04026 	beq	r7,r3,8002b7c <_fpadd_parts+0x12c>
 8002a7c:	22800217 	ldw	r10,8(r4)
 8002a80:	28c00217 	ldw	r3,8(r5)
 8002a84:	23000317 	ldw	r12,12(r4)
 8002a88:	2a400317 	ldw	r9,12(r5)
 8002a8c:	50cfc83a 	sub	r7,r10,r3
 8002a90:	3817883a 	mov	r11,r7
 8002a94:	38004f16 	blt	r7,zero,8002bd4 <_fpadd_parts+0x184>
 8002a98:	008007c4 	movi	r2,31
 8002a9c:	11c03316 	blt	r2,r7,8002b6c <_fpadd_parts+0x11c>
 8002aa0:	02c0540e 	bge	zero,r11,8002bf4 <_fpadd_parts+0x1a4>
 8002aa4:	41c4983a 	sll	r2,r8,r7
 8002aa8:	49c6d83a 	srl	r3,r9,r7
 8002aac:	10bfffc4 	addi	r2,r2,-1
 8002ab0:	4884703a 	and	r2,r9,r2
 8002ab4:	1004c03a 	cmpne	r2,r2,zero
 8002ab8:	1892b03a 	or	r9,r3,r2
 8002abc:	20c00117 	ldw	r3,4(r4)
 8002ac0:	28800117 	ldw	r2,4(r5)
 8002ac4:	18803c26 	beq	r3,r2,8002bb8 <_fpadd_parts+0x168>
 8002ac8:	18002f26 	beq	r3,zero,8002b88 <_fpadd_parts+0x138>
 8002acc:	4b05c83a 	sub	r2,r9,r12
 8002ad0:	10004216 	blt	r2,zero,8002bdc <_fpadd_parts+0x18c>
 8002ad4:	32800215 	stw	r10,8(r6)
 8002ad8:	30800315 	stw	r2,12(r6)
 8002adc:	30000115 	stw	zero,4(r6)
 8002ae0:	31000317 	ldw	r4,12(r6)
 8002ae4:	01d00034 	movhi	r7,16384
 8002ae8:	39ffff84 	addi	r7,r7,-2
 8002aec:	20bfffc4 	addi	r2,r4,-1
 8002af0:	2007883a 	mov	r3,r4
 8002af4:	38800836 	bltu	r7,r2,8002b18 <_fpadd_parts+0xc8>
 8002af8:	31400217 	ldw	r5,8(r6)
 8002afc:	18c9883a 	add	r4,r3,r3
 8002b00:	20bfffc4 	addi	r2,r4,-1
 8002b04:	297fffc4 	addi	r5,r5,-1
 8002b08:	2007883a 	mov	r3,r4
 8002b0c:	38bffb2e 	bgeu	r7,r2,8002afc <_fpadd_parts+0xac>
 8002b10:	31400215 	stw	r5,8(r6)
 8002b14:	31000315 	stw	r4,12(r6)
 8002b18:	008000c4 	movi	r2,3
 8002b1c:	30800015 	stw	r2,0(r6)
 8002b20:	20001b16 	blt	r4,zero,8002b90 <_fpadd_parts+0x140>
 8002b24:	3009883a 	mov	r4,r6
 8002b28:	2005883a 	mov	r2,r4
 8002b2c:	f800283a 	ret
 8002b30:	38fffd1e 	bne	r7,r3,8002b28 <_fpadd_parts+0xd8>
 8002b34:	31c00015 	stw	r7,0(r6)
 8002b38:	20800117 	ldw	r2,4(r4)
 8002b3c:	30800115 	stw	r2,4(r6)
 8002b40:	20c00217 	ldw	r3,8(r4)
 8002b44:	30c00215 	stw	r3,8(r6)
 8002b48:	20800317 	ldw	r2,12(r4)
 8002b4c:	30800315 	stw	r2,12(r6)
 8002b50:	20c00117 	ldw	r3,4(r4)
 8002b54:	28800117 	ldw	r2,4(r5)
 8002b58:	3009883a 	mov	r4,r6
 8002b5c:	1886703a 	and	r3,r3,r2
 8002b60:	2005883a 	mov	r2,r4
 8002b64:	30c00115 	stw	r3,4(r6)
 8002b68:	f800283a 	ret
 8002b6c:	1a801716 	blt	r3,r10,8002bcc <_fpadd_parts+0x17c>
 8002b70:	1815883a 	mov	r10,r3
 8002b74:	0019883a 	mov	r12,zero
 8002b78:	003fd006 	br	8002abc <_fpadd_parts+0x6c>
 8002b7c:	2809883a 	mov	r4,r5
 8002b80:	2005883a 	mov	r2,r4
 8002b84:	f800283a 	ret
 8002b88:	6245c83a 	sub	r2,r12,r9
 8002b8c:	003fd006 	br	8002ad0 <_fpadd_parts+0x80>
 8002b90:	30800217 	ldw	r2,8(r6)
 8002b94:	2006d07a 	srli	r3,r4,1
 8002b98:	2100004c 	andi	r4,r4,1
 8002b9c:	10800044 	addi	r2,r2,1
 8002ba0:	1906b03a 	or	r3,r3,r4
 8002ba4:	3009883a 	mov	r4,r6
 8002ba8:	30800215 	stw	r2,8(r6)
 8002bac:	2005883a 	mov	r2,r4
 8002bb0:	30c00315 	stw	r3,12(r6)
 8002bb4:	f800283a 	ret
 8002bb8:	4b09883a 	add	r4,r9,r12
 8002bbc:	30c00115 	stw	r3,4(r6)
 8002bc0:	32800215 	stw	r10,8(r6)
 8002bc4:	31000315 	stw	r4,12(r6)
 8002bc8:	003fd306 	br	8002b18 <_fpadd_parts+0xc8>
 8002bcc:	0013883a 	mov	r9,zero
 8002bd0:	003fba06 	br	8002abc <_fpadd_parts+0x6c>
 8002bd4:	01cfc83a 	sub	r7,zero,r7
 8002bd8:	003faf06 	br	8002a98 <_fpadd_parts+0x48>
 8002bdc:	0089c83a 	sub	r4,zero,r2
 8002be0:	00800044 	movi	r2,1
 8002be4:	30800115 	stw	r2,4(r6)
 8002be8:	32800215 	stw	r10,8(r6)
 8002bec:	31000315 	stw	r4,12(r6)
 8002bf0:	003fbb06 	br	8002ae0 <_fpadd_parts+0x90>
 8002bf4:	583fb126 	beq	r11,zero,8002abc <_fpadd_parts+0x6c>
 8002bf8:	41c4983a 	sll	r2,r8,r7
 8002bfc:	61c6d83a 	srl	r3,r12,r7
 8002c00:	51d5883a 	add	r10,r10,r7
 8002c04:	10bfffc4 	addi	r2,r2,-1
 8002c08:	6084703a 	and	r2,r12,r2
 8002c0c:	1004c03a 	cmpne	r2,r2,zero
 8002c10:	1898b03a 	or	r12,r3,r2
 8002c14:	003fa906 	br	8002abc <_fpadd_parts+0x6c>
 8002c18:	11ffc31e 	bne	r2,r7,8002b28 <_fpadd_parts+0xd8>
 8002c1c:	28c00117 	ldw	r3,4(r5)
 8002c20:	20800117 	ldw	r2,4(r4)
 8002c24:	10ffc026 	beq	r2,r3,8002b28 <_fpadd_parts+0xd8>
 8002c28:	01020074 	movhi	r4,2049
 8002c2c:	211d0604 	addi	r4,r4,29720
 8002c30:	003fbd06 	br	8002b28 <_fpadd_parts+0xd8>

08002c34 <__subsf3>:
 8002c34:	deffef04 	addi	sp,sp,-68
 8002c38:	dcc00f15 	stw	r19,60(sp)
 8002c3c:	dcc00204 	addi	r19,sp,8
 8002c40:	dc400e15 	stw	r17,56(sp)
 8002c44:	d9000015 	stw	r4,0(sp)
 8002c48:	d9400115 	stw	r5,4(sp)
 8002c4c:	d809883a 	mov	r4,sp
 8002c50:	980b883a 	mov	r5,r19
 8002c54:	dc400604 	addi	r17,sp,24
 8002c58:	dfc01015 	stw	ra,64(sp)
 8002c5c:	80036bc0 	call	80036bc <__unpack_f>
 8002c60:	d9000104 	addi	r4,sp,4
 8002c64:	880b883a 	mov	r5,r17
 8002c68:	80036bc0 	call	80036bc <__unpack_f>
 8002c6c:	d8800717 	ldw	r2,28(sp)
 8002c70:	9809883a 	mov	r4,r19
 8002c74:	880b883a 	mov	r5,r17
 8002c78:	d9800a04 	addi	r6,sp,40
 8002c7c:	1080005c 	xori	r2,r2,1
 8002c80:	d8800715 	stw	r2,28(sp)
 8002c84:	8002a500 	call	8002a50 <_fpadd_parts>
 8002c88:	1009883a 	mov	r4,r2
 8002c8c:	800355c0 	call	800355c <__pack_f>
 8002c90:	dfc01017 	ldw	ra,64(sp)
 8002c94:	dcc00f17 	ldw	r19,60(sp)
 8002c98:	dc400e17 	ldw	r17,56(sp)
 8002c9c:	dec01104 	addi	sp,sp,68
 8002ca0:	f800283a 	ret

08002ca4 <__addsf3>:
 8002ca4:	deffef04 	addi	sp,sp,-68
 8002ca8:	dcc00f15 	stw	r19,60(sp)
 8002cac:	dcc00204 	addi	r19,sp,8
 8002cb0:	dc400e15 	stw	r17,56(sp)
 8002cb4:	d9000015 	stw	r4,0(sp)
 8002cb8:	d9400115 	stw	r5,4(sp)
 8002cbc:	d809883a 	mov	r4,sp
 8002cc0:	980b883a 	mov	r5,r19
 8002cc4:	dc400604 	addi	r17,sp,24
 8002cc8:	dfc01015 	stw	ra,64(sp)
 8002ccc:	80036bc0 	call	80036bc <__unpack_f>
 8002cd0:	d9000104 	addi	r4,sp,4
 8002cd4:	880b883a 	mov	r5,r17
 8002cd8:	80036bc0 	call	80036bc <__unpack_f>
 8002cdc:	d9800a04 	addi	r6,sp,40
 8002ce0:	9809883a 	mov	r4,r19
 8002ce4:	880b883a 	mov	r5,r17
 8002ce8:	8002a500 	call	8002a50 <_fpadd_parts>
 8002cec:	1009883a 	mov	r4,r2
 8002cf0:	800355c0 	call	800355c <__pack_f>
 8002cf4:	dfc01017 	ldw	ra,64(sp)
 8002cf8:	dcc00f17 	ldw	r19,60(sp)
 8002cfc:	dc400e17 	ldw	r17,56(sp)
 8002d00:	dec01104 	addi	sp,sp,68
 8002d04:	f800283a 	ret

08002d08 <__mulsf3>:
 8002d08:	deffef04 	addi	sp,sp,-68
 8002d0c:	dc400f15 	stw	r17,60(sp)
 8002d10:	dc400204 	addi	r17,sp,8
 8002d14:	dc000e15 	stw	r16,56(sp)
 8002d18:	d9000015 	stw	r4,0(sp)
 8002d1c:	d9400115 	stw	r5,4(sp)
 8002d20:	d809883a 	mov	r4,sp
 8002d24:	880b883a 	mov	r5,r17
 8002d28:	dc000604 	addi	r16,sp,24
 8002d2c:	dfc01015 	stw	ra,64(sp)
 8002d30:	80036bc0 	call	80036bc <__unpack_f>
 8002d34:	d9000104 	addi	r4,sp,4
 8002d38:	800b883a 	mov	r5,r16
 8002d3c:	80036bc0 	call	80036bc <__unpack_f>
 8002d40:	d9000217 	ldw	r4,8(sp)
 8002d44:	00800044 	movi	r2,1
 8002d48:	01400104 	movi	r5,4
 8002d4c:	1100142e 	bgeu	r2,r4,8002da0 <__mulsf3+0x98>
 8002d50:	d8c00617 	ldw	r3,24(sp)
 8002d54:	10c0052e 	bgeu	r2,r3,8002d6c <__mulsf3+0x64>
 8002d58:	21400f26 	beq	r4,r5,8002d98 <__mulsf3+0x90>
 8002d5c:	19405d26 	beq	r3,r5,8002ed4 <__mulsf3+0x1cc>
 8002d60:	00800084 	movi	r2,2
 8002d64:	20800e26 	beq	r4,r2,8002da0 <__mulsf3+0x98>
 8002d68:	1880181e 	bne	r3,r2,8002dcc <__mulsf3+0xc4>
 8002d6c:	d8c00717 	ldw	r3,28(sp)
 8002d70:	d8800317 	ldw	r2,12(sp)
 8002d74:	8009883a 	mov	r4,r16
 8002d78:	10c4c03a 	cmpne	r2,r2,r3
 8002d7c:	d8800715 	stw	r2,28(sp)
 8002d80:	800355c0 	call	800355c <__pack_f>
 8002d84:	dfc01017 	ldw	ra,64(sp)
 8002d88:	dc400f17 	ldw	r17,60(sp)
 8002d8c:	dc000e17 	ldw	r16,56(sp)
 8002d90:	dec01104 	addi	sp,sp,68
 8002d94:	f800283a 	ret
 8002d98:	00800084 	movi	r2,2
 8002d9c:	18804f26 	beq	r3,r2,8002edc <__mulsf3+0x1d4>
 8002da0:	d8800317 	ldw	r2,12(sp)
 8002da4:	d8c00717 	ldw	r3,28(sp)
 8002da8:	8809883a 	mov	r4,r17
 8002dac:	10c4c03a 	cmpne	r2,r2,r3
 8002db0:	d8800315 	stw	r2,12(sp)
 8002db4:	800355c0 	call	800355c <__pack_f>
 8002db8:	dfc01017 	ldw	ra,64(sp)
 8002dbc:	dc400f17 	ldw	r17,60(sp)
 8002dc0:	dc000e17 	ldw	r16,56(sp)
 8002dc4:	dec01104 	addi	sp,sp,68
 8002dc8:	f800283a 	ret
 8002dcc:	d8800517 	ldw	r2,20(sp)
 8002dd0:	da000917 	ldw	r8,36(sp)
 8002dd4:	0013883a 	mov	r9,zero
 8002dd8:	0007883a 	mov	r3,zero
 8002ddc:	480f883a 	mov	r7,r9
 8002de0:	180b883a 	mov	r5,r3
 8002de4:	400d883a 	mov	r6,r8
 8002de8:	1009883a 	mov	r4,r2
 8002dec:	80034440 	call	8003444 <__muldi3>
 8002df0:	da800417 	ldw	r10,16(sp)
 8002df4:	d9800817 	ldw	r6,32(sp)
 8002df8:	da400317 	ldw	r9,12(sp)
 8002dfc:	52800084 	addi	r10,r10,2
 8002e00:	3295883a 	add	r10,r6,r10
 8002e04:	d9800717 	ldw	r6,28(sp)
 8002e08:	180b883a 	mov	r5,r3
 8002e0c:	180f883a 	mov	r7,r3
 8002e10:	4992c03a 	cmpne	r9,r9,r6
 8002e14:	da400b15 	stw	r9,44(sp)
 8002e18:	1007883a 	mov	r3,r2
 8002e1c:	da800c15 	stw	r10,48(sp)
 8002e20:	2800070e 	bge	r5,zero,8002e40 <__mulsf3+0x138>
 8002e24:	2880004c 	andi	r2,r5,1
 8002e28:	1005003a 	cmpeq	r2,r2,zero
 8002e2c:	500d883a 	mov	r6,r10
 8002e30:	10001e26 	beq	r2,zero,8002eac <__mulsf3+0x1a4>
 8002e34:	380ed07a 	srli	r7,r7,1
 8002e38:	31800044 	addi	r6,r6,1
 8002e3c:	d9800c15 	stw	r6,48(sp)
 8002e40:	01100034 	movhi	r4,16384
 8002e44:	213fffc4 	addi	r4,r4,-1
 8002e48:	21c00b36 	bltu	r4,r7,8002e78 <__mulsf3+0x170>
 8002e4c:	d8800c17 	ldw	r2,48(sp)
 8002e50:	00000206 	br	8002e5c <__mulsf3+0x154>
 8002e54:	18c7883a 	add	r3,r3,r3
 8002e58:	21c00636 	bltu	r4,r7,8002e74 <__mulsf3+0x16c>
 8002e5c:	10bfffc4 	addi	r2,r2,-1
 8002e60:	39cf883a 	add	r7,r7,r7
 8002e64:	183ffb0e 	bge	r3,zero,8002e54 <__mulsf3+0x14c>
 8002e68:	39c00054 	ori	r7,r7,1
 8002e6c:	18c7883a 	add	r3,r3,r3
 8002e70:	21fffa2e 	bgeu	r4,r7,8002e5c <__mulsf3+0x154>
 8002e74:	d8800c15 	stw	r2,48(sp)
 8002e78:	39001fcc 	andi	r4,r7,127
 8002e7c:	00801004 	movi	r2,64
 8002e80:	20800d26 	beq	r4,r2,8002eb8 <__mulsf3+0x1b0>
 8002e84:	008000c4 	movi	r2,3
 8002e88:	d9000a04 	addi	r4,sp,40
 8002e8c:	d9c00d15 	stw	r7,52(sp)
 8002e90:	d8800a15 	stw	r2,40(sp)
 8002e94:	800355c0 	call	800355c <__pack_f>
 8002e98:	dfc01017 	ldw	ra,64(sp)
 8002e9c:	dc400f17 	ldw	r17,60(sp)
 8002ea0:	dc000e17 	ldw	r16,56(sp)
 8002ea4:	dec01104 	addi	sp,sp,68
 8002ea8:	f800283a 	ret
 8002eac:	1804d07a 	srli	r2,r3,1
 8002eb0:	10e00034 	orhi	r3,r2,32768
 8002eb4:	003fdf06 	br	8002e34 <__mulsf3+0x12c>
 8002eb8:	3880200c 	andi	r2,r7,128
 8002ebc:	103ff11e 	bne	r2,zero,8002e84 <__mulsf3+0x17c>
 8002ec0:	183ff026 	beq	r3,zero,8002e84 <__mulsf3+0x17c>
 8002ec4:	3907883a 	add	r3,r7,r4
 8002ec8:	00bfe004 	movi	r2,-128
 8002ecc:	188e703a 	and	r7,r3,r2
 8002ed0:	003fec06 	br	8002e84 <__mulsf3+0x17c>
 8002ed4:	00800084 	movi	r2,2
 8002ed8:	20bfa41e 	bne	r4,r2,8002d6c <__mulsf3+0x64>
 8002edc:	01020074 	movhi	r4,2049
 8002ee0:	211d0604 	addi	r4,r4,29720
 8002ee4:	003fb306 	br	8002db4 <__mulsf3+0xac>

08002ee8 <__eqsf2>:
 8002ee8:	defff304 	addi	sp,sp,-52
 8002eec:	dc400b15 	stw	r17,44(sp)
 8002ef0:	dc400204 	addi	r17,sp,8
 8002ef4:	dc000a15 	stw	r16,40(sp)
 8002ef8:	d9000015 	stw	r4,0(sp)
 8002efc:	d9400115 	stw	r5,4(sp)
 8002f00:	d809883a 	mov	r4,sp
 8002f04:	880b883a 	mov	r5,r17
 8002f08:	dc000604 	addi	r16,sp,24
 8002f0c:	dfc00c15 	stw	ra,48(sp)
 8002f10:	80036bc0 	call	80036bc <__unpack_f>
 8002f14:	d9000104 	addi	r4,sp,4
 8002f18:	800b883a 	mov	r5,r16
 8002f1c:	80036bc0 	call	80036bc <__unpack_f>
 8002f20:	d8800217 	ldw	r2,8(sp)
 8002f24:	00c00044 	movi	r3,1
 8002f28:	180d883a 	mov	r6,r3
 8002f2c:	1880062e 	bgeu	r3,r2,8002f48 <__eqsf2+0x60>
 8002f30:	d8800617 	ldw	r2,24(sp)
 8002f34:	8809883a 	mov	r4,r17
 8002f38:	800b883a 	mov	r5,r16
 8002f3c:	1880022e 	bgeu	r3,r2,8002f48 <__eqsf2+0x60>
 8002f40:	80037840 	call	8003784 <__fpcmp_parts_f>
 8002f44:	100d883a 	mov	r6,r2
 8002f48:	3005883a 	mov	r2,r6
 8002f4c:	dfc00c17 	ldw	ra,48(sp)
 8002f50:	dc400b17 	ldw	r17,44(sp)
 8002f54:	dc000a17 	ldw	r16,40(sp)
 8002f58:	dec00d04 	addi	sp,sp,52
 8002f5c:	f800283a 	ret

08002f60 <__gtsf2>:
 8002f60:	defff304 	addi	sp,sp,-52
 8002f64:	dc400b15 	stw	r17,44(sp)
 8002f68:	dc400204 	addi	r17,sp,8
 8002f6c:	dc000a15 	stw	r16,40(sp)
 8002f70:	d9000015 	stw	r4,0(sp)
 8002f74:	d9400115 	stw	r5,4(sp)
 8002f78:	d809883a 	mov	r4,sp
 8002f7c:	880b883a 	mov	r5,r17
 8002f80:	dc000604 	addi	r16,sp,24
 8002f84:	dfc00c15 	stw	ra,48(sp)
 8002f88:	80036bc0 	call	80036bc <__unpack_f>
 8002f8c:	d9000104 	addi	r4,sp,4
 8002f90:	800b883a 	mov	r5,r16
 8002f94:	80036bc0 	call	80036bc <__unpack_f>
 8002f98:	d8800217 	ldw	r2,8(sp)
 8002f9c:	00c00044 	movi	r3,1
 8002fa0:	01bfffc4 	movi	r6,-1
 8002fa4:	1880062e 	bgeu	r3,r2,8002fc0 <__gtsf2+0x60>
 8002fa8:	d8800617 	ldw	r2,24(sp)
 8002fac:	8809883a 	mov	r4,r17
 8002fb0:	800b883a 	mov	r5,r16
 8002fb4:	1880022e 	bgeu	r3,r2,8002fc0 <__gtsf2+0x60>
 8002fb8:	80037840 	call	8003784 <__fpcmp_parts_f>
 8002fbc:	100d883a 	mov	r6,r2
 8002fc0:	3005883a 	mov	r2,r6
 8002fc4:	dfc00c17 	ldw	ra,48(sp)
 8002fc8:	dc400b17 	ldw	r17,44(sp)
 8002fcc:	dc000a17 	ldw	r16,40(sp)
 8002fd0:	dec00d04 	addi	sp,sp,52
 8002fd4:	f800283a 	ret

08002fd8 <__gesf2>:
 8002fd8:	defff304 	addi	sp,sp,-52
 8002fdc:	dc400b15 	stw	r17,44(sp)
 8002fe0:	dc400204 	addi	r17,sp,8
 8002fe4:	dc000a15 	stw	r16,40(sp)
 8002fe8:	d9000015 	stw	r4,0(sp)
 8002fec:	d9400115 	stw	r5,4(sp)
 8002ff0:	d809883a 	mov	r4,sp
 8002ff4:	880b883a 	mov	r5,r17
 8002ff8:	dc000604 	addi	r16,sp,24
 8002ffc:	dfc00c15 	stw	ra,48(sp)
 8003000:	80036bc0 	call	80036bc <__unpack_f>
 8003004:	d9000104 	addi	r4,sp,4
 8003008:	800b883a 	mov	r5,r16
 800300c:	80036bc0 	call	80036bc <__unpack_f>
 8003010:	d8800217 	ldw	r2,8(sp)
 8003014:	00c00044 	movi	r3,1
 8003018:	01bfffc4 	movi	r6,-1
 800301c:	1880062e 	bgeu	r3,r2,8003038 <__gesf2+0x60>
 8003020:	d8800617 	ldw	r2,24(sp)
 8003024:	8809883a 	mov	r4,r17
 8003028:	800b883a 	mov	r5,r16
 800302c:	1880022e 	bgeu	r3,r2,8003038 <__gesf2+0x60>
 8003030:	80037840 	call	8003784 <__fpcmp_parts_f>
 8003034:	100d883a 	mov	r6,r2
 8003038:	3005883a 	mov	r2,r6
 800303c:	dfc00c17 	ldw	ra,48(sp)
 8003040:	dc400b17 	ldw	r17,44(sp)
 8003044:	dc000a17 	ldw	r16,40(sp)
 8003048:	dec00d04 	addi	sp,sp,52
 800304c:	f800283a 	ret

08003050 <__ltsf2>:
 8003050:	defff304 	addi	sp,sp,-52
 8003054:	dc400b15 	stw	r17,44(sp)
 8003058:	dc400204 	addi	r17,sp,8
 800305c:	dc000a15 	stw	r16,40(sp)
 8003060:	d9000015 	stw	r4,0(sp)
 8003064:	d9400115 	stw	r5,4(sp)
 8003068:	d809883a 	mov	r4,sp
 800306c:	880b883a 	mov	r5,r17
 8003070:	dc000604 	addi	r16,sp,24
 8003074:	dfc00c15 	stw	ra,48(sp)
 8003078:	80036bc0 	call	80036bc <__unpack_f>
 800307c:	d9000104 	addi	r4,sp,4
 8003080:	800b883a 	mov	r5,r16
 8003084:	80036bc0 	call	80036bc <__unpack_f>
 8003088:	d8800217 	ldw	r2,8(sp)
 800308c:	00c00044 	movi	r3,1
 8003090:	180d883a 	mov	r6,r3
 8003094:	1880062e 	bgeu	r3,r2,80030b0 <__ltsf2+0x60>
 8003098:	d8800617 	ldw	r2,24(sp)
 800309c:	8809883a 	mov	r4,r17
 80030a0:	800b883a 	mov	r5,r16
 80030a4:	1880022e 	bgeu	r3,r2,80030b0 <__ltsf2+0x60>
 80030a8:	80037840 	call	8003784 <__fpcmp_parts_f>
 80030ac:	100d883a 	mov	r6,r2
 80030b0:	3005883a 	mov	r2,r6
 80030b4:	dfc00c17 	ldw	ra,48(sp)
 80030b8:	dc400b17 	ldw	r17,44(sp)
 80030bc:	dc000a17 	ldw	r16,40(sp)
 80030c0:	dec00d04 	addi	sp,sp,52
 80030c4:	f800283a 	ret

080030c8 <__lesf2>:
 80030c8:	defff304 	addi	sp,sp,-52
 80030cc:	dc400b15 	stw	r17,44(sp)
 80030d0:	dc400204 	addi	r17,sp,8
 80030d4:	dc000a15 	stw	r16,40(sp)
 80030d8:	d9000015 	stw	r4,0(sp)
 80030dc:	d9400115 	stw	r5,4(sp)
 80030e0:	d809883a 	mov	r4,sp
 80030e4:	880b883a 	mov	r5,r17
 80030e8:	dc000604 	addi	r16,sp,24
 80030ec:	dfc00c15 	stw	ra,48(sp)
 80030f0:	80036bc0 	call	80036bc <__unpack_f>
 80030f4:	d9000104 	addi	r4,sp,4
 80030f8:	800b883a 	mov	r5,r16
 80030fc:	80036bc0 	call	80036bc <__unpack_f>
 8003100:	d8800217 	ldw	r2,8(sp)
 8003104:	00c00044 	movi	r3,1
 8003108:	180d883a 	mov	r6,r3
 800310c:	1880062e 	bgeu	r3,r2,8003128 <__lesf2+0x60>
 8003110:	d8800617 	ldw	r2,24(sp)
 8003114:	8809883a 	mov	r4,r17
 8003118:	800b883a 	mov	r5,r16
 800311c:	1880022e 	bgeu	r3,r2,8003128 <__lesf2+0x60>
 8003120:	80037840 	call	8003784 <__fpcmp_parts_f>
 8003124:	100d883a 	mov	r6,r2
 8003128:	3005883a 	mov	r2,r6
 800312c:	dfc00c17 	ldw	ra,48(sp)
 8003130:	dc400b17 	ldw	r17,44(sp)
 8003134:	dc000a17 	ldw	r16,40(sp)
 8003138:	dec00d04 	addi	sp,sp,52
 800313c:	f800283a 	ret

08003140 <__floatsisf>:
 8003140:	2006d7fa 	srli	r3,r4,31
 8003144:	defffa04 	addi	sp,sp,-24
 8003148:	008000c4 	movi	r2,3
 800314c:	dfc00515 	stw	ra,20(sp)
 8003150:	dc000415 	stw	r16,16(sp)
 8003154:	d8800015 	stw	r2,0(sp)
 8003158:	d8c00115 	stw	r3,4(sp)
 800315c:	2000081e 	bne	r4,zero,8003180 <__floatsisf+0x40>
 8003160:	00800084 	movi	r2,2
 8003164:	d8800015 	stw	r2,0(sp)
 8003168:	d809883a 	mov	r4,sp
 800316c:	800355c0 	call	800355c <__pack_f>
 8003170:	dfc00517 	ldw	ra,20(sp)
 8003174:	dc000417 	ldw	r16,16(sp)
 8003178:	dec00604 	addi	sp,sp,24
 800317c:	f800283a 	ret
 8003180:	00800784 	movi	r2,30
 8003184:	1807003a 	cmpeq	r3,r3,zero
 8003188:	d8800215 	stw	r2,8(sp)
 800318c:	18000e1e 	bne	r3,zero,80031c8 <__floatsisf+0x88>
 8003190:	00a00034 	movhi	r2,32768
 8003194:	20800e26 	beq	r4,r2,80031d0 <__floatsisf+0x90>
 8003198:	0121c83a 	sub	r16,zero,r4
 800319c:	8009883a 	mov	r4,r16
 80031a0:	dc000315 	stw	r16,12(sp)
 80031a4:	80034dc0 	call	80034dc <__clzsi2>
 80031a8:	117fffc4 	addi	r5,r2,-1
 80031ac:	017fee0e 	bge	zero,r5,8003168 <__floatsisf+0x28>
 80031b0:	d8800217 	ldw	r2,8(sp)
 80031b4:	8146983a 	sll	r3,r16,r5
 80031b8:	1145c83a 	sub	r2,r2,r5
 80031bc:	d8c00315 	stw	r3,12(sp)
 80031c0:	d8800215 	stw	r2,8(sp)
 80031c4:	003fe806 	br	8003168 <__floatsisf+0x28>
 80031c8:	2021883a 	mov	r16,r4
 80031cc:	003ff306 	br	800319c <__floatsisf+0x5c>
 80031d0:	00b3c034 	movhi	r2,52992
 80031d4:	003fe606 	br	8003170 <__floatsisf+0x30>

080031d8 <__fixsfsi>:
 80031d8:	defffa04 	addi	sp,sp,-24
 80031dc:	d9000015 	stw	r4,0(sp)
 80031e0:	d9400104 	addi	r5,sp,4
 80031e4:	d809883a 	mov	r4,sp
 80031e8:	dfc00515 	stw	ra,20(sp)
 80031ec:	80036bc0 	call	80036bc <__unpack_f>
 80031f0:	d8c00117 	ldw	r3,4(sp)
 80031f4:	00800084 	movi	r2,2
 80031f8:	1880041e 	bne	r3,r2,800320c <__fixsfsi+0x34>
 80031fc:	0005883a 	mov	r2,zero
 8003200:	dfc00517 	ldw	ra,20(sp)
 8003204:	dec00604 	addi	sp,sp,24
 8003208:	f800283a 	ret
 800320c:	00800044 	movi	r2,1
 8003210:	10fffa2e 	bgeu	r2,r3,80031fc <__fixsfsi+0x24>
 8003214:	00800104 	movi	r2,4
 8003218:	18800426 	beq	r3,r2,800322c <__fixsfsi+0x54>
 800321c:	d8800317 	ldw	r2,12(sp)
 8003220:	103ff616 	blt	r2,zero,80031fc <__fixsfsi+0x24>
 8003224:	00c00784 	movi	r3,30
 8003228:	1880070e 	bge	r3,r2,8003248 <__fixsfsi+0x70>
 800322c:	d8800217 	ldw	r2,8(sp)
 8003230:	10000c1e 	bne	r2,zero,8003264 <__fixsfsi+0x8c>
 8003234:	00a00034 	movhi	r2,32768
 8003238:	10bfffc4 	addi	r2,r2,-1
 800323c:	dfc00517 	ldw	ra,20(sp)
 8003240:	dec00604 	addi	sp,sp,24
 8003244:	f800283a 	ret
 8003248:	1885c83a 	sub	r2,r3,r2
 800324c:	d9000217 	ldw	r4,8(sp)
 8003250:	d8c00417 	ldw	r3,16(sp)
 8003254:	1884d83a 	srl	r2,r3,r2
 8003258:	203fe926 	beq	r4,zero,8003200 <__fixsfsi+0x28>
 800325c:	0085c83a 	sub	r2,zero,r2
 8003260:	003fe706 	br	8003200 <__fixsfsi+0x28>
 8003264:	00a00034 	movhi	r2,32768
 8003268:	003fe506 	br	8003200 <__fixsfsi+0x28>

0800326c <__extendsfdf2>:
 800326c:	defff904 	addi	sp,sp,-28
 8003270:	d9000115 	stw	r4,4(sp)
 8003274:	d9400204 	addi	r5,sp,8
 8003278:	d9000104 	addi	r4,sp,4
 800327c:	dfc00615 	stw	ra,24(sp)
 8003280:	80036bc0 	call	80036bc <__unpack_f>
 8003284:	d9c00517 	ldw	r7,20(sp)
 8003288:	0011883a 	mov	r8,zero
 800328c:	400697ba 	slli	r3,r8,30
 8003290:	3812d0ba 	srli	r9,r7,2
 8003294:	380497ba 	slli	r2,r7,30
 8003298:	d9000217 	ldw	r4,8(sp)
 800329c:	d9400317 	ldw	r5,12(sp)
 80032a0:	d9800417 	ldw	r6,16(sp)
 80032a4:	48c6b03a 	or	r3,r9,r3
 80032a8:	100f883a 	mov	r7,r2
 80032ac:	d8c00015 	stw	r3,0(sp)
 80032b0:	80032c00 	call	80032c0 <__make_dp>
 80032b4:	dfc00617 	ldw	ra,24(sp)
 80032b8:	dec00704 	addi	sp,sp,28
 80032bc:	f800283a 	ret

080032c0 <__make_dp>:
 80032c0:	defff904 	addi	sp,sp,-28
 80032c4:	d8c00717 	ldw	r3,28(sp)
 80032c8:	d9000015 	stw	r4,0(sp)
 80032cc:	d809883a 	mov	r4,sp
 80032d0:	dfc00515 	stw	ra,20(sp)
 80032d4:	d9c00615 	stw	r7,24(sp)
 80032d8:	d9400115 	stw	r5,4(sp)
 80032dc:	d9800215 	stw	r6,8(sp)
 80032e0:	d8c00415 	stw	r3,16(sp)
 80032e4:	d9c00315 	stw	r7,12(sp)
 80032e8:	800382c0 	call	800382c <__pack_d>
 80032ec:	dfc00517 	ldw	ra,20(sp)
 80032f0:	dec00704 	addi	sp,sp,28
 80032f4:	f800283a 	ret

080032f8 <udivmodsi4>:
 80032f8:	29001b2e 	bgeu	r5,r4,8003368 <udivmodsi4+0x70>
 80032fc:	28001a16 	blt	r5,zero,8003368 <udivmodsi4+0x70>
 8003300:	00800044 	movi	r2,1
 8003304:	0007883a 	mov	r3,zero
 8003308:	01c007c4 	movi	r7,31
 800330c:	00000306 	br	800331c <udivmodsi4+0x24>
 8003310:	19c01326 	beq	r3,r7,8003360 <udivmodsi4+0x68>
 8003314:	18c00044 	addi	r3,r3,1
 8003318:	28000416 	blt	r5,zero,800332c <udivmodsi4+0x34>
 800331c:	294b883a 	add	r5,r5,r5
 8003320:	1085883a 	add	r2,r2,r2
 8003324:	293ffa36 	bltu	r5,r4,8003310 <udivmodsi4+0x18>
 8003328:	10000d26 	beq	r2,zero,8003360 <udivmodsi4+0x68>
 800332c:	0007883a 	mov	r3,zero
 8003330:	21400236 	bltu	r4,r5,800333c <udivmodsi4+0x44>
 8003334:	2149c83a 	sub	r4,r4,r5
 8003338:	1886b03a 	or	r3,r3,r2
 800333c:	1004d07a 	srli	r2,r2,1
 8003340:	280ad07a 	srli	r5,r5,1
 8003344:	103ffa1e 	bne	r2,zero,8003330 <udivmodsi4+0x38>
 8003348:	30000226 	beq	r6,zero,8003354 <udivmodsi4+0x5c>
 800334c:	2005883a 	mov	r2,r4
 8003350:	f800283a 	ret
 8003354:	1809883a 	mov	r4,r3
 8003358:	2005883a 	mov	r2,r4
 800335c:	f800283a 	ret
 8003360:	0007883a 	mov	r3,zero
 8003364:	003ff806 	br	8003348 <udivmodsi4+0x50>
 8003368:	00800044 	movi	r2,1
 800336c:	0007883a 	mov	r3,zero
 8003370:	003fef06 	br	8003330 <udivmodsi4+0x38>

08003374 <__divsi3>:
 8003374:	defffe04 	addi	sp,sp,-8
 8003378:	dc000015 	stw	r16,0(sp)
 800337c:	dfc00115 	stw	ra,4(sp)
 8003380:	0021883a 	mov	r16,zero
 8003384:	20000c16 	blt	r4,zero,80033b8 <__divsi3+0x44>
 8003388:	000d883a 	mov	r6,zero
 800338c:	28000e16 	blt	r5,zero,80033c8 <__divsi3+0x54>
 8003390:	80032f80 	call	80032f8 <udivmodsi4>
 8003394:	1007883a 	mov	r3,r2
 8003398:	8005003a 	cmpeq	r2,r16,zero
 800339c:	1000011e 	bne	r2,zero,80033a4 <__divsi3+0x30>
 80033a0:	00c7c83a 	sub	r3,zero,r3
 80033a4:	1805883a 	mov	r2,r3
 80033a8:	dfc00117 	ldw	ra,4(sp)
 80033ac:	dc000017 	ldw	r16,0(sp)
 80033b0:	dec00204 	addi	sp,sp,8
 80033b4:	f800283a 	ret
 80033b8:	0109c83a 	sub	r4,zero,r4
 80033bc:	04000044 	movi	r16,1
 80033c0:	000d883a 	mov	r6,zero
 80033c4:	283ff20e 	bge	r5,zero,8003390 <__divsi3+0x1c>
 80033c8:	014bc83a 	sub	r5,zero,r5
 80033cc:	8021003a 	cmpeq	r16,r16,zero
 80033d0:	003fef06 	br	8003390 <__divsi3+0x1c>

080033d4 <__modsi3>:
 80033d4:	deffff04 	addi	sp,sp,-4
 80033d8:	dfc00015 	stw	ra,0(sp)
 80033dc:	01800044 	movi	r6,1
 80033e0:	2807883a 	mov	r3,r5
 80033e4:	20000416 	blt	r4,zero,80033f8 <__modsi3+0x24>
 80033e8:	28000c16 	blt	r5,zero,800341c <__modsi3+0x48>
 80033ec:	dfc00017 	ldw	ra,0(sp)
 80033f0:	dec00104 	addi	sp,sp,4
 80033f4:	80032f81 	jmpi	80032f8 <udivmodsi4>
 80033f8:	0109c83a 	sub	r4,zero,r4
 80033fc:	28000b16 	blt	r5,zero,800342c <__modsi3+0x58>
 8003400:	180b883a 	mov	r5,r3
 8003404:	01800044 	movi	r6,1
 8003408:	80032f80 	call	80032f8 <udivmodsi4>
 800340c:	0085c83a 	sub	r2,zero,r2
 8003410:	dfc00017 	ldw	ra,0(sp)
 8003414:	dec00104 	addi	sp,sp,4
 8003418:	f800283a 	ret
 800341c:	014bc83a 	sub	r5,zero,r5
 8003420:	dfc00017 	ldw	ra,0(sp)
 8003424:	dec00104 	addi	sp,sp,4
 8003428:	80032f81 	jmpi	80032f8 <udivmodsi4>
 800342c:	0147c83a 	sub	r3,zero,r5
 8003430:	003ff306 	br	8003400 <__modsi3+0x2c>

08003434 <__udivsi3>:
 8003434:	000d883a 	mov	r6,zero
 8003438:	80032f81 	jmpi	80032f8 <udivmodsi4>

0800343c <__umodsi3>:
 800343c:	01800044 	movi	r6,1
 8003440:	80032f81 	jmpi	80032f8 <udivmodsi4>

08003444 <__muldi3>:
 8003444:	2011883a 	mov	r8,r4
 8003448:	427fffcc 	andi	r9,r8,65535
 800344c:	4018d43a 	srli	r12,r8,16
 8003450:	32bfffcc 	andi	r10,r6,65535
 8003454:	3016d43a 	srli	r11,r6,16
 8003458:	4a85383a 	mul	r2,r9,r10
 800345c:	6295383a 	mul	r10,r12,r10
 8003460:	4ad3383a 	mul	r9,r9,r11
 8003464:	113fffcc 	andi	r4,r2,65535
 8003468:	1004d43a 	srli	r2,r2,16
 800346c:	4a93883a 	add	r9,r9,r10
 8003470:	3807883a 	mov	r3,r7
 8003474:	1245883a 	add	r2,r2,r9
 8003478:	280f883a 	mov	r7,r5
 800347c:	180b883a 	mov	r5,r3
 8003480:	1006943a 	slli	r3,r2,16
 8003484:	defffd04 	addi	sp,sp,-12
 8003488:	dc800215 	stw	r18,8(sp)
 800348c:	1907883a 	add	r3,r3,r4
 8003490:	dc400115 	stw	r17,4(sp)
 8003494:	dc000015 	stw	r16,0(sp)
 8003498:	4165383a 	mul	r18,r8,r5
 800349c:	31e3383a 	mul	r17,r6,r7
 80034a0:	1012d43a 	srli	r9,r2,16
 80034a4:	62d9383a 	mul	r12,r12,r11
 80034a8:	181f883a 	mov	r15,r3
 80034ac:	1280022e 	bgeu	r2,r10,80034b8 <__muldi3+0x74>
 80034b0:	00800074 	movhi	r2,1
 80034b4:	6099883a 	add	r12,r12,r2
 80034b8:	624d883a 	add	r6,r12,r9
 80034bc:	9187883a 	add	r3,r18,r6
 80034c0:	88c7883a 	add	r3,r17,r3
 80034c4:	7805883a 	mov	r2,r15
 80034c8:	dc800217 	ldw	r18,8(sp)
 80034cc:	dc400117 	ldw	r17,4(sp)
 80034d0:	dc000017 	ldw	r16,0(sp)
 80034d4:	dec00304 	addi	sp,sp,12
 80034d8:	f800283a 	ret

080034dc <__clzsi2>:
 80034dc:	00bfffd4 	movui	r2,65535
 80034e0:	11000e36 	bltu	r2,r4,800351c <__clzsi2+0x40>
 80034e4:	00803fc4 	movi	r2,255
 80034e8:	01400204 	movi	r5,8
 80034ec:	0007883a 	mov	r3,zero
 80034f0:	11001036 	bltu	r2,r4,8003534 <__clzsi2+0x58>
 80034f4:	000b883a 	mov	r5,zero
 80034f8:	20c6d83a 	srl	r3,r4,r3
 80034fc:	00820074 	movhi	r2,2049
 8003500:	109d0a04 	addi	r2,r2,29736
 8003504:	1887883a 	add	r3,r3,r2
 8003508:	18800003 	ldbu	r2,0(r3)
 800350c:	00c00804 	movi	r3,32
 8003510:	2885883a 	add	r2,r5,r2
 8003514:	1885c83a 	sub	r2,r3,r2
 8003518:	f800283a 	ret
 800351c:	01400404 	movi	r5,16
 8003520:	00804034 	movhi	r2,256
 8003524:	10bfffc4 	addi	r2,r2,-1
 8003528:	2807883a 	mov	r3,r5
 800352c:	113ff22e 	bgeu	r2,r4,80034f8 <__clzsi2+0x1c>
 8003530:	01400604 	movi	r5,24
 8003534:	2807883a 	mov	r3,r5
 8003538:	20c6d83a 	srl	r3,r4,r3
 800353c:	00820074 	movhi	r2,2049
 8003540:	109d0a04 	addi	r2,r2,29736
 8003544:	1887883a 	add	r3,r3,r2
 8003548:	18800003 	ldbu	r2,0(r3)
 800354c:	00c00804 	movi	r3,32
 8003550:	2885883a 	add	r2,r5,r2
 8003554:	1885c83a 	sub	r2,r3,r2
 8003558:	f800283a 	ret

0800355c <__pack_f>:
 800355c:	20c00017 	ldw	r3,0(r4)
 8003560:	01c00044 	movi	r7,1
 8003564:	21800317 	ldw	r6,12(r4)
 8003568:	21400117 	ldw	r5,4(r4)
 800356c:	38c02d2e 	bgeu	r7,r3,8003624 <__pack_f+0xc8>
 8003570:	00800104 	movi	r2,4
 8003574:	18802826 	beq	r3,r2,8003618 <__pack_f+0xbc>
 8003578:	00800084 	movi	r2,2
 800357c:	18800126 	beq	r3,r2,8003584 <__pack_f+0x28>
 8003580:	3000101e 	bne	r6,zero,80035c4 <__pack_f+0x68>
 8003584:	000d883a 	mov	r6,zero
 8003588:	0007883a 	mov	r3,zero
 800358c:	19003fcc 	andi	r4,r3,255
 8003590:	200895fa 	slli	r4,r4,23
 8003594:	00c02034 	movhi	r3,128
 8003598:	18ffffc4 	addi	r3,r3,-1
 800359c:	30c6703a 	and	r3,r6,r3
 80035a0:	10a0002c 	andhi	r2,r2,32768
 80035a4:	10c4b03a 	or	r2,r2,r3
 80035a8:	280a97fa 	slli	r5,r5,31
 80035ac:	1104b03a 	or	r2,r2,r4
 80035b0:	00e00034 	movhi	r3,32768
 80035b4:	18ffffc4 	addi	r3,r3,-1
 80035b8:	10c4703a 	and	r2,r2,r3
 80035bc:	1144b03a 	or	r2,r2,r5
 80035c0:	f800283a 	ret
 80035c4:	21000217 	ldw	r4,8(r4)
 80035c8:	00bfe084 	movi	r2,-126
 80035cc:	20801b16 	blt	r4,r2,800363c <__pack_f+0xe0>
 80035d0:	00801fc4 	movi	r2,127
 80035d4:	11001016 	blt	r2,r4,8003618 <__pack_f+0xbc>
 80035d8:	308e703a 	and	r7,r6,r2
 80035dc:	2087883a 	add	r3,r4,r2
 80035e0:	00801004 	movi	r2,64
 80035e4:	38800526 	beq	r7,r2,80035fc <__pack_f+0xa0>
 80035e8:	31800fc4 	addi	r6,r6,63
 80035ec:	30000716 	blt	r6,zero,800360c <__pack_f+0xb0>
 80035f0:	300490ba 	slli	r2,r6,2
 80035f4:	100cd27a 	srli	r6,r2,9
 80035f8:	003fe406 	br	800358c <__pack_f+0x30>
 80035fc:	3080200c 	andi	r2,r6,128
 8003600:	103ffa26 	beq	r2,zero,80035ec <__pack_f+0x90>
 8003604:	31cd883a 	add	r6,r6,r7
 8003608:	003ff806 	br	80035ec <__pack_f+0x90>
 800360c:	300cd07a 	srli	r6,r6,1
 8003610:	18c00044 	addi	r3,r3,1
 8003614:	003ff606 	br	80035f0 <__pack_f+0x94>
 8003618:	000d883a 	mov	r6,zero
 800361c:	00ffffc4 	movi	r3,-1
 8003620:	003fda06 	br	800358c <__pack_f+0x30>
 8003624:	31800434 	orhi	r6,r6,16
 8003628:	00802034 	movhi	r2,128
 800362c:	10bfffc4 	addi	r2,r2,-1
 8003630:	308c703a 	and	r6,r6,r2
 8003634:	00ffffc4 	movi	r3,-1
 8003638:	003fd406 	br	800358c <__pack_f+0x30>
 800363c:	1109c83a 	sub	r4,r2,r4
 8003640:	00800644 	movi	r2,25
 8003644:	11001216 	blt	r2,r4,8003690 <__pack_f+0x134>
 8003648:	3904983a 	sll	r2,r7,r4
 800364c:	3106d83a 	srl	r3,r6,r4
 8003650:	10bfffc4 	addi	r2,r2,-1
 8003654:	3084703a 	and	r2,r6,r2
 8003658:	1004c03a 	cmpne	r2,r2,zero
 800365c:	1886b03a 	or	r3,r3,r2
 8003660:	19001fcc 	andi	r4,r3,127
 8003664:	00801004 	movi	r2,64
 8003668:	20800c26 	beq	r4,r2,800369c <__pack_f+0x140>
 800366c:	18c00fc4 	addi	r3,r3,63
 8003670:	00900034 	movhi	r2,16384
 8003674:	10bfffc4 	addi	r2,r2,-1
 8003678:	180cd1fa 	srli	r6,r3,7
 800367c:	10c7803a 	cmpltu	r3,r2,r3
 8003680:	00802034 	movhi	r2,128
 8003684:	10bfffc4 	addi	r2,r2,-1
 8003688:	308c703a 	and	r6,r6,r2
 800368c:	003fbf06 	br	800358c <__pack_f+0x30>
 8003690:	0007883a 	mov	r3,zero
 8003694:	000d883a 	mov	r6,zero
 8003698:	003ff906 	br	8003680 <__pack_f+0x124>
 800369c:	1880200c 	andi	r2,r3,128
 80036a0:	10000126 	beq	r2,zero,80036a8 <__pack_f+0x14c>
 80036a4:	1907883a 	add	r3,r3,r4
 80036a8:	180cd1fa 	srli	r6,r3,7
 80036ac:	00900034 	movhi	r2,16384
 80036b0:	10bfffc4 	addi	r2,r2,-1
 80036b4:	10c7803a 	cmpltu	r3,r2,r3
 80036b8:	003ff106 	br	8003680 <__pack_f+0x124>

080036bc <__unpack_f>:
 80036bc:	21800017 	ldw	r6,0(r4)
 80036c0:	00c02034 	movhi	r3,128
 80036c4:	18ffffc4 	addi	r3,r3,-1
 80036c8:	3004d5fa 	srli	r2,r6,23
 80036cc:	3008d7fa 	srli	r4,r6,31
 80036d0:	30ce703a 	and	r7,r6,r3
 80036d4:	10c03fcc 	andi	r3,r2,255
 80036d8:	29000115 	stw	r4,4(r5)
 80036dc:	1800131e 	bne	r3,zero,800372c <__unpack_f+0x70>
 80036e0:	38000f26 	beq	r7,zero,8003720 <__unpack_f+0x64>
 80036e4:	380691fa 	slli	r3,r7,7
 80036e8:	01bfe084 	movi	r6,-126
 80036ec:	008000c4 	movi	r2,3
 80036f0:	01100034 	movhi	r4,16384
 80036f4:	213fffc4 	addi	r4,r4,-1
 80036f8:	28800015 	stw	r2,0(r5)
 80036fc:	29800215 	stw	r6,8(r5)
 8003700:	20c00536 	bltu	r4,r3,8003718 <__unpack_f+0x5c>
 8003704:	3005883a 	mov	r2,r6
 8003708:	18c7883a 	add	r3,r3,r3
 800370c:	10bfffc4 	addi	r2,r2,-1
 8003710:	20fffd2e 	bgeu	r4,r3,8003708 <__unpack_f+0x4c>
 8003714:	28800215 	stw	r2,8(r5)
 8003718:	28c00315 	stw	r3,12(r5)
 800371c:	f800283a 	ret
 8003720:	00800084 	movi	r2,2
 8003724:	28800015 	stw	r2,0(r5)
 8003728:	f800283a 	ret
 800372c:	00803fc4 	movi	r2,255
 8003730:	18800826 	beq	r3,r2,8003754 <__unpack_f+0x98>
 8003734:	380491fa 	slli	r2,r7,7
 8003738:	18ffe044 	addi	r3,r3,-127
 800373c:	28c00215 	stw	r3,8(r5)
 8003740:	10900034 	orhi	r2,r2,16384
 8003744:	28800315 	stw	r2,12(r5)
 8003748:	008000c4 	movi	r2,3
 800374c:	28800015 	stw	r2,0(r5)
 8003750:	f800283a 	ret
 8003754:	3800031e 	bne	r7,zero,8003764 <__unpack_f+0xa8>
 8003758:	00800104 	movi	r2,4
 800375c:	28800015 	stw	r2,0(r5)
 8003760:	f800283a 	ret
 8003764:	3080042c 	andhi	r2,r6,16
 8003768:	10000426 	beq	r2,zero,800377c <__unpack_f+0xc0>
 800376c:	00800044 	movi	r2,1
 8003770:	28800015 	stw	r2,0(r5)
 8003774:	29c00315 	stw	r7,12(r5)
 8003778:	f800283a 	ret
 800377c:	28000015 	stw	zero,0(r5)
 8003780:	003ffc06 	br	8003774 <__unpack_f+0xb8>

08003784 <__fpcmp_parts_f>:
 8003784:	21800017 	ldw	r6,0(r4)
 8003788:	00c00044 	movi	r3,1
 800378c:	19800a2e 	bgeu	r3,r6,80037b8 <__fpcmp_parts_f+0x34>
 8003790:	28800017 	ldw	r2,0(r5)
 8003794:	1880082e 	bgeu	r3,r2,80037b8 <__fpcmp_parts_f+0x34>
 8003798:	00c00104 	movi	r3,4
 800379c:	30c01e26 	beq	r6,r3,8003818 <__fpcmp_parts_f+0x94>
 80037a0:	10c01a26 	beq	r2,r3,800380c <__fpcmp_parts_f+0x88>
 80037a4:	00c00084 	movi	r3,2
 80037a8:	30c00526 	beq	r6,r3,80037c0 <__fpcmp_parts_f+0x3c>
 80037ac:	10c0071e 	bne	r2,r3,80037cc <__fpcmp_parts_f+0x48>
 80037b0:	20800117 	ldw	r2,4(r4)
 80037b4:	1000091e 	bne	r2,zero,80037dc <__fpcmp_parts_f+0x58>
 80037b8:	00800044 	movi	r2,1
 80037bc:	f800283a 	ret
 80037c0:	10c0121e 	bne	r2,r3,800380c <__fpcmp_parts_f+0x88>
 80037c4:	0005883a 	mov	r2,zero
 80037c8:	f800283a 	ret
 80037cc:	20c00117 	ldw	r3,4(r4)
 80037d0:	28800117 	ldw	r2,4(r5)
 80037d4:	18800326 	beq	r3,r2,80037e4 <__fpcmp_parts_f+0x60>
 80037d8:	183ff726 	beq	r3,zero,80037b8 <__fpcmp_parts_f+0x34>
 80037dc:	00bfffc4 	movi	r2,-1
 80037e0:	f800283a 	ret
 80037e4:	21800217 	ldw	r6,8(r4)
 80037e8:	28800217 	ldw	r2,8(r5)
 80037ec:	11bffa16 	blt	r2,r6,80037d8 <__fpcmp_parts_f+0x54>
 80037f0:	30800416 	blt	r6,r2,8003804 <__fpcmp_parts_f+0x80>
 80037f4:	21000317 	ldw	r4,12(r4)
 80037f8:	29400317 	ldw	r5,12(r5)
 80037fc:	293ff636 	bltu	r5,r4,80037d8 <__fpcmp_parts_f+0x54>
 8003800:	217ff02e 	bgeu	r4,r5,80037c4 <__fpcmp_parts_f+0x40>
 8003804:	183fec1e 	bne	r3,zero,80037b8 <__fpcmp_parts_f+0x34>
 8003808:	003ff406 	br	80037dc <__fpcmp_parts_f+0x58>
 800380c:	28800117 	ldw	r2,4(r5)
 8003810:	103fe91e 	bne	r2,zero,80037b8 <__fpcmp_parts_f+0x34>
 8003814:	003ff106 	br	80037dc <__fpcmp_parts_f+0x58>
 8003818:	11bfe51e 	bne	r2,r6,80037b0 <__fpcmp_parts_f+0x2c>
 800381c:	28c00117 	ldw	r3,4(r5)
 8003820:	20800117 	ldw	r2,4(r4)
 8003824:	1885c83a 	sub	r2,r3,r2
 8003828:	f800283a 	ret

0800382c <__pack_d>:
 800382c:	20c00017 	ldw	r3,0(r4)
 8003830:	defffd04 	addi	sp,sp,-12
 8003834:	dc000015 	stw	r16,0(sp)
 8003838:	dc800215 	stw	r18,8(sp)
 800383c:	dc400115 	stw	r17,4(sp)
 8003840:	00800044 	movi	r2,1
 8003844:	22000317 	ldw	r8,12(r4)
 8003848:	001f883a 	mov	r15,zero
 800384c:	22400417 	ldw	r9,16(r4)
 8003850:	24000117 	ldw	r16,4(r4)
 8003854:	10c0552e 	bgeu	r2,r3,80039ac <__pack_d+0x180>
 8003858:	00800104 	movi	r2,4
 800385c:	18804f26 	beq	r3,r2,800399c <__pack_d+0x170>
 8003860:	00800084 	movi	r2,2
 8003864:	18800226 	beq	r3,r2,8003870 <__pack_d+0x44>
 8003868:	4244b03a 	or	r2,r8,r9
 800386c:	10001a1e 	bne	r2,zero,80038d8 <__pack_d+0xac>
 8003870:	000d883a 	mov	r6,zero
 8003874:	000f883a 	mov	r7,zero
 8003878:	0011883a 	mov	r8,zero
 800387c:	00800434 	movhi	r2,16
 8003880:	10bfffc4 	addi	r2,r2,-1
 8003884:	301d883a 	mov	r14,r6
 8003888:	3884703a 	and	r2,r7,r2
 800388c:	400a953a 	slli	r5,r8,20
 8003890:	79bffc2c 	andhi	r6,r15,65520
 8003894:	308cb03a 	or	r6,r6,r2
 8003898:	00e00434 	movhi	r3,32784
 800389c:	18ffffc4 	addi	r3,r3,-1
 80038a0:	800497fa 	slli	r2,r16,31
 80038a4:	30c6703a 	and	r3,r6,r3
 80038a8:	1946b03a 	or	r3,r3,r5
 80038ac:	01600034 	movhi	r5,32768
 80038b0:	297fffc4 	addi	r5,r5,-1
 80038b4:	194a703a 	and	r5,r3,r5
 80038b8:	288ab03a 	or	r5,r5,r2
 80038bc:	2807883a 	mov	r3,r5
 80038c0:	7005883a 	mov	r2,r14
 80038c4:	dc800217 	ldw	r18,8(sp)
 80038c8:	dc400117 	ldw	r17,4(sp)
 80038cc:	dc000017 	ldw	r16,0(sp)
 80038d0:	dec00304 	addi	sp,sp,12
 80038d4:	f800283a 	ret
 80038d8:	21000217 	ldw	r4,8(r4)
 80038dc:	00bf0084 	movi	r2,-1022
 80038e0:	20803f16 	blt	r4,r2,80039e0 <__pack_d+0x1b4>
 80038e4:	0080ffc4 	movi	r2,1023
 80038e8:	11002c16 	blt	r2,r4,800399c <__pack_d+0x170>
 80038ec:	00803fc4 	movi	r2,255
 80038f0:	408c703a 	and	r6,r8,r2
 80038f4:	00802004 	movi	r2,128
 80038f8:	0007883a 	mov	r3,zero
 80038fc:	000f883a 	mov	r7,zero
 8003900:	2280ffc4 	addi	r10,r4,1023
 8003904:	30801e26 	beq	r6,r2,8003980 <__pack_d+0x154>
 8003908:	00801fc4 	movi	r2,127
 800390c:	4089883a 	add	r4,r8,r2
 8003910:	220d803a 	cmpltu	r6,r4,r8
 8003914:	324d883a 	add	r6,r6,r9
 8003918:	2011883a 	mov	r8,r4
 800391c:	3013883a 	mov	r9,r6
 8003920:	00880034 	movhi	r2,8192
 8003924:	10bfffc4 	addi	r2,r2,-1
 8003928:	12400d36 	bltu	r2,r9,8003960 <__pack_d+0x134>
 800392c:	4804963a 	slli	r2,r9,24
 8003930:	400cd23a 	srli	r6,r8,8
 8003934:	480ed23a 	srli	r7,r9,8
 8003938:	013fffc4 	movi	r4,-1
 800393c:	118cb03a 	or	r6,r2,r6
 8003940:	01400434 	movhi	r5,16
 8003944:	297fffc4 	addi	r5,r5,-1
 8003948:	3104703a 	and	r2,r6,r4
 800394c:	3946703a 	and	r3,r7,r5
 8003950:	5201ffcc 	andi	r8,r10,2047
 8003954:	100d883a 	mov	r6,r2
 8003958:	180f883a 	mov	r7,r3
 800395c:	003fc706 	br	800387c <__pack_d+0x50>
 8003960:	480897fa 	slli	r4,r9,31
 8003964:	4004d07a 	srli	r2,r8,1
 8003968:	4806d07a 	srli	r3,r9,1
 800396c:	52800044 	addi	r10,r10,1
 8003970:	2084b03a 	or	r2,r4,r2
 8003974:	1011883a 	mov	r8,r2
 8003978:	1813883a 	mov	r9,r3
 800397c:	003feb06 	br	800392c <__pack_d+0x100>
 8003980:	383fe11e 	bne	r7,zero,8003908 <__pack_d+0xdc>
 8003984:	01004004 	movi	r4,256
 8003988:	4104703a 	and	r2,r8,r4
 800398c:	10c4b03a 	or	r2,r2,r3
 8003990:	103fe326 	beq	r2,zero,8003920 <__pack_d+0xf4>
 8003994:	3005883a 	mov	r2,r6
 8003998:	003fdc06 	br	800390c <__pack_d+0xe0>
 800399c:	000d883a 	mov	r6,zero
 80039a0:	000f883a 	mov	r7,zero
 80039a4:	0201ffc4 	movi	r8,2047
 80039a8:	003fb406 	br	800387c <__pack_d+0x50>
 80039ac:	0005883a 	mov	r2,zero
 80039b0:	00c00234 	movhi	r3,8
 80039b4:	408cb03a 	or	r6,r8,r2
 80039b8:	48ceb03a 	or	r7,r9,r3
 80039bc:	013fffc4 	movi	r4,-1
 80039c0:	01400434 	movhi	r5,16
 80039c4:	297fffc4 	addi	r5,r5,-1
 80039c8:	3104703a 	and	r2,r6,r4
 80039cc:	3946703a 	and	r3,r7,r5
 80039d0:	100d883a 	mov	r6,r2
 80039d4:	180f883a 	mov	r7,r3
 80039d8:	0201ffc4 	movi	r8,2047
 80039dc:	003fa706 	br	800387c <__pack_d+0x50>
 80039e0:	1109c83a 	sub	r4,r2,r4
 80039e4:	00800e04 	movi	r2,56
 80039e8:	11004316 	blt	r2,r4,8003af8 <__pack_d+0x2cc>
 80039ec:	21fff804 	addi	r7,r4,-32
 80039f0:	38004516 	blt	r7,zero,8003b08 <__pack_d+0x2dc>
 80039f4:	49d8d83a 	srl	r12,r9,r7
 80039f8:	001b883a 	mov	r13,zero
 80039fc:	0023883a 	mov	r17,zero
 8003a00:	01400044 	movi	r5,1
 8003a04:	0025883a 	mov	r18,zero
 8003a08:	38004716 	blt	r7,zero,8003b28 <__pack_d+0x2fc>
 8003a0c:	29d6983a 	sll	r11,r5,r7
 8003a10:	0015883a 	mov	r10,zero
 8003a14:	00bfffc4 	movi	r2,-1
 8003a18:	5089883a 	add	r4,r10,r2
 8003a1c:	588b883a 	add	r5,r11,r2
 8003a20:	228d803a 	cmpltu	r6,r4,r10
 8003a24:	314b883a 	add	r5,r6,r5
 8003a28:	4104703a 	and	r2,r8,r4
 8003a2c:	4946703a 	and	r3,r9,r5
 8003a30:	10c4b03a 	or	r2,r2,r3
 8003a34:	10000226 	beq	r2,zero,8003a40 <__pack_d+0x214>
 8003a38:	04400044 	movi	r17,1
 8003a3c:	0025883a 	mov	r18,zero
 8003a40:	00803fc4 	movi	r2,255
 8003a44:	644eb03a 	or	r7,r12,r17
 8003a48:	3892703a 	and	r9,r7,r2
 8003a4c:	00802004 	movi	r2,128
 8003a50:	6c90b03a 	or	r8,r13,r18
 8003a54:	0015883a 	mov	r10,zero
 8003a58:	48801626 	beq	r9,r2,8003ab4 <__pack_d+0x288>
 8003a5c:	01001fc4 	movi	r4,127
 8003a60:	3905883a 	add	r2,r7,r4
 8003a64:	11cd803a 	cmpltu	r6,r2,r7
 8003a68:	320d883a 	add	r6,r6,r8
 8003a6c:	100f883a 	mov	r7,r2
 8003a70:	00840034 	movhi	r2,4096
 8003a74:	10bfffc4 	addi	r2,r2,-1
 8003a78:	3011883a 	mov	r8,r6
 8003a7c:	0007883a 	mov	r3,zero
 8003a80:	11801b36 	bltu	r2,r6,8003af0 <__pack_d+0x2c4>
 8003a84:	4004963a 	slli	r2,r8,24
 8003a88:	3808d23a 	srli	r4,r7,8
 8003a8c:	400ad23a 	srli	r5,r8,8
 8003a90:	1813883a 	mov	r9,r3
 8003a94:	1108b03a 	or	r4,r2,r4
 8003a98:	00bfffc4 	movi	r2,-1
 8003a9c:	00c00434 	movhi	r3,16
 8003aa0:	18ffffc4 	addi	r3,r3,-1
 8003aa4:	208c703a 	and	r6,r4,r2
 8003aa8:	28ce703a 	and	r7,r5,r3
 8003aac:	4a01ffcc 	andi	r8,r9,2047
 8003ab0:	003f7206 	br	800387c <__pack_d+0x50>
 8003ab4:	503fe91e 	bne	r10,zero,8003a5c <__pack_d+0x230>
 8003ab8:	01004004 	movi	r4,256
 8003abc:	3904703a 	and	r2,r7,r4
 8003ac0:	0007883a 	mov	r3,zero
 8003ac4:	10c4b03a 	or	r2,r2,r3
 8003ac8:	10000626 	beq	r2,zero,8003ae4 <__pack_d+0x2b8>
 8003acc:	3a45883a 	add	r2,r7,r9
 8003ad0:	11cd803a 	cmpltu	r6,r2,r7
 8003ad4:	320d883a 	add	r6,r6,r8
 8003ad8:	100f883a 	mov	r7,r2
 8003adc:	3011883a 	mov	r8,r6
 8003ae0:	0007883a 	mov	r3,zero
 8003ae4:	00840034 	movhi	r2,4096
 8003ae8:	10bfffc4 	addi	r2,r2,-1
 8003aec:	123fe52e 	bgeu	r2,r8,8003a84 <__pack_d+0x258>
 8003af0:	00c00044 	movi	r3,1
 8003af4:	003fe306 	br	8003a84 <__pack_d+0x258>
 8003af8:	0009883a 	mov	r4,zero
 8003afc:	0013883a 	mov	r9,zero
 8003b00:	000b883a 	mov	r5,zero
 8003b04:	003fe406 	br	8003a98 <__pack_d+0x26c>
 8003b08:	4a47883a 	add	r3,r9,r9
 8003b0c:	008007c4 	movi	r2,31
 8003b10:	1105c83a 	sub	r2,r2,r4
 8003b14:	1886983a 	sll	r3,r3,r2
 8003b18:	4118d83a 	srl	r12,r8,r4
 8003b1c:	491ad83a 	srl	r13,r9,r4
 8003b20:	1b18b03a 	or	r12,r3,r12
 8003b24:	003fb506 	br	80039fc <__pack_d+0x1d0>
 8003b28:	2806d07a 	srli	r3,r5,1
 8003b2c:	008007c4 	movi	r2,31
 8003b30:	1105c83a 	sub	r2,r2,r4
 8003b34:	1896d83a 	srl	r11,r3,r2
 8003b38:	2914983a 	sll	r10,r5,r4
 8003b3c:	003fb506 	br	8003a14 <__pack_d+0x1e8>

08003b40 <_fopen_r>:
 8003b40:	defffa04 	addi	sp,sp,-24
 8003b44:	dcc00415 	stw	r19,16(sp)
 8003b48:	2827883a 	mov	r19,r5
 8003b4c:	300b883a 	mov	r5,r6
 8003b50:	d80d883a 	mov	r6,sp
 8003b54:	dc800315 	stw	r18,12(sp)
 8003b58:	dc400215 	stw	r17,8(sp)
 8003b5c:	dc000115 	stw	r16,4(sp)
 8003b60:	dfc00515 	stw	ra,20(sp)
 8003b64:	2021883a 	mov	r16,r4
 8003b68:	8009bf40 	call	8009bf4 <__sflags>
 8003b6c:	1025883a 	mov	r18,r2
 8003b70:	8009883a 	mov	r4,r16
 8003b74:	0023883a 	mov	r17,zero
 8003b78:	1000081e 	bne	r2,zero,8003b9c <_fopen_r+0x5c>
 8003b7c:	8805883a 	mov	r2,r17
 8003b80:	dfc00517 	ldw	ra,20(sp)
 8003b84:	dcc00417 	ldw	r19,16(sp)
 8003b88:	dc800317 	ldw	r18,12(sp)
 8003b8c:	dc400217 	ldw	r17,8(sp)
 8003b90:	dc000117 	ldw	r16,4(sp)
 8003b94:	dec00604 	addi	sp,sp,24
 8003b98:	f800283a 	ret
 8003b9c:	8009b040 	call	8009b04 <__sfp>
 8003ba0:	1023883a 	mov	r17,r2
 8003ba4:	980b883a 	mov	r5,r19
 8003ba8:	8009883a 	mov	r4,r16
 8003bac:	01c06d84 	movi	r7,438
 8003bb0:	103ff226 	beq	r2,zero,8003b7c <_fopen_r+0x3c>
 8003bb4:	d9800017 	ldw	r6,0(sp)
 8003bb8:	800513c0 	call	800513c <_open_r>
 8003bbc:	10001816 	blt	r2,zero,8003c20 <_fopen_r+0xe0>
 8003bc0:	00c20034 	movhi	r3,2048
 8003bc4:	18d58804 	addi	r3,r3,22048
 8003bc8:	923fffcc 	andi	r8,r18,65535
 8003bcc:	8880038d 	sth	r2,14(r17)
 8003bd0:	00820034 	movhi	r2,2048
 8003bd4:	1095a704 	addi	r2,r2,22172
 8003bd8:	88800815 	stw	r2,32(r17)
 8003bdc:	88c00915 	stw	r3,36(r17)
 8003be0:	00820034 	movhi	r2,2048
 8003be4:	10956e04 	addi	r2,r2,21944
 8003be8:	00c20034 	movhi	r3,2048
 8003bec:	18d56c04 	addi	r3,r3,21936
 8003bf0:	4200400c 	andi	r8,r8,256
 8003bf4:	8c80030d 	sth	r18,12(r17)
 8003bf8:	8009883a 	mov	r4,r16
 8003bfc:	880b883a 	mov	r5,r17
 8003c00:	000d883a 	mov	r6,zero
 8003c04:	01c00084 	movi	r7,2
 8003c08:	88800a15 	stw	r2,40(r17)
 8003c0c:	88c00b15 	stw	r3,44(r17)
 8003c10:	8c400715 	stw	r17,28(r17)
 8003c14:	403fd926 	beq	r8,zero,8003b7c <_fopen_r+0x3c>
 8003c18:	80042cc0 	call	80042cc <_fseek_r>
 8003c1c:	003fd706 	br	8003b7c <_fopen_r+0x3c>
 8003c20:	800998c0 	call	800998c <__sfp_lock_acquire>
 8003c24:	8800030d 	sth	zero,12(r17)
 8003c28:	80099900 	call	8009990 <__sfp_lock_release>
 8003c2c:	0023883a 	mov	r17,zero
 8003c30:	003fd206 	br	8003b7c <_fopen_r+0x3c>

08003c34 <fopen>:
 8003c34:	018200b4 	movhi	r6,2050
 8003c38:	31a7cd04 	addi	r6,r6,-24780
 8003c3c:	2007883a 	mov	r3,r4
 8003c40:	31000017 	ldw	r4,0(r6)
 8003c44:	280d883a 	mov	r6,r5
 8003c48:	180b883a 	mov	r5,r3
 8003c4c:	8003b401 	jmpi	8003b40 <_fopen_r>

08003c50 <_fread_r>:
 8003c50:	defff504 	addi	sp,sp,-44
 8003c54:	ddc00815 	stw	r23,32(sp)
 8003c58:	39af383a 	mul	r23,r7,r6
 8003c5c:	df000915 	stw	fp,36(sp)
 8003c60:	dd800715 	stw	r22,28(sp)
 8003c64:	dcc00415 	stw	r19,16(sp)
 8003c68:	dc000115 	stw	r16,4(sp)
 8003c6c:	dfc00a15 	stw	ra,40(sp)
 8003c70:	dd400615 	stw	r21,24(sp)
 8003c74:	dd000515 	stw	r20,20(sp)
 8003c78:	dc800315 	stw	r18,12(sp)
 8003c7c:	dc400215 	stw	r17,8(sp)
 8003c80:	d9800015 	stw	r6,0(sp)
 8003c84:	3839883a 	mov	fp,r7
 8003c88:	2821883a 	mov	r16,r5
 8003c8c:	202d883a 	mov	r22,r4
 8003c90:	dcc00b17 	ldw	r19,44(sp)
 8003c94:	b8005926 	beq	r23,zero,8003dfc <_fread_r+0x1ac>
 8003c98:	20000226 	beq	r4,zero,8003ca4 <_fread_r+0x54>
 8003c9c:	20800e17 	ldw	r2,56(r4)
 8003ca0:	10005826 	beq	r2,zero,8003e04 <_fread_r+0x1b4>
 8003ca4:	9c400117 	ldw	r17,4(r19)
 8003ca8:	88005916 	blt	r17,zero,8003e10 <_fread_r+0x1c0>
 8003cac:	9880030b 	ldhu	r2,12(r19)
 8003cb0:	8029883a 	mov	r20,r16
 8003cb4:	1080008c 	andi	r2,r2,2
 8003cb8:	1000221e 	bne	r2,zero,8003d44 <_fread_r+0xf4>
 8003cbc:	b825883a 	mov	r18,r23
 8003cc0:	00000106 	br	8003cc8 <_fread_r+0x78>
 8003cc4:	9c400117 	ldw	r17,4(r19)
 8003cc8:	a009883a 	mov	r4,r20
 8003ccc:	880d883a 	mov	r6,r17
 8003cd0:	8c80542e 	bgeu	r17,r18,8003e24 <_fread_r+0x1d4>
 8003cd4:	99400017 	ldw	r5,0(r19)
 8003cd8:	a469883a 	add	r20,r20,r17
 8003cdc:	9465c83a 	sub	r18,r18,r17
 8003ce0:	800509c0 	call	800509c <memcpy>
 8003ce4:	98800017 	ldw	r2,0(r19)
 8003ce8:	b009883a 	mov	r4,r22
 8003cec:	980b883a 	mov	r5,r19
 8003cf0:	1461883a 	add	r16,r2,r17
 8003cf4:	9c000015 	stw	r16,0(r19)
 8003cf8:	80053600 	call	8005360 <__srefill_r>
 8003cfc:	103ff126 	beq	r2,zero,8003cc4 <_fread_r+0x74>
 8003d00:	d9400017 	ldw	r5,0(sp)
 8003d04:	bc89c83a 	sub	r4,r23,r18
 8003d08:	80034340 	call	8003434 <__udivsi3>
 8003d0c:	1039883a 	mov	fp,r2
 8003d10:	e005883a 	mov	r2,fp
 8003d14:	dfc00a17 	ldw	ra,40(sp)
 8003d18:	df000917 	ldw	fp,36(sp)
 8003d1c:	ddc00817 	ldw	r23,32(sp)
 8003d20:	dd800717 	ldw	r22,28(sp)
 8003d24:	dd400617 	ldw	r21,24(sp)
 8003d28:	dd000517 	ldw	r20,20(sp)
 8003d2c:	dcc00417 	ldw	r19,16(sp)
 8003d30:	dc800317 	ldw	r18,12(sp)
 8003d34:	dc400217 	ldw	r17,8(sp)
 8003d38:	dc000117 	ldw	r16,4(sp)
 8003d3c:	dec00b04 	addi	sp,sp,44
 8003d40:	f800283a 	ret
 8003d44:	b825883a 	mov	r18,r23
 8003d48:	8dc03436 	bltu	r17,r23,8003e1c <_fread_r+0x1cc>
 8003d4c:	99400017 	ldw	r5,0(r19)
 8003d50:	a009883a 	mov	r4,r20
 8003d54:	900d883a 	mov	r6,r18
 8003d58:	800509c0 	call	800509c <memcpy>
 8003d5c:	9c000017 	ldw	r16,0(r19)
 8003d60:	98800117 	ldw	r2,4(r19)
 8003d64:	99400c17 	ldw	r5,48(r19)
 8003d68:	84a1883a 	add	r16,r16,r18
 8003d6c:	14a3c83a 	sub	r17,r2,r18
 8003d70:	a4ab883a 	add	r21,r20,r18
 8003d74:	9c400115 	stw	r17,4(r19)
 8003d78:	9c000015 	stw	r16,0(r19)
 8003d7c:	bca9c83a 	sub	r20,r23,r18
 8003d80:	28000826 	beq	r5,zero,8003da4 <_fread_r+0x154>
 8003d84:	a03fe226 	beq	r20,zero,8003d10 <_fread_r+0xc0>
 8003d88:	98801004 	addi	r2,r19,64
 8003d8c:	28800326 	beq	r5,r2,8003d9c <_fread_r+0x14c>
 8003d90:	b009883a 	mov	r4,r22
 8003d94:	8003fb80 	call	8003fb8 <_free_r>
 8003d98:	9c000017 	ldw	r16,0(r19)
 8003d9c:	98000c15 	stw	zero,48(r19)
 8003da0:	00000106 	br	8003da8 <_fread_r+0x158>
 8003da4:	a03fda26 	beq	r20,zero,8003d10 <_fread_r+0xc0>
 8003da8:	9c800417 	ldw	r18,16(r19)
 8003dac:	9c400517 	ldw	r17,20(r19)
 8003db0:	9d400015 	stw	r21,0(r19)
 8003db4:	9d400415 	stw	r21,16(r19)
 8003db8:	9d000515 	stw	r20,20(r19)
 8003dbc:	b009883a 	mov	r4,r22
 8003dc0:	980b883a 	mov	r5,r19
 8003dc4:	80053600 	call	8005360 <__srefill_r>
 8003dc8:	98c00117 	ldw	r3,4(r19)
 8003dcc:	9c800415 	stw	r18,16(r19)
 8003dd0:	9c400515 	stw	r17,20(r19)
 8003dd4:	a8eb883a 	add	r21,r21,r3
 8003dd8:	9c000015 	stw	r16,0(r19)
 8003ddc:	a0e9c83a 	sub	r20,r20,r3
 8003de0:	98000115 	stw	zero,4(r19)
 8003de4:	103fef26 	beq	r2,zero,8003da4 <_fread_r+0x154>
 8003de8:	d9400017 	ldw	r5,0(sp)
 8003dec:	bd09c83a 	sub	r4,r23,r20
 8003df0:	80034340 	call	8003434 <__udivsi3>
 8003df4:	1039883a 	mov	fp,r2
 8003df8:	003fc506 	br	8003d10 <_fread_r+0xc0>
 8003dfc:	0039883a 	mov	fp,zero
 8003e00:	003fc306 	br	8003d10 <_fread_r+0xc0>
 8003e04:	800999c0 	call	800999c <__sinit>
 8003e08:	9c400117 	ldw	r17,4(r19)
 8003e0c:	883fa70e 	bge	r17,zero,8003cac <_fread_r+0x5c>
 8003e10:	0023883a 	mov	r17,zero
 8003e14:	98000115 	stw	zero,4(r19)
 8003e18:	003fa406 	br	8003cac <_fread_r+0x5c>
 8003e1c:	8825883a 	mov	r18,r17
 8003e20:	003fca06 	br	8003d4c <_fread_r+0xfc>
 8003e24:	99400017 	ldw	r5,0(r19)
 8003e28:	900d883a 	mov	r6,r18
 8003e2c:	800509c0 	call	800509c <memcpy>
 8003e30:	98c00117 	ldw	r3,4(r19)
 8003e34:	98800017 	ldw	r2,0(r19)
 8003e38:	1c87c83a 	sub	r3,r3,r18
 8003e3c:	1485883a 	add	r2,r2,r18
 8003e40:	98800015 	stw	r2,0(r19)
 8003e44:	98c00115 	stw	r3,4(r19)
 8003e48:	003fb106 	br	8003d10 <_fread_r+0xc0>

08003e4c <fread>:
 8003e4c:	008200b4 	movhi	r2,2050
 8003e50:	10a7cd04 	addi	r2,r2,-24780
 8003e54:	2017883a 	mov	r11,r4
 8003e58:	11000017 	ldw	r4,0(r2)
 8003e5c:	defffe04 	addi	sp,sp,-8
 8003e60:	3013883a 	mov	r9,r6
 8003e64:	2805883a 	mov	r2,r5
 8003e68:	d9c00015 	stw	r7,0(sp)
 8003e6c:	580b883a 	mov	r5,r11
 8003e70:	100d883a 	mov	r6,r2
 8003e74:	480f883a 	mov	r7,r9
 8003e78:	dfc00115 	stw	ra,4(sp)
 8003e7c:	8003c500 	call	8003c50 <_fread_r>
 8003e80:	dfc00117 	ldw	ra,4(sp)
 8003e84:	dec00204 	addi	sp,sp,8
 8003e88:	f800283a 	ret

08003e8c <_malloc_trim_r>:
 8003e8c:	defffb04 	addi	sp,sp,-20
 8003e90:	dcc00315 	stw	r19,12(sp)
 8003e94:	04c200b4 	movhi	r19,2050
 8003e98:	9ce19204 	addi	r19,r19,-31160
 8003e9c:	dc800215 	stw	r18,8(sp)
 8003ea0:	dc400115 	stw	r17,4(sp)
 8003ea4:	dc000015 	stw	r16,0(sp)
 8003ea8:	2823883a 	mov	r17,r5
 8003eac:	2025883a 	mov	r18,r4
 8003eb0:	dfc00415 	stw	ra,16(sp)
 8003eb4:	800e9dc0 	call	800e9dc <__malloc_lock>
 8003eb8:	98800217 	ldw	r2,8(r19)
 8003ebc:	9009883a 	mov	r4,r18
 8003ec0:	000b883a 	mov	r5,zero
 8003ec4:	10c00117 	ldw	r3,4(r2)
 8003ec8:	00bfff04 	movi	r2,-4
 8003ecc:	18a0703a 	and	r16,r3,r2
 8003ed0:	8463c83a 	sub	r17,r16,r17
 8003ed4:	8c43fbc4 	addi	r17,r17,4079
 8003ed8:	8822d33a 	srli	r17,r17,12
 8003edc:	0083ffc4 	movi	r2,4095
 8003ee0:	8c7fffc4 	addi	r17,r17,-1
 8003ee4:	8822933a 	slli	r17,r17,12
 8003ee8:	1440060e 	bge	r2,r17,8003f04 <_malloc_trim_r+0x78>
 8003eec:	80055400 	call	8005540 <_sbrk_r>
 8003ef0:	98c00217 	ldw	r3,8(r19)
 8003ef4:	9009883a 	mov	r4,r18
 8003ef8:	044bc83a 	sub	r5,zero,r17
 8003efc:	80c7883a 	add	r3,r16,r3
 8003f00:	10c00926 	beq	r2,r3,8003f28 <_malloc_trim_r+0x9c>
 8003f04:	800e9fc0 	call	800e9fc <__malloc_unlock>
 8003f08:	0005883a 	mov	r2,zero
 8003f0c:	dfc00417 	ldw	ra,16(sp)
 8003f10:	dcc00317 	ldw	r19,12(sp)
 8003f14:	dc800217 	ldw	r18,8(sp)
 8003f18:	dc400117 	ldw	r17,4(sp)
 8003f1c:	dc000017 	ldw	r16,0(sp)
 8003f20:	dec00504 	addi	sp,sp,20
 8003f24:	f800283a 	ret
 8003f28:	9009883a 	mov	r4,r18
 8003f2c:	80055400 	call	8005540 <_sbrk_r>
 8003f30:	844dc83a 	sub	r6,r16,r17
 8003f34:	00ffffc4 	movi	r3,-1
 8003f38:	9009883a 	mov	r4,r18
 8003f3c:	000b883a 	mov	r5,zero
 8003f40:	01c200b4 	movhi	r7,2050
 8003f44:	39ef4304 	addi	r7,r7,-17140
 8003f48:	31800054 	ori	r6,r6,1
 8003f4c:	10c00926 	beq	r2,r3,8003f74 <_malloc_trim_r+0xe8>
 8003f50:	38800017 	ldw	r2,0(r7)
 8003f54:	98c00217 	ldw	r3,8(r19)
 8003f58:	9009883a 	mov	r4,r18
 8003f5c:	1445c83a 	sub	r2,r2,r17
 8003f60:	38800015 	stw	r2,0(r7)
 8003f64:	19800115 	stw	r6,4(r3)
 8003f68:	800e9fc0 	call	800e9fc <__malloc_unlock>
 8003f6c:	00800044 	movi	r2,1
 8003f70:	003fe606 	br	8003f0c <_malloc_trim_r+0x80>
 8003f74:	80055400 	call	8005540 <_sbrk_r>
 8003f78:	99800217 	ldw	r6,8(r19)
 8003f7c:	100f883a 	mov	r7,r2
 8003f80:	9009883a 	mov	r4,r18
 8003f84:	1187c83a 	sub	r3,r2,r6
 8003f88:	008003c4 	movi	r2,15
 8003f8c:	19400054 	ori	r5,r3,1
 8003f90:	10ffdc0e 	bge	r2,r3,8003f04 <_malloc_trim_r+0x78>
 8003f94:	008200b4 	movhi	r2,2050
 8003f98:	10a7d004 	addi	r2,r2,-24768
 8003f9c:	10c00017 	ldw	r3,0(r2)
 8003fa0:	008200b4 	movhi	r2,2050
 8003fa4:	10af4304 	addi	r2,r2,-17140
 8003fa8:	31400115 	stw	r5,4(r6)
 8003fac:	38c7c83a 	sub	r3,r7,r3
 8003fb0:	10c00015 	stw	r3,0(r2)
 8003fb4:	003fd306 	br	8003f04 <_malloc_trim_r+0x78>

08003fb8 <_free_r>:
 8003fb8:	defffd04 	addi	sp,sp,-12
 8003fbc:	dc400115 	stw	r17,4(sp)
 8003fc0:	dc000015 	stw	r16,0(sp)
 8003fc4:	dfc00215 	stw	ra,8(sp)
 8003fc8:	2821883a 	mov	r16,r5
 8003fcc:	2023883a 	mov	r17,r4
 8003fd0:	28005a26 	beq	r5,zero,800413c <_free_r+0x184>
 8003fd4:	800e9dc0 	call	800e9dc <__malloc_lock>
 8003fd8:	823ffe04 	addi	r8,r16,-8
 8003fdc:	41400117 	ldw	r5,4(r8)
 8003fe0:	00bfff84 	movi	r2,-2
 8003fe4:	028200b4 	movhi	r10,2050
 8003fe8:	52a19204 	addi	r10,r10,-31160
 8003fec:	288e703a 	and	r7,r5,r2
 8003ff0:	41cd883a 	add	r6,r8,r7
 8003ff4:	30c00117 	ldw	r3,4(r6)
 8003ff8:	51000217 	ldw	r4,8(r10)
 8003ffc:	00bfff04 	movi	r2,-4
 8004000:	1892703a 	and	r9,r3,r2
 8004004:	5017883a 	mov	r11,r10
 8004008:	31006726 	beq	r6,r4,80041a8 <_free_r+0x1f0>
 800400c:	2880004c 	andi	r2,r5,1
 8004010:	1005003a 	cmpeq	r2,r2,zero
 8004014:	32400115 	stw	r9,4(r6)
 8004018:	10001a1e 	bne	r2,zero,8004084 <_free_r+0xcc>
 800401c:	000b883a 	mov	r5,zero
 8004020:	3247883a 	add	r3,r6,r9
 8004024:	18800117 	ldw	r2,4(r3)
 8004028:	1080004c 	andi	r2,r2,1
 800402c:	1000231e 	bne	r2,zero,80040bc <_free_r+0x104>
 8004030:	280ac03a 	cmpne	r5,r5,zero
 8004034:	3a4f883a 	add	r7,r7,r9
 8004038:	2800451e 	bne	r5,zero,8004150 <_free_r+0x198>
 800403c:	31000217 	ldw	r4,8(r6)
 8004040:	008200b4 	movhi	r2,2050
 8004044:	10a19404 	addi	r2,r2,-31152
 8004048:	20807b26 	beq	r4,r2,8004238 <_free_r+0x280>
 800404c:	30800317 	ldw	r2,12(r6)
 8004050:	3a07883a 	add	r3,r7,r8
 8004054:	19c00015 	stw	r7,0(r3)
 8004058:	11000215 	stw	r4,8(r2)
 800405c:	20800315 	stw	r2,12(r4)
 8004060:	38800054 	ori	r2,r7,1
 8004064:	40800115 	stw	r2,4(r8)
 8004068:	28001a26 	beq	r5,zero,80040d4 <_free_r+0x11c>
 800406c:	8809883a 	mov	r4,r17
 8004070:	dfc00217 	ldw	ra,8(sp)
 8004074:	dc400117 	ldw	r17,4(sp)
 8004078:	dc000017 	ldw	r16,0(sp)
 800407c:	dec00304 	addi	sp,sp,12
 8004080:	800e9fc1 	jmpi	800e9fc <__malloc_unlock>
 8004084:	80bffe17 	ldw	r2,-8(r16)
 8004088:	50c00204 	addi	r3,r10,8
 800408c:	4091c83a 	sub	r8,r8,r2
 8004090:	41000217 	ldw	r4,8(r8)
 8004094:	388f883a 	add	r7,r7,r2
 8004098:	20c06126 	beq	r4,r3,8004220 <_free_r+0x268>
 800409c:	40800317 	ldw	r2,12(r8)
 80040a0:	3247883a 	add	r3,r6,r9
 80040a4:	000b883a 	mov	r5,zero
 80040a8:	11000215 	stw	r4,8(r2)
 80040ac:	20800315 	stw	r2,12(r4)
 80040b0:	18800117 	ldw	r2,4(r3)
 80040b4:	1080004c 	andi	r2,r2,1
 80040b8:	103fdd26 	beq	r2,zero,8004030 <_free_r+0x78>
 80040bc:	38800054 	ori	r2,r7,1
 80040c0:	3a07883a 	add	r3,r7,r8
 80040c4:	280ac03a 	cmpne	r5,r5,zero
 80040c8:	40800115 	stw	r2,4(r8)
 80040cc:	19c00015 	stw	r7,0(r3)
 80040d0:	283fe61e 	bne	r5,zero,800406c <_free_r+0xb4>
 80040d4:	00807fc4 	movi	r2,511
 80040d8:	11c01f2e 	bgeu	r2,r7,8004158 <_free_r+0x1a0>
 80040dc:	3806d27a 	srli	r3,r7,9
 80040e0:	1800481e 	bne	r3,zero,8004204 <_free_r+0x24c>
 80040e4:	3804d0fa 	srli	r2,r7,3
 80040e8:	100690fa 	slli	r3,r2,3
 80040ec:	1acd883a 	add	r6,r3,r11
 80040f0:	31400217 	ldw	r5,8(r6)
 80040f4:	31405926 	beq	r6,r5,800425c <_free_r+0x2a4>
 80040f8:	28800117 	ldw	r2,4(r5)
 80040fc:	00ffff04 	movi	r3,-4
 8004100:	10c4703a 	and	r2,r2,r3
 8004104:	3880022e 	bgeu	r7,r2,8004110 <_free_r+0x158>
 8004108:	29400217 	ldw	r5,8(r5)
 800410c:	317ffa1e 	bne	r6,r5,80040f8 <_free_r+0x140>
 8004110:	29800317 	ldw	r6,12(r5)
 8004114:	41800315 	stw	r6,12(r8)
 8004118:	41400215 	stw	r5,8(r8)
 800411c:	8809883a 	mov	r4,r17
 8004120:	2a000315 	stw	r8,12(r5)
 8004124:	32000215 	stw	r8,8(r6)
 8004128:	dfc00217 	ldw	ra,8(sp)
 800412c:	dc400117 	ldw	r17,4(sp)
 8004130:	dc000017 	ldw	r16,0(sp)
 8004134:	dec00304 	addi	sp,sp,12
 8004138:	800e9fc1 	jmpi	800e9fc <__malloc_unlock>
 800413c:	dfc00217 	ldw	ra,8(sp)
 8004140:	dc400117 	ldw	r17,4(sp)
 8004144:	dc000017 	ldw	r16,0(sp)
 8004148:	dec00304 	addi	sp,sp,12
 800414c:	f800283a 	ret
 8004150:	31000217 	ldw	r4,8(r6)
 8004154:	003fbd06 	br	800404c <_free_r+0x94>
 8004158:	3806d0fa 	srli	r3,r7,3
 800415c:	00800044 	movi	r2,1
 8004160:	51400117 	ldw	r5,4(r10)
 8004164:	180890fa 	slli	r4,r3,3
 8004168:	1807d0ba 	srai	r3,r3,2
 800416c:	22c9883a 	add	r4,r4,r11
 8004170:	21800217 	ldw	r6,8(r4)
 8004174:	10c4983a 	sll	r2,r2,r3
 8004178:	41000315 	stw	r4,12(r8)
 800417c:	41800215 	stw	r6,8(r8)
 8004180:	288ab03a 	or	r5,r5,r2
 8004184:	22000215 	stw	r8,8(r4)
 8004188:	8809883a 	mov	r4,r17
 800418c:	51400115 	stw	r5,4(r10)
 8004190:	32000315 	stw	r8,12(r6)
 8004194:	dfc00217 	ldw	ra,8(sp)
 8004198:	dc400117 	ldw	r17,4(sp)
 800419c:	dc000017 	ldw	r16,0(sp)
 80041a0:	dec00304 	addi	sp,sp,12
 80041a4:	800e9fc1 	jmpi	800e9fc <__malloc_unlock>
 80041a8:	2880004c 	andi	r2,r5,1
 80041ac:	3a4d883a 	add	r6,r7,r9
 80041b0:	1000071e 	bne	r2,zero,80041d0 <_free_r+0x218>
 80041b4:	80bffe17 	ldw	r2,-8(r16)
 80041b8:	4091c83a 	sub	r8,r8,r2
 80041bc:	41000317 	ldw	r4,12(r8)
 80041c0:	40c00217 	ldw	r3,8(r8)
 80041c4:	308d883a 	add	r6,r6,r2
 80041c8:	20c00215 	stw	r3,8(r4)
 80041cc:	19000315 	stw	r4,12(r3)
 80041d0:	008200b4 	movhi	r2,2050
 80041d4:	10a7cf04 	addi	r2,r2,-24772
 80041d8:	11000017 	ldw	r4,0(r2)
 80041dc:	30c00054 	ori	r3,r6,1
 80041e0:	52000215 	stw	r8,8(r10)
 80041e4:	40c00115 	stw	r3,4(r8)
 80041e8:	313fa036 	bltu	r6,r4,800406c <_free_r+0xb4>
 80041ec:	008200b4 	movhi	r2,2050
 80041f0:	10af3704 	addi	r2,r2,-17188
 80041f4:	11400017 	ldw	r5,0(r2)
 80041f8:	8809883a 	mov	r4,r17
 80041fc:	8003e8c0 	call	8003e8c <_malloc_trim_r>
 8004200:	003f9a06 	br	800406c <_free_r+0xb4>
 8004204:	00800104 	movi	r2,4
 8004208:	10c0072e 	bgeu	r2,r3,8004228 <_free_r+0x270>
 800420c:	00800504 	movi	r2,20
 8004210:	10c01936 	bltu	r2,r3,8004278 <_free_r+0x2c0>
 8004214:	188016c4 	addi	r2,r3,91
 8004218:	100690fa 	slli	r3,r2,3
 800421c:	003fb306 	br	80040ec <_free_r+0x134>
 8004220:	01400044 	movi	r5,1
 8004224:	003f7e06 	br	8004020 <_free_r+0x68>
 8004228:	3804d1ba 	srli	r2,r7,6
 800422c:	10800e04 	addi	r2,r2,56
 8004230:	100690fa 	slli	r3,r2,3
 8004234:	003fad06 	br	80040ec <_free_r+0x134>
 8004238:	22000315 	stw	r8,12(r4)
 800423c:	22000215 	stw	r8,8(r4)
 8004240:	3a05883a 	add	r2,r7,r8
 8004244:	38c00054 	ori	r3,r7,1
 8004248:	11c00015 	stw	r7,0(r2)
 800424c:	41000215 	stw	r4,8(r8)
 8004250:	40c00115 	stw	r3,4(r8)
 8004254:	41000315 	stw	r4,12(r8)
 8004258:	003f8406 	br	800406c <_free_r+0xb4>
 800425c:	1005d0ba 	srai	r2,r2,2
 8004260:	00c00044 	movi	r3,1
 8004264:	51000117 	ldw	r4,4(r10)
 8004268:	1886983a 	sll	r3,r3,r2
 800426c:	20c8b03a 	or	r4,r4,r3
 8004270:	51000115 	stw	r4,4(r10)
 8004274:	003fa706 	br	8004114 <_free_r+0x15c>
 8004278:	00801504 	movi	r2,84
 800427c:	10c00436 	bltu	r2,r3,8004290 <_free_r+0x2d8>
 8004280:	3804d33a 	srli	r2,r7,12
 8004284:	10801b84 	addi	r2,r2,110
 8004288:	100690fa 	slli	r3,r2,3
 800428c:	003f9706 	br	80040ec <_free_r+0x134>
 8004290:	00805504 	movi	r2,340
 8004294:	10c00436 	bltu	r2,r3,80042a8 <_free_r+0x2f0>
 8004298:	3804d3fa 	srli	r2,r7,15
 800429c:	10801dc4 	addi	r2,r2,119
 80042a0:	100690fa 	slli	r3,r2,3
 80042a4:	003f9106 	br	80040ec <_free_r+0x134>
 80042a8:	00815504 	movi	r2,1364
 80042ac:	10c0032e 	bgeu	r2,r3,80042bc <_free_r+0x304>
 80042b0:	00801f84 	movi	r2,126
 80042b4:	00c0fc04 	movi	r3,1008
 80042b8:	003f8c06 	br	80040ec <_free_r+0x134>
 80042bc:	3804d4ba 	srli	r2,r7,18
 80042c0:	10801f04 	addi	r2,r2,124
 80042c4:	100690fa 	slli	r3,r2,3
 80042c8:	003f8806 	br	80040ec <_free_r+0x134>

080042cc <_fseek_r>:
 80042cc:	deffe804 	addi	sp,sp,-96
 80042d0:	dd801515 	stw	r22,84(sp)
 80042d4:	dcc01215 	stw	r19,72(sp)
 80042d8:	dc801115 	stw	r18,68(sp)
 80042dc:	dc000f15 	stw	r16,60(sp)
 80042e0:	dfc01715 	stw	ra,92(sp)
 80042e4:	ddc01615 	stw	r23,88(sp)
 80042e8:	dd401415 	stw	r21,80(sp)
 80042ec:	dd001315 	stw	r20,76(sp)
 80042f0:	dc401015 	stw	r17,64(sp)
 80042f4:	2025883a 	mov	r18,r4
 80042f8:	2821883a 	mov	r16,r5
 80042fc:	302d883a 	mov	r22,r6
 8004300:	3827883a 	mov	r19,r7
 8004304:	20000226 	beq	r4,zero,8004310 <_fseek_r+0x44>
 8004308:	20800e17 	ldw	r2,56(r4)
 800430c:	10007826 	beq	r2,zero,80044f0 <_fseek_r+0x224>
 8004310:	8080030b 	ldhu	r2,12(r16)
 8004314:	00c04204 	movi	r3,264
 8004318:	1080420c 	andi	r2,r2,264
 800431c:	10c07926 	beq	r2,r3,8004504 <_fseek_r+0x238>
 8004320:	85400a17 	ldw	r21,40(r16)
 8004324:	a800ea26 	beq	r21,zero,80046d0 <_fseek_r+0x404>
 8004328:	00800044 	movi	r2,1
 800432c:	98805f26 	beq	r19,r2,80044ac <_fseek_r+0x1e0>
 8004330:	00800084 	movi	r2,2
 8004334:	98801026 	beq	r19,r2,8004378 <_fseek_r+0xac>
 8004338:	98000f26 	beq	r19,zero,8004378 <_fseek_r+0xac>
 800433c:	00800584 	movi	r2,22
 8004340:	013fffc4 	movi	r4,-1
 8004344:	90800015 	stw	r2,0(r18)
 8004348:	2005883a 	mov	r2,r4
 800434c:	dfc01717 	ldw	ra,92(sp)
 8004350:	ddc01617 	ldw	r23,88(sp)
 8004354:	dd801517 	ldw	r22,84(sp)
 8004358:	dd401417 	ldw	r21,80(sp)
 800435c:	dd001317 	ldw	r20,76(sp)
 8004360:	dcc01217 	ldw	r19,72(sp)
 8004364:	dc801117 	ldw	r18,68(sp)
 8004368:	dc401017 	ldw	r17,64(sp)
 800436c:	dc000f17 	ldw	r16,60(sp)
 8004370:	dec01804 	addi	sp,sp,96
 8004374:	f800283a 	ret
 8004378:	81800417 	ldw	r6,16(r16)
 800437c:	0023883a 	mov	r17,zero
 8004380:	002f883a 	mov	r23,zero
 8004384:	3000a626 	beq	r6,zero,8004620 <_fseek_r+0x354>
 8004388:	8100030b 	ldhu	r4,12(r16)
 800438c:	2082068c 	andi	r2,r4,2074
 8004390:	1000081e 	bne	r2,zero,80043b4 <_fseek_r+0xe8>
 8004394:	2081000c 	andi	r2,r4,1024
 8004398:	10001b1e 	bne	r2,zero,8004408 <_fseek_r+0x13c>
 800439c:	00820034 	movhi	r2,2048
 80043a0:	10956e04 	addi	r2,r2,21944
 80043a4:	a8800926 	beq	r21,r2,80043cc <_fseek_r+0x100>
 80043a8:	8080030b 	ldhu	r2,12(r16)
 80043ac:	10820014 	ori	r2,r2,2048
 80043b0:	8080030d 	sth	r2,12(r16)
 80043b4:	9009883a 	mov	r4,r18
 80043b8:	800b883a 	mov	r5,r16
 80043bc:	80097040 	call	8009704 <_fflush_r>
 80043c0:	1000a326 	beq	r2,zero,8004650 <_fseek_r+0x384>
 80043c4:	013fffc4 	movi	r4,-1
 80043c8:	003fdf06 	br	8004348 <_fseek_r+0x7c>
 80043cc:	8140038f 	ldh	r5,14(r16)
 80043d0:	283ff516 	blt	r5,zero,80043a8 <_fseek_r+0xdc>
 80043d4:	9009883a 	mov	r4,r18
 80043d8:	d80d883a 	mov	r6,sp
 80043dc:	800472c0 	call	800472c <_fstat_r>
 80043e0:	103ff11e 	bne	r2,zero,80043a8 <_fseek_r+0xdc>
 80043e4:	d8800117 	ldw	r2,4(sp)
 80043e8:	00e00014 	movui	r3,32768
 80043ec:	10bc000c 	andi	r2,r2,61440
 80043f0:	10ffed1e 	bne	r2,r3,80043a8 <_fseek_r+0xdc>
 80043f4:	80c0030b 	ldhu	r3,12(r16)
 80043f8:	00810004 	movi	r2,1024
 80043fc:	80801315 	stw	r2,76(r16)
 8004400:	1886b03a 	or	r3,r3,r2
 8004404:	80c0030d 	sth	r3,12(r16)
 8004408:	9800701e 	bne	r19,zero,80045cc <_fseek_r+0x300>
 800440c:	b029883a 	mov	r20,r22
 8004410:	b804c03a 	cmpne	r2,r23,zero
 8004414:	10003f1e 	bne	r2,zero,8004514 <_fseek_r+0x248>
 8004418:	8100030b 	ldhu	r4,12(r16)
 800441c:	2084000c 	andi	r2,r4,4096
 8004420:	1000a126 	beq	r2,zero,80046a8 <_fseek_r+0x3dc>
 8004424:	81801417 	ldw	r6,80(r16)
 8004428:	80c00117 	ldw	r3,4(r16)
 800442c:	81400c17 	ldw	r5,48(r16)
 8004430:	30e3c83a 	sub	r17,r6,r3
 8004434:	28008026 	beq	r5,zero,8004638 <_fseek_r+0x36c>
 8004438:	81c00f17 	ldw	r7,60(r16)
 800443c:	89e3c83a 	sub	r17,r17,r7
 8004440:	80800e17 	ldw	r2,56(r16)
 8004444:	81800417 	ldw	r6,16(r16)
 8004448:	88c7883a 	add	r3,r17,r3
 800444c:	1185c83a 	sub	r2,r2,r6
 8004450:	11cf883a 	add	r7,r2,r7
 8004454:	1887c83a 	sub	r3,r3,r2
 8004458:	2088000c 	andi	r2,r4,8192
 800445c:	10003e1e 	bne	r2,zero,8004558 <_fseek_r+0x28c>
 8004460:	a0c03d16 	blt	r20,r3,8004558 <_fseek_r+0x28c>
 8004464:	38c5883a 	add	r2,r7,r3
 8004468:	a0803b2e 	bgeu	r20,r2,8004558 <_fseek_r+0x28c>
 800446c:	a0c5c83a 	sub	r2,r20,r3
 8004470:	3887c83a 	sub	r3,r7,r2
 8004474:	3085883a 	add	r2,r6,r2
 8004478:	80800015 	stw	r2,0(r16)
 800447c:	80c00115 	stw	r3,4(r16)
 8004480:	28000526 	beq	r5,zero,8004498 <_fseek_r+0x1cc>
 8004484:	80801004 	addi	r2,r16,64
 8004488:	28800226 	beq	r5,r2,8004494 <_fseek_r+0x1c8>
 800448c:	9009883a 	mov	r4,r18
 8004490:	8003fb80 	call	8003fb8 <_free_r>
 8004494:	80000c15 	stw	zero,48(r16)
 8004498:	8080030b 	ldhu	r2,12(r16)
 800449c:	0009883a 	mov	r4,zero
 80044a0:	10bff7cc 	andi	r2,r2,65503
 80044a4:	8080030d 	sth	r2,12(r16)
 80044a8:	003fa706 	br	8004348 <_fseek_r+0x7c>
 80044ac:	9009883a 	mov	r4,r18
 80044b0:	800b883a 	mov	r5,r16
 80044b4:	80097040 	call	8009704 <_fflush_r>
 80044b8:	8100030b 	ldhu	r4,12(r16)
 80044bc:	2084000c 	andi	r2,r4,4096
 80044c0:	10008726 	beq	r2,zero,80046e0 <_fseek_r+0x414>
 80044c4:	84401417 	ldw	r17,80(r16)
 80044c8:	2080010c 	andi	r2,r4,4
 80044cc:	1000171e 	bne	r2,zero,800452c <_fseek_r+0x260>
 80044d0:	2080020c 	andi	r2,r4,8
 80044d4:	10003b26 	beq	r2,zero,80045c4 <_fseek_r+0x2f8>
 80044d8:	80800017 	ldw	r2,0(r16)
 80044dc:	10003926 	beq	r2,zero,80045c4 <_fseek_r+0x2f8>
 80044e0:	81800417 	ldw	r6,16(r16)
 80044e4:	1185c83a 	sub	r2,r2,r6
 80044e8:	88a3883a 	add	r17,r17,r2
 80044ec:	00001606 	br	8004548 <_fseek_r+0x27c>
 80044f0:	800999c0 	call	800999c <__sinit>
 80044f4:	8080030b 	ldhu	r2,12(r16)
 80044f8:	00c04204 	movi	r3,264
 80044fc:	1080420c 	andi	r2,r2,264
 8004500:	10ff871e 	bne	r2,r3,8004320 <_fseek_r+0x54>
 8004504:	9009883a 	mov	r4,r18
 8004508:	800b883a 	mov	r5,r16
 800450c:	80097040 	call	8009704 <_fflush_r>
 8004510:	003f8306 	br	8004320 <_fseek_r+0x54>
 8004514:	81400c17 	ldw	r5,48(r16)
 8004518:	28004526 	beq	r5,zero,8004630 <_fseek_r+0x364>
 800451c:	8100030b 	ldhu	r4,12(r16)
 8004520:	80c00117 	ldw	r3,4(r16)
 8004524:	81c00f17 	ldw	r7,60(r16)
 8004528:	003fc506 	br	8004440 <_fseek_r+0x174>
 800452c:	80c00117 	ldw	r3,4(r16)
 8004530:	80800c17 	ldw	r2,48(r16)
 8004534:	88e3c83a 	sub	r17,r17,r3
 8004538:	10002226 	beq	r2,zero,80045c4 <_fseek_r+0x2f8>
 800453c:	81c00f17 	ldw	r7,60(r16)
 8004540:	81800417 	ldw	r6,16(r16)
 8004544:	89e3c83a 	sub	r17,r17,r7
 8004548:	b46d883a 	add	r22,r22,r17
 800454c:	0027883a 	mov	r19,zero
 8004550:	05c00044 	movi	r23,1
 8004554:	003f8b06 	br	8004384 <_fseek_r+0xb8>
 8004558:	80801317 	ldw	r2,76(r16)
 800455c:	81400717 	ldw	r5,28(r16)
 8004560:	9009883a 	mov	r4,r18
 8004564:	0085c83a 	sub	r2,zero,r2
 8004568:	a0a2703a 	and	r17,r20,r2
 800456c:	880d883a 	mov	r6,r17
 8004570:	000f883a 	mov	r7,zero
 8004574:	a83ee83a 	callr	r21
 8004578:	00ffffc4 	movi	r3,-1
 800457c:	10ff8d26 	beq	r2,r3,80043b4 <_fseek_r+0xe8>
 8004580:	80800417 	ldw	r2,16(r16)
 8004584:	81400c17 	ldw	r5,48(r16)
 8004588:	80000115 	stw	zero,4(r16)
 800458c:	80800015 	stw	r2,0(r16)
 8004590:	28000526 	beq	r5,zero,80045a8 <_fseek_r+0x2dc>
 8004594:	80801004 	addi	r2,r16,64
 8004598:	28800226 	beq	r5,r2,80045a4 <_fseek_r+0x2d8>
 800459c:	9009883a 	mov	r4,r18
 80045a0:	8003fb80 	call	8003fb8 <_free_r>
 80045a4:	80000c15 	stw	zero,48(r16)
 80045a8:	8080030b 	ldhu	r2,12(r16)
 80045ac:	a463c83a 	sub	r17,r20,r17
 80045b0:	10bff7cc 	andi	r2,r2,65503
 80045b4:	8080030d 	sth	r2,12(r16)
 80045b8:	88000c1e 	bne	r17,zero,80045ec <_fseek_r+0x320>
 80045bc:	0009883a 	mov	r4,zero
 80045c0:	003f6106 	br	8004348 <_fseek_r+0x7c>
 80045c4:	81800417 	ldw	r6,16(r16)
 80045c8:	003fdf06 	br	8004548 <_fseek_r+0x27c>
 80045cc:	8140038f 	ldh	r5,14(r16)
 80045d0:	9009883a 	mov	r4,r18
 80045d4:	d80d883a 	mov	r6,sp
 80045d8:	800472c0 	call	800472c <_fstat_r>
 80045dc:	103f751e 	bne	r2,zero,80043b4 <_fseek_r+0xe8>
 80045e0:	d8800417 	ldw	r2,16(sp)
 80045e4:	b0a9883a 	add	r20,r22,r2
 80045e8:	003f8906 	br	8004410 <_fseek_r+0x144>
 80045ec:	9009883a 	mov	r4,r18
 80045f0:	800b883a 	mov	r5,r16
 80045f4:	80053600 	call	8005360 <__srefill_r>
 80045f8:	103f6e1e 	bne	r2,zero,80043b4 <_fseek_r+0xe8>
 80045fc:	80c00117 	ldw	r3,4(r16)
 8004600:	1c7f6c36 	bltu	r3,r17,80043b4 <_fseek_r+0xe8>
 8004604:	80800017 	ldw	r2,0(r16)
 8004608:	1c47c83a 	sub	r3,r3,r17
 800460c:	0009883a 	mov	r4,zero
 8004610:	1445883a 	add	r2,r2,r17
 8004614:	80c00115 	stw	r3,4(r16)
 8004618:	80800015 	stw	r2,0(r16)
 800461c:	003f4a06 	br	8004348 <_fseek_r+0x7c>
 8004620:	9009883a 	mov	r4,r18
 8004624:	800b883a 	mov	r5,r16
 8004628:	80047a00 	call	80047a0 <__smakebuf_r>
 800462c:	003f5606 	br	8004388 <_fseek_r+0xbc>
 8004630:	8100030b 	ldhu	r4,12(r16)
 8004634:	80c00117 	ldw	r3,4(r16)
 8004638:	80800017 	ldw	r2,0(r16)
 800463c:	81800417 	ldw	r6,16(r16)
 8004640:	1185c83a 	sub	r2,r2,r6
 8004644:	10cf883a 	add	r7,r2,r3
 8004648:	8887c83a 	sub	r3,r17,r2
 800464c:	003f8206 	br	8004458 <_fseek_r+0x18c>
 8004650:	81400717 	ldw	r5,28(r16)
 8004654:	b00d883a 	mov	r6,r22
 8004658:	980f883a 	mov	r7,r19
 800465c:	9009883a 	mov	r4,r18
 8004660:	a83ee83a 	callr	r21
 8004664:	00ffffc4 	movi	r3,-1
 8004668:	10ff5626 	beq	r2,r3,80043c4 <_fseek_r+0xf8>
 800466c:	81400c17 	ldw	r5,48(r16)
 8004670:	28000526 	beq	r5,zero,8004688 <_fseek_r+0x3bc>
 8004674:	80801004 	addi	r2,r16,64
 8004678:	28800226 	beq	r5,r2,8004684 <_fseek_r+0x3b8>
 800467c:	9009883a 	mov	r4,r18
 8004680:	8003fb80 	call	8003fb8 <_free_r>
 8004684:	80000c15 	stw	zero,48(r16)
 8004688:	8080030b 	ldhu	r2,12(r16)
 800468c:	80c00417 	ldw	r3,16(r16)
 8004690:	0009883a 	mov	r4,zero
 8004694:	10bdf7cc 	andi	r2,r2,63455
 8004698:	8080030d 	sth	r2,12(r16)
 800469c:	80c00015 	stw	r3,0(r16)
 80046a0:	80000115 	stw	zero,4(r16)
 80046a4:	003f2806 	br	8004348 <_fseek_r+0x7c>
 80046a8:	81400717 	ldw	r5,28(r16)
 80046ac:	000d883a 	mov	r6,zero
 80046b0:	9009883a 	mov	r4,r18
 80046b4:	01c00044 	movi	r7,1
 80046b8:	a83ee83a 	callr	r21
 80046bc:	100d883a 	mov	r6,r2
 80046c0:	00bfffc4 	movi	r2,-1
 80046c4:	30bf3b26 	beq	r6,r2,80043b4 <_fseek_r+0xe8>
 80046c8:	8100030b 	ldhu	r4,12(r16)
 80046cc:	003f5606 	br	8004428 <_fseek_r+0x15c>
 80046d0:	00800744 	movi	r2,29
 80046d4:	013fffc4 	movi	r4,-1
 80046d8:	90800015 	stw	r2,0(r18)
 80046dc:	003f1a06 	br	8004348 <_fseek_r+0x7c>
 80046e0:	81400717 	ldw	r5,28(r16)
 80046e4:	980f883a 	mov	r7,r19
 80046e8:	9009883a 	mov	r4,r18
 80046ec:	000d883a 	mov	r6,zero
 80046f0:	a83ee83a 	callr	r21
 80046f4:	1023883a 	mov	r17,r2
 80046f8:	00bfffc4 	movi	r2,-1
 80046fc:	88bf3126 	beq	r17,r2,80043c4 <_fseek_r+0xf8>
 8004700:	8100030b 	ldhu	r4,12(r16)
 8004704:	003f7006 	br	80044c8 <_fseek_r+0x1fc>

08004708 <fseek>:
 8004708:	008200b4 	movhi	r2,2050
 800470c:	10a7cd04 	addi	r2,r2,-24780
 8004710:	2013883a 	mov	r9,r4
 8004714:	11000017 	ldw	r4,0(r2)
 8004718:	2805883a 	mov	r2,r5
 800471c:	300f883a 	mov	r7,r6
 8004720:	480b883a 	mov	r5,r9
 8004724:	100d883a 	mov	r6,r2
 8004728:	80042cc1 	jmpi	80042cc <_fseek_r>

0800472c <_fstat_r>:
 800472c:	defffd04 	addi	sp,sp,-12
 8004730:	dc000015 	stw	r16,0(sp)
 8004734:	040200b4 	movhi	r16,2050
 8004738:	842f3604 	addi	r16,r16,-17192
 800473c:	dc400115 	stw	r17,4(sp)
 8004740:	80000015 	stw	zero,0(r16)
 8004744:	2023883a 	mov	r17,r4
 8004748:	2809883a 	mov	r4,r5
 800474c:	300b883a 	mov	r5,r6
 8004750:	dfc00215 	stw	ra,8(sp)
 8004754:	800e4e00 	call	800e4e0 <fstat>
 8004758:	1007883a 	mov	r3,r2
 800475c:	00bfffc4 	movi	r2,-1
 8004760:	18800626 	beq	r3,r2,800477c <_fstat_r+0x50>
 8004764:	1805883a 	mov	r2,r3
 8004768:	dfc00217 	ldw	ra,8(sp)
 800476c:	dc400117 	ldw	r17,4(sp)
 8004770:	dc000017 	ldw	r16,0(sp)
 8004774:	dec00304 	addi	sp,sp,12
 8004778:	f800283a 	ret
 800477c:	80800017 	ldw	r2,0(r16)
 8004780:	103ff826 	beq	r2,zero,8004764 <_fstat_r+0x38>
 8004784:	88800015 	stw	r2,0(r17)
 8004788:	1805883a 	mov	r2,r3
 800478c:	dfc00217 	ldw	ra,8(sp)
 8004790:	dc400117 	ldw	r17,4(sp)
 8004794:	dc000017 	ldw	r16,0(sp)
 8004798:	dec00304 	addi	sp,sp,12
 800479c:	f800283a 	ret

080047a0 <__smakebuf_r>:
 80047a0:	2880030b 	ldhu	r2,12(r5)
 80047a4:	deffed04 	addi	sp,sp,-76
 80047a8:	dc401015 	stw	r17,64(sp)
 80047ac:	1080008c 	andi	r2,r2,2
 80047b0:	dc000f15 	stw	r16,60(sp)
 80047b4:	dfc01215 	stw	ra,72(sp)
 80047b8:	dc801115 	stw	r18,68(sp)
 80047bc:	2821883a 	mov	r16,r5
 80047c0:	2023883a 	mov	r17,r4
 80047c4:	10000b26 	beq	r2,zero,80047f4 <__smakebuf_r+0x54>
 80047c8:	28c010c4 	addi	r3,r5,67
 80047cc:	00800044 	movi	r2,1
 80047d0:	28800515 	stw	r2,20(r5)
 80047d4:	28c00415 	stw	r3,16(r5)
 80047d8:	28c00015 	stw	r3,0(r5)
 80047dc:	dfc01217 	ldw	ra,72(sp)
 80047e0:	dc801117 	ldw	r18,68(sp)
 80047e4:	dc401017 	ldw	r17,64(sp)
 80047e8:	dc000f17 	ldw	r16,60(sp)
 80047ec:	dec01304 	addi	sp,sp,76
 80047f0:	f800283a 	ret
 80047f4:	2940038f 	ldh	r5,14(r5)
 80047f8:	28002116 	blt	r5,zero,8004880 <__smakebuf_r+0xe0>
 80047fc:	d80d883a 	mov	r6,sp
 8004800:	800472c0 	call	800472c <_fstat_r>
 8004804:	10001e16 	blt	r2,zero,8004880 <__smakebuf_r+0xe0>
 8004808:	d8800117 	ldw	r2,4(sp)
 800480c:	00e00014 	movui	r3,32768
 8004810:	113c000c 	andi	r4,r2,61440
 8004814:	20c03126 	beq	r4,r3,80048dc <__smakebuf_r+0x13c>
 8004818:	8080030b 	ldhu	r2,12(r16)
 800481c:	00c80004 	movi	r3,8192
 8004820:	10820014 	ori	r2,r2,2048
 8004824:	8080030d 	sth	r2,12(r16)
 8004828:	20c01e26 	beq	r4,r3,80048a4 <__smakebuf_r+0x104>
 800482c:	04810004 	movi	r18,1024
 8004830:	8809883a 	mov	r4,r17
 8004834:	900b883a 	mov	r5,r18
 8004838:	800495c0 	call	800495c <_malloc_r>
 800483c:	1009883a 	mov	r4,r2
 8004840:	10003126 	beq	r2,zero,8004908 <__smakebuf_r+0x168>
 8004844:	80c0030b 	ldhu	r3,12(r16)
 8004848:	00820074 	movhi	r2,2049
 800484c:	10a6a004 	addi	r2,r2,-25984
 8004850:	88800f15 	stw	r2,60(r17)
 8004854:	18c02014 	ori	r3,r3,128
 8004858:	84800515 	stw	r18,20(r16)
 800485c:	80c0030d 	sth	r3,12(r16)
 8004860:	81000415 	stw	r4,16(r16)
 8004864:	81000015 	stw	r4,0(r16)
 8004868:	dfc01217 	ldw	ra,72(sp)
 800486c:	dc801117 	ldw	r18,68(sp)
 8004870:	dc401017 	ldw	r17,64(sp)
 8004874:	dc000f17 	ldw	r16,60(sp)
 8004878:	dec01304 	addi	sp,sp,76
 800487c:	f800283a 	ret
 8004880:	80c0030b 	ldhu	r3,12(r16)
 8004884:	1880200c 	andi	r2,r3,128
 8004888:	10000426 	beq	r2,zero,800489c <__smakebuf_r+0xfc>
 800488c:	04801004 	movi	r18,64
 8004890:	18820014 	ori	r2,r3,2048
 8004894:	8080030d 	sth	r2,12(r16)
 8004898:	003fe506 	br	8004830 <__smakebuf_r+0x90>
 800489c:	04810004 	movi	r18,1024
 80048a0:	003ffb06 	br	8004890 <__smakebuf_r+0xf0>
 80048a4:	8140038f 	ldh	r5,14(r16)
 80048a8:	8809883a 	mov	r4,r17
 80048ac:	800a3fc0 	call	800a3fc <_isatty_r>
 80048b0:	103fde26 	beq	r2,zero,800482c <__smakebuf_r+0x8c>
 80048b4:	8080030b 	ldhu	r2,12(r16)
 80048b8:	80c010c4 	addi	r3,r16,67
 80048bc:	04810004 	movi	r18,1024
 80048c0:	10800054 	ori	r2,r2,1
 80048c4:	8080030d 	sth	r2,12(r16)
 80048c8:	00800044 	movi	r2,1
 80048cc:	80c00415 	stw	r3,16(r16)
 80048d0:	80800515 	stw	r2,20(r16)
 80048d4:	80c00015 	stw	r3,0(r16)
 80048d8:	003fd506 	br	8004830 <__smakebuf_r+0x90>
 80048dc:	80c00a17 	ldw	r3,40(r16)
 80048e0:	00820034 	movhi	r2,2048
 80048e4:	10956e04 	addi	r2,r2,21944
 80048e8:	18bfcb1e 	bne	r3,r2,8004818 <__smakebuf_r+0x78>
 80048ec:	8080030b 	ldhu	r2,12(r16)
 80048f0:	00c10004 	movi	r3,1024
 80048f4:	1825883a 	mov	r18,r3
 80048f8:	10c4b03a 	or	r2,r2,r3
 80048fc:	8080030d 	sth	r2,12(r16)
 8004900:	80c01315 	stw	r3,76(r16)
 8004904:	003fca06 	br	8004830 <__smakebuf_r+0x90>
 8004908:	8100030b 	ldhu	r4,12(r16)
 800490c:	2080800c 	andi	r2,r4,512
 8004910:	103fb21e 	bne	r2,zero,80047dc <__smakebuf_r+0x3c>
 8004914:	80c010c4 	addi	r3,r16,67
 8004918:	21000094 	ori	r4,r4,2
 800491c:	00800044 	movi	r2,1
 8004920:	80800515 	stw	r2,20(r16)
 8004924:	8100030d 	sth	r4,12(r16)
 8004928:	80c00415 	stw	r3,16(r16)
 800492c:	80c00015 	stw	r3,0(r16)
 8004930:	003faa06 	br	80047dc <__smakebuf_r+0x3c>

08004934 <free>:
 8004934:	008200b4 	movhi	r2,2050
 8004938:	10a7cd04 	addi	r2,r2,-24780
 800493c:	200b883a 	mov	r5,r4
 8004940:	11000017 	ldw	r4,0(r2)
 8004944:	8003fb81 	jmpi	8003fb8 <_free_r>

08004948 <malloc>:
 8004948:	008200b4 	movhi	r2,2050
 800494c:	10a7cd04 	addi	r2,r2,-24780
 8004950:	200b883a 	mov	r5,r4
 8004954:	11000017 	ldw	r4,0(r2)
 8004958:	800495c1 	jmpi	800495c <_malloc_r>

0800495c <_malloc_r>:
 800495c:	defff604 	addi	sp,sp,-40
 8004960:	28c002c4 	addi	r3,r5,11
 8004964:	00800584 	movi	r2,22
 8004968:	dc800215 	stw	r18,8(sp)
 800496c:	dfc00915 	stw	ra,36(sp)
 8004970:	df000815 	stw	fp,32(sp)
 8004974:	ddc00715 	stw	r23,28(sp)
 8004978:	dd800615 	stw	r22,24(sp)
 800497c:	dd400515 	stw	r21,20(sp)
 8004980:	dd000415 	stw	r20,16(sp)
 8004984:	dcc00315 	stw	r19,12(sp)
 8004988:	dc400115 	stw	r17,4(sp)
 800498c:	dc000015 	stw	r16,0(sp)
 8004990:	2025883a 	mov	r18,r4
 8004994:	10c01236 	bltu	r2,r3,80049e0 <_malloc_r+0x84>
 8004998:	04400404 	movi	r17,16
 800499c:	8940142e 	bgeu	r17,r5,80049f0 <_malloc_r+0x94>
 80049a0:	00800304 	movi	r2,12
 80049a4:	0007883a 	mov	r3,zero
 80049a8:	90800015 	stw	r2,0(r18)
 80049ac:	1805883a 	mov	r2,r3
 80049b0:	dfc00917 	ldw	ra,36(sp)
 80049b4:	df000817 	ldw	fp,32(sp)
 80049b8:	ddc00717 	ldw	r23,28(sp)
 80049bc:	dd800617 	ldw	r22,24(sp)
 80049c0:	dd400517 	ldw	r21,20(sp)
 80049c4:	dd000417 	ldw	r20,16(sp)
 80049c8:	dcc00317 	ldw	r19,12(sp)
 80049cc:	dc800217 	ldw	r18,8(sp)
 80049d0:	dc400117 	ldw	r17,4(sp)
 80049d4:	dc000017 	ldw	r16,0(sp)
 80049d8:	dec00a04 	addi	sp,sp,40
 80049dc:	f800283a 	ret
 80049e0:	00bffe04 	movi	r2,-8
 80049e4:	18a2703a 	and	r17,r3,r2
 80049e8:	883fed16 	blt	r17,zero,80049a0 <_malloc_r+0x44>
 80049ec:	897fec36 	bltu	r17,r5,80049a0 <_malloc_r+0x44>
 80049f0:	9009883a 	mov	r4,r18
 80049f4:	800e9dc0 	call	800e9dc <__malloc_lock>
 80049f8:	00807dc4 	movi	r2,503
 80049fc:	14402b2e 	bgeu	r2,r17,8004aac <_malloc_r+0x150>
 8004a00:	8806d27a 	srli	r3,r17,9
 8004a04:	18003f1e 	bne	r3,zero,8004b04 <_malloc_r+0x1a8>
 8004a08:	880cd0fa 	srli	r6,r17,3
 8004a0c:	300490fa 	slli	r2,r6,3
 8004a10:	02c200b4 	movhi	r11,2050
 8004a14:	5ae19204 	addi	r11,r11,-31160
 8004a18:	12cb883a 	add	r5,r2,r11
 8004a1c:	2c000317 	ldw	r16,12(r5)
 8004a20:	580f883a 	mov	r7,r11
 8004a24:	2c00041e 	bne	r5,r16,8004a38 <_malloc_r+0xdc>
 8004a28:	00000a06 	br	8004a54 <_malloc_r+0xf8>
 8004a2c:	1800860e 	bge	r3,zero,8004c48 <_malloc_r+0x2ec>
 8004a30:	84000317 	ldw	r16,12(r16)
 8004a34:	2c000726 	beq	r5,r16,8004a54 <_malloc_r+0xf8>
 8004a38:	80800117 	ldw	r2,4(r16)
 8004a3c:	00ffff04 	movi	r3,-4
 8004a40:	10c8703a 	and	r4,r2,r3
 8004a44:	2447c83a 	sub	r3,r4,r17
 8004a48:	008003c4 	movi	r2,15
 8004a4c:	10fff70e 	bge	r2,r3,8004a2c <_malloc_r+0xd0>
 8004a50:	31bfffc4 	addi	r6,r6,-1
 8004a54:	32400044 	addi	r9,r6,1
 8004a58:	028200b4 	movhi	r10,2050
 8004a5c:	52a19404 	addi	r10,r10,-31152
 8004a60:	54000217 	ldw	r16,8(r10)
 8004a64:	8280a026 	beq	r16,r10,8004ce8 <_malloc_r+0x38c>
 8004a68:	80800117 	ldw	r2,4(r16)
 8004a6c:	00ffff04 	movi	r3,-4
 8004a70:	10ca703a 	and	r5,r2,r3
 8004a74:	2c4dc83a 	sub	r6,r5,r17
 8004a78:	008003c4 	movi	r2,15
 8004a7c:	11808316 	blt	r2,r6,8004c8c <_malloc_r+0x330>
 8004a80:	52800315 	stw	r10,12(r10)
 8004a84:	52800215 	stw	r10,8(r10)
 8004a88:	30002916 	blt	r6,zero,8004b30 <_malloc_r+0x1d4>
 8004a8c:	8147883a 	add	r3,r16,r5
 8004a90:	18800117 	ldw	r2,4(r3)
 8004a94:	9009883a 	mov	r4,r18
 8004a98:	10800054 	ori	r2,r2,1
 8004a9c:	18800115 	stw	r2,4(r3)
 8004aa0:	800e9fc0 	call	800e9fc <__malloc_unlock>
 8004aa4:	80c00204 	addi	r3,r16,8
 8004aa8:	003fc006 	br	80049ac <_malloc_r+0x50>
 8004aac:	02c200b4 	movhi	r11,2050
 8004ab0:	5ae19204 	addi	r11,r11,-31160
 8004ab4:	8ac5883a 	add	r2,r17,r11
 8004ab8:	14000317 	ldw	r16,12(r2)
 8004abc:	580f883a 	mov	r7,r11
 8004ac0:	8806d0fa 	srli	r3,r17,3
 8004ac4:	14006c26 	beq	r2,r16,8004c78 <_malloc_r+0x31c>
 8004ac8:	80c00117 	ldw	r3,4(r16)
 8004acc:	00bfff04 	movi	r2,-4
 8004ad0:	81800317 	ldw	r6,12(r16)
 8004ad4:	1886703a 	and	r3,r3,r2
 8004ad8:	80c7883a 	add	r3,r16,r3
 8004adc:	18800117 	ldw	r2,4(r3)
 8004ae0:	81400217 	ldw	r5,8(r16)
 8004ae4:	9009883a 	mov	r4,r18
 8004ae8:	10800054 	ori	r2,r2,1
 8004aec:	18800115 	stw	r2,4(r3)
 8004af0:	31400215 	stw	r5,8(r6)
 8004af4:	29800315 	stw	r6,12(r5)
 8004af8:	800e9fc0 	call	800e9fc <__malloc_unlock>
 8004afc:	80c00204 	addi	r3,r16,8
 8004b00:	003faa06 	br	80049ac <_malloc_r+0x50>
 8004b04:	00800104 	movi	r2,4
 8004b08:	10c0052e 	bgeu	r2,r3,8004b20 <_malloc_r+0x1c4>
 8004b0c:	00800504 	movi	r2,20
 8004b10:	10c07836 	bltu	r2,r3,8004cf4 <_malloc_r+0x398>
 8004b14:	198016c4 	addi	r6,r3,91
 8004b18:	300490fa 	slli	r2,r6,3
 8004b1c:	003fbc06 	br	8004a10 <_malloc_r+0xb4>
 8004b20:	8804d1ba 	srli	r2,r17,6
 8004b24:	11800e04 	addi	r6,r2,56
 8004b28:	300490fa 	slli	r2,r6,3
 8004b2c:	003fb806 	br	8004a10 <_malloc_r+0xb4>
 8004b30:	00807fc4 	movi	r2,511
 8004b34:	1140bb36 	bltu	r2,r5,8004e24 <_malloc_r+0x4c8>
 8004b38:	2806d0fa 	srli	r3,r5,3
 8004b3c:	573ffe04 	addi	fp,r10,-8
 8004b40:	00800044 	movi	r2,1
 8004b44:	180890fa 	slli	r4,r3,3
 8004b48:	1807d0ba 	srai	r3,r3,2
 8004b4c:	e1c00117 	ldw	r7,4(fp)
 8004b50:	5909883a 	add	r4,r11,r4
 8004b54:	21400217 	ldw	r5,8(r4)
 8004b58:	10c4983a 	sll	r2,r2,r3
 8004b5c:	81000315 	stw	r4,12(r16)
 8004b60:	81400215 	stw	r5,8(r16)
 8004b64:	388eb03a 	or	r7,r7,r2
 8004b68:	2c000315 	stw	r16,12(r5)
 8004b6c:	24000215 	stw	r16,8(r4)
 8004b70:	e1c00115 	stw	r7,4(fp)
 8004b74:	4807883a 	mov	r3,r9
 8004b78:	4800cd16 	blt	r9,zero,8004eb0 <_malloc_r+0x554>
 8004b7c:	1807d0ba 	srai	r3,r3,2
 8004b80:	00800044 	movi	r2,1
 8004b84:	10c8983a 	sll	r4,r2,r3
 8004b88:	39004436 	bltu	r7,r4,8004c9c <_malloc_r+0x340>
 8004b8c:	21c4703a 	and	r2,r4,r7
 8004b90:	10000a1e 	bne	r2,zero,8004bbc <_malloc_r+0x260>
 8004b94:	2109883a 	add	r4,r4,r4
 8004b98:	00bfff04 	movi	r2,-4
 8004b9c:	4884703a 	and	r2,r9,r2
 8004ba0:	3906703a 	and	r3,r7,r4
 8004ba4:	12400104 	addi	r9,r2,4
 8004ba8:	1800041e 	bne	r3,zero,8004bbc <_malloc_r+0x260>
 8004bac:	2109883a 	add	r4,r4,r4
 8004bb0:	3904703a 	and	r2,r7,r4
 8004bb4:	4a400104 	addi	r9,r9,4
 8004bb8:	103ffc26 	beq	r2,zero,8004bac <_malloc_r+0x250>
 8004bbc:	480490fa 	slli	r2,r9,3
 8004bc0:	4819883a 	mov	r12,r9
 8004bc4:	023fff04 	movi	r8,-4
 8004bc8:	589b883a 	add	r13,r11,r2
 8004bcc:	6807883a 	mov	r3,r13
 8004bd0:	014003c4 	movi	r5,15
 8004bd4:	1c000317 	ldw	r16,12(r3)
 8004bd8:	1c00041e 	bne	r3,r16,8004bec <_malloc_r+0x290>
 8004bdc:	0000a706 	br	8004e7c <_malloc_r+0x520>
 8004be0:	3000ab0e 	bge	r6,zero,8004e90 <_malloc_r+0x534>
 8004be4:	84000317 	ldw	r16,12(r16)
 8004be8:	1c00a426 	beq	r3,r16,8004e7c <_malloc_r+0x520>
 8004bec:	80800117 	ldw	r2,4(r16)
 8004bf0:	1204703a 	and	r2,r2,r8
 8004bf4:	144dc83a 	sub	r6,r2,r17
 8004bf8:	29bff90e 	bge	r5,r6,8004be0 <_malloc_r+0x284>
 8004bfc:	81000317 	ldw	r4,12(r16)
 8004c00:	80c00217 	ldw	r3,8(r16)
 8004c04:	89400054 	ori	r5,r17,1
 8004c08:	8445883a 	add	r2,r16,r17
 8004c0c:	20c00215 	stw	r3,8(r4)
 8004c10:	19000315 	stw	r4,12(r3)
 8004c14:	81400115 	stw	r5,4(r16)
 8004c18:	1187883a 	add	r3,r2,r6
 8004c1c:	31000054 	ori	r4,r6,1
 8004c20:	50800315 	stw	r2,12(r10)
 8004c24:	50800215 	stw	r2,8(r10)
 8004c28:	19800015 	stw	r6,0(r3)
 8004c2c:	11000115 	stw	r4,4(r2)
 8004c30:	12800215 	stw	r10,8(r2)
 8004c34:	12800315 	stw	r10,12(r2)
 8004c38:	9009883a 	mov	r4,r18
 8004c3c:	800e9fc0 	call	800e9fc <__malloc_unlock>
 8004c40:	80c00204 	addi	r3,r16,8
 8004c44:	003f5906 	br	80049ac <_malloc_r+0x50>
 8004c48:	8109883a 	add	r4,r16,r4
 8004c4c:	20800117 	ldw	r2,4(r4)
 8004c50:	80c00217 	ldw	r3,8(r16)
 8004c54:	81400317 	ldw	r5,12(r16)
 8004c58:	10800054 	ori	r2,r2,1
 8004c5c:	20800115 	stw	r2,4(r4)
 8004c60:	28c00215 	stw	r3,8(r5)
 8004c64:	19400315 	stw	r5,12(r3)
 8004c68:	9009883a 	mov	r4,r18
 8004c6c:	800e9fc0 	call	800e9fc <__malloc_unlock>
 8004c70:	80c00204 	addi	r3,r16,8
 8004c74:	003f4d06 	br	80049ac <_malloc_r+0x50>
 8004c78:	80800204 	addi	r2,r16,8
 8004c7c:	14000317 	ldw	r16,12(r2)
 8004c80:	143f911e 	bne	r2,r16,8004ac8 <_malloc_r+0x16c>
 8004c84:	1a400084 	addi	r9,r3,2
 8004c88:	003f7306 	br	8004a58 <_malloc_r+0xfc>
 8004c8c:	88c00054 	ori	r3,r17,1
 8004c90:	8445883a 	add	r2,r16,r17
 8004c94:	80c00115 	stw	r3,4(r16)
 8004c98:	003fdf06 	br	8004c18 <_malloc_r+0x2bc>
 8004c9c:	e4000217 	ldw	r16,8(fp)
 8004ca0:	00bfff04 	movi	r2,-4
 8004ca4:	80c00117 	ldw	r3,4(r16)
 8004ca8:	802d883a 	mov	r22,r16
 8004cac:	18aa703a 	and	r21,r3,r2
 8004cb0:	ac401636 	bltu	r21,r17,8004d0c <_malloc_r+0x3b0>
 8004cb4:	ac49c83a 	sub	r4,r21,r17
 8004cb8:	008003c4 	movi	r2,15
 8004cbc:	1100130e 	bge	r2,r4,8004d0c <_malloc_r+0x3b0>
 8004cc0:	88800054 	ori	r2,r17,1
 8004cc4:	8447883a 	add	r3,r16,r17
 8004cc8:	80800115 	stw	r2,4(r16)
 8004ccc:	20800054 	ori	r2,r4,1
 8004cd0:	18800115 	stw	r2,4(r3)
 8004cd4:	e0c00215 	stw	r3,8(fp)
 8004cd8:	9009883a 	mov	r4,r18
 8004cdc:	800e9fc0 	call	800e9fc <__malloc_unlock>
 8004ce0:	80c00204 	addi	r3,r16,8
 8004ce4:	003f3106 	br	80049ac <_malloc_r+0x50>
 8004ce8:	39c00117 	ldw	r7,4(r7)
 8004cec:	573ffe04 	addi	fp,r10,-8
 8004cf0:	003fa006 	br	8004b74 <_malloc_r+0x218>
 8004cf4:	00801504 	movi	r2,84
 8004cf8:	10c06736 	bltu	r2,r3,8004e98 <_malloc_r+0x53c>
 8004cfc:	8804d33a 	srli	r2,r17,12
 8004d00:	11801b84 	addi	r6,r2,110
 8004d04:	300490fa 	slli	r2,r6,3
 8004d08:	003f4106 	br	8004a10 <_malloc_r+0xb4>
 8004d0c:	d0a76d17 	ldw	r2,-25164(gp)
 8004d10:	d0e00617 	ldw	r3,-32744(gp)
 8004d14:	053fffc4 	movi	r20,-1
 8004d18:	10800404 	addi	r2,r2,16
 8004d1c:	88a7883a 	add	r19,r17,r2
 8004d20:	1d000326 	beq	r3,r20,8004d30 <_malloc_r+0x3d4>
 8004d24:	98c3ffc4 	addi	r3,r19,4095
 8004d28:	00bc0004 	movi	r2,-4096
 8004d2c:	18a6703a 	and	r19,r3,r2
 8004d30:	9009883a 	mov	r4,r18
 8004d34:	980b883a 	mov	r5,r19
 8004d38:	80055400 	call	8005540 <_sbrk_r>
 8004d3c:	1009883a 	mov	r4,r2
 8004d40:	15000426 	beq	r2,r20,8004d54 <_malloc_r+0x3f8>
 8004d44:	854b883a 	add	r5,r16,r21
 8004d48:	1029883a 	mov	r20,r2
 8004d4c:	11405a2e 	bgeu	r2,r5,8004eb8 <_malloc_r+0x55c>
 8004d50:	87000c26 	beq	r16,fp,8004d84 <_malloc_r+0x428>
 8004d54:	e4000217 	ldw	r16,8(fp)
 8004d58:	80c00117 	ldw	r3,4(r16)
 8004d5c:	00bfff04 	movi	r2,-4
 8004d60:	1884703a 	and	r2,r3,r2
 8004d64:	14400336 	bltu	r2,r17,8004d74 <_malloc_r+0x418>
 8004d68:	1449c83a 	sub	r4,r2,r17
 8004d6c:	008003c4 	movi	r2,15
 8004d70:	113fd316 	blt	r2,r4,8004cc0 <_malloc_r+0x364>
 8004d74:	9009883a 	mov	r4,r18
 8004d78:	800e9fc0 	call	800e9fc <__malloc_unlock>
 8004d7c:	0007883a 	mov	r3,zero
 8004d80:	003f0a06 	br	80049ac <_malloc_r+0x50>
 8004d84:	05c200b4 	movhi	r23,2050
 8004d88:	bdef4304 	addi	r23,r23,-17140
 8004d8c:	b8800017 	ldw	r2,0(r23)
 8004d90:	988d883a 	add	r6,r19,r2
 8004d94:	b9800015 	stw	r6,0(r23)
 8004d98:	d0e00617 	ldw	r3,-32744(gp)
 8004d9c:	00bfffc4 	movi	r2,-1
 8004da0:	18808e26 	beq	r3,r2,8004fdc <_malloc_r+0x680>
 8004da4:	2145c83a 	sub	r2,r4,r5
 8004da8:	3085883a 	add	r2,r6,r2
 8004dac:	b8800015 	stw	r2,0(r23)
 8004db0:	20c001cc 	andi	r3,r4,7
 8004db4:	18005f1e 	bne	r3,zero,8004f34 <_malloc_r+0x5d8>
 8004db8:	000b883a 	mov	r5,zero
 8004dbc:	a4c5883a 	add	r2,r20,r19
 8004dc0:	1083ffcc 	andi	r2,r2,4095
 8004dc4:	00c40004 	movi	r3,4096
 8004dc8:	1887c83a 	sub	r3,r3,r2
 8004dcc:	28e7883a 	add	r19,r5,r3
 8004dd0:	9009883a 	mov	r4,r18
 8004dd4:	980b883a 	mov	r5,r19
 8004dd8:	80055400 	call	8005540 <_sbrk_r>
 8004ddc:	1007883a 	mov	r3,r2
 8004de0:	00bfffc4 	movi	r2,-1
 8004de4:	18807a26 	beq	r3,r2,8004fd0 <_malloc_r+0x674>
 8004de8:	1d05c83a 	sub	r2,r3,r20
 8004dec:	9885883a 	add	r2,r19,r2
 8004df0:	10c00054 	ori	r3,r2,1
 8004df4:	b8800017 	ldw	r2,0(r23)
 8004df8:	a021883a 	mov	r16,r20
 8004dfc:	a0c00115 	stw	r3,4(r20)
 8004e00:	9885883a 	add	r2,r19,r2
 8004e04:	b8800015 	stw	r2,0(r23)
 8004e08:	e5000215 	stw	r20,8(fp)
 8004e0c:	b7003626 	beq	r22,fp,8004ee8 <_malloc_r+0x58c>
 8004e10:	018003c4 	movi	r6,15
 8004e14:	35404b36 	bltu	r6,r21,8004f44 <_malloc_r+0x5e8>
 8004e18:	00800044 	movi	r2,1
 8004e1c:	a0800115 	stw	r2,4(r20)
 8004e20:	003fcd06 	br	8004d58 <_malloc_r+0x3fc>
 8004e24:	2808d27a 	srli	r4,r5,9
 8004e28:	2000371e 	bne	r4,zero,8004f08 <_malloc_r+0x5ac>
 8004e2c:	2808d0fa 	srli	r4,r5,3
 8004e30:	200690fa 	slli	r3,r4,3
 8004e34:	1ad1883a 	add	r8,r3,r11
 8004e38:	41800217 	ldw	r6,8(r8)
 8004e3c:	41805b26 	beq	r8,r6,8004fac <_malloc_r+0x650>
 8004e40:	30800117 	ldw	r2,4(r6)
 8004e44:	00ffff04 	movi	r3,-4
 8004e48:	10c4703a 	and	r2,r2,r3
 8004e4c:	2880022e 	bgeu	r5,r2,8004e58 <_malloc_r+0x4fc>
 8004e50:	31800217 	ldw	r6,8(r6)
 8004e54:	41bffa1e 	bne	r8,r6,8004e40 <_malloc_r+0x4e4>
 8004e58:	32000317 	ldw	r8,12(r6)
 8004e5c:	39c00117 	ldw	r7,4(r7)
 8004e60:	82000315 	stw	r8,12(r16)
 8004e64:	81800215 	stw	r6,8(r16)
 8004e68:	070200b4 	movhi	fp,2050
 8004e6c:	e7219204 	addi	fp,fp,-31160
 8004e70:	34000315 	stw	r16,12(r6)
 8004e74:	44000215 	stw	r16,8(r8)
 8004e78:	003f3e06 	br	8004b74 <_malloc_r+0x218>
 8004e7c:	63000044 	addi	r12,r12,1
 8004e80:	608000cc 	andi	r2,r12,3
 8004e84:	10005d26 	beq	r2,zero,8004ffc <_malloc_r+0x6a0>
 8004e88:	18c00204 	addi	r3,r3,8
 8004e8c:	003f5106 	br	8004bd4 <_malloc_r+0x278>
 8004e90:	8089883a 	add	r4,r16,r2
 8004e94:	003f6d06 	br	8004c4c <_malloc_r+0x2f0>
 8004e98:	00805504 	movi	r2,340
 8004e9c:	10c02036 	bltu	r2,r3,8004f20 <_malloc_r+0x5c4>
 8004ea0:	8804d3fa 	srli	r2,r17,15
 8004ea4:	11801dc4 	addi	r6,r2,119
 8004ea8:	300490fa 	slli	r2,r6,3
 8004eac:	003ed806 	br	8004a10 <_malloc_r+0xb4>
 8004eb0:	48c000c4 	addi	r3,r9,3
 8004eb4:	003f3106 	br	8004b7c <_malloc_r+0x220>
 8004eb8:	05c200b4 	movhi	r23,2050
 8004ebc:	bdef4304 	addi	r23,r23,-17140
 8004ec0:	b8800017 	ldw	r2,0(r23)
 8004ec4:	988d883a 	add	r6,r19,r2
 8004ec8:	b9800015 	stw	r6,0(r23)
 8004ecc:	293fb21e 	bne	r5,r4,8004d98 <_malloc_r+0x43c>
 8004ed0:	2083ffcc 	andi	r2,r4,4095
 8004ed4:	103fb01e 	bne	r2,zero,8004d98 <_malloc_r+0x43c>
 8004ed8:	e4000217 	ldw	r16,8(fp)
 8004edc:	9d45883a 	add	r2,r19,r21
 8004ee0:	10800054 	ori	r2,r2,1
 8004ee4:	80800115 	stw	r2,4(r16)
 8004ee8:	b8c00017 	ldw	r3,0(r23)
 8004eec:	d0a76e17 	ldw	r2,-25160(gp)
 8004ef0:	10c0012e 	bgeu	r2,r3,8004ef8 <_malloc_r+0x59c>
 8004ef4:	d0e76e15 	stw	r3,-25160(gp)
 8004ef8:	d0a76f17 	ldw	r2,-25156(gp)
 8004efc:	10ff962e 	bgeu	r2,r3,8004d58 <_malloc_r+0x3fc>
 8004f00:	d0e76f15 	stw	r3,-25156(gp)
 8004f04:	003f9406 	br	8004d58 <_malloc_r+0x3fc>
 8004f08:	00800104 	movi	r2,4
 8004f0c:	11001e36 	bltu	r2,r4,8004f88 <_malloc_r+0x62c>
 8004f10:	2804d1ba 	srli	r2,r5,6
 8004f14:	11000e04 	addi	r4,r2,56
 8004f18:	200690fa 	slli	r3,r4,3
 8004f1c:	003fc506 	br	8004e34 <_malloc_r+0x4d8>
 8004f20:	00815504 	movi	r2,1364
 8004f24:	10c01d2e 	bgeu	r2,r3,8004f9c <_malloc_r+0x640>
 8004f28:	01801f84 	movi	r6,126
 8004f2c:	0080fc04 	movi	r2,1008
 8004f30:	003eb706 	br	8004a10 <_malloc_r+0xb4>
 8004f34:	00800204 	movi	r2,8
 8004f38:	10cbc83a 	sub	r5,r2,r3
 8004f3c:	2169883a 	add	r20,r4,r5
 8004f40:	003f9e06 	br	8004dbc <_malloc_r+0x460>
 8004f44:	00bffe04 	movi	r2,-8
 8004f48:	a93ffd04 	addi	r4,r21,-12
 8004f4c:	2088703a 	and	r4,r4,r2
 8004f50:	b10b883a 	add	r5,r22,r4
 8004f54:	00c00144 	movi	r3,5
 8004f58:	28c00215 	stw	r3,8(r5)
 8004f5c:	28c00115 	stw	r3,4(r5)
 8004f60:	b0800117 	ldw	r2,4(r22)
 8004f64:	1080004c 	andi	r2,r2,1
 8004f68:	2084b03a 	or	r2,r4,r2
 8004f6c:	b0800115 	stw	r2,4(r22)
 8004f70:	313fdd2e 	bgeu	r6,r4,8004ee8 <_malloc_r+0x58c>
 8004f74:	b1400204 	addi	r5,r22,8
 8004f78:	9009883a 	mov	r4,r18
 8004f7c:	8003fb80 	call	8003fb8 <_free_r>
 8004f80:	e4000217 	ldw	r16,8(fp)
 8004f84:	003fd806 	br	8004ee8 <_malloc_r+0x58c>
 8004f88:	00800504 	movi	r2,20
 8004f8c:	11001536 	bltu	r2,r4,8004fe4 <_malloc_r+0x688>
 8004f90:	210016c4 	addi	r4,r4,91
 8004f94:	200690fa 	slli	r3,r4,3
 8004f98:	003fa606 	br	8004e34 <_malloc_r+0x4d8>
 8004f9c:	8804d4ba 	srli	r2,r17,18
 8004fa0:	11801f04 	addi	r6,r2,124
 8004fa4:	300490fa 	slli	r2,r6,3
 8004fa8:	003e9906 	br	8004a10 <_malloc_r+0xb4>
 8004fac:	2009d0ba 	srai	r4,r4,2
 8004fb0:	014200b4 	movhi	r5,2050
 8004fb4:	29619204 	addi	r5,r5,-31160
 8004fb8:	00c00044 	movi	r3,1
 8004fbc:	28800117 	ldw	r2,4(r5)
 8004fc0:	1906983a 	sll	r3,r3,r4
 8004fc4:	10c4b03a 	or	r2,r2,r3
 8004fc8:	28800115 	stw	r2,4(r5)
 8004fcc:	003fa306 	br	8004e5c <_malloc_r+0x500>
 8004fd0:	0027883a 	mov	r19,zero
 8004fd4:	00c00044 	movi	r3,1
 8004fd8:	003f8606 	br	8004df4 <_malloc_r+0x498>
 8004fdc:	d1200615 	stw	r4,-32744(gp)
 8004fe0:	003f7306 	br	8004db0 <_malloc_r+0x454>
 8004fe4:	00801504 	movi	r2,84
 8004fe8:	11001936 	bltu	r2,r4,8005050 <_malloc_r+0x6f4>
 8004fec:	2804d33a 	srli	r2,r5,12
 8004ff0:	11001b84 	addi	r4,r2,110
 8004ff4:	200690fa 	slli	r3,r4,3
 8004ff8:	003f8e06 	br	8004e34 <_malloc_r+0x4d8>
 8004ffc:	480b883a 	mov	r5,r9
 8005000:	6807883a 	mov	r3,r13
 8005004:	288000cc 	andi	r2,r5,3
 8005008:	18fffe04 	addi	r3,r3,-8
 800500c:	297fffc4 	addi	r5,r5,-1
 8005010:	10001526 	beq	r2,zero,8005068 <_malloc_r+0x70c>
 8005014:	18800217 	ldw	r2,8(r3)
 8005018:	10fffa26 	beq	r2,r3,8005004 <_malloc_r+0x6a8>
 800501c:	2109883a 	add	r4,r4,r4
 8005020:	393f1e36 	bltu	r7,r4,8004c9c <_malloc_r+0x340>
 8005024:	203f1d26 	beq	r4,zero,8004c9c <_malloc_r+0x340>
 8005028:	21c4703a 	and	r2,r4,r7
 800502c:	10000226 	beq	r2,zero,8005038 <_malloc_r+0x6dc>
 8005030:	6013883a 	mov	r9,r12
 8005034:	003ee106 	br	8004bbc <_malloc_r+0x260>
 8005038:	2109883a 	add	r4,r4,r4
 800503c:	3904703a 	and	r2,r7,r4
 8005040:	63000104 	addi	r12,r12,4
 8005044:	103ffc26 	beq	r2,zero,8005038 <_malloc_r+0x6dc>
 8005048:	6013883a 	mov	r9,r12
 800504c:	003edb06 	br	8004bbc <_malloc_r+0x260>
 8005050:	00805504 	movi	r2,340
 8005054:	11000836 	bltu	r2,r4,8005078 <_malloc_r+0x71c>
 8005058:	2804d3fa 	srli	r2,r5,15
 800505c:	11001dc4 	addi	r4,r2,119
 8005060:	200690fa 	slli	r3,r4,3
 8005064:	003f7306 	br	8004e34 <_malloc_r+0x4d8>
 8005068:	0104303a 	nor	r2,zero,r4
 800506c:	388e703a 	and	r7,r7,r2
 8005070:	e1c00115 	stw	r7,4(fp)
 8005074:	003fe906 	br	800501c <_malloc_r+0x6c0>
 8005078:	00815504 	movi	r2,1364
 800507c:	1100032e 	bgeu	r2,r4,800508c <_malloc_r+0x730>
 8005080:	01001f84 	movi	r4,126
 8005084:	00c0fc04 	movi	r3,1008
 8005088:	003f6a06 	br	8004e34 <_malloc_r+0x4d8>
 800508c:	2804d4ba 	srli	r2,r5,18
 8005090:	11001f04 	addi	r4,r2,124
 8005094:	200690fa 	slli	r3,r4,3
 8005098:	003f6606 	br	8004e34 <_malloc_r+0x4d8>

0800509c <memcpy>:
 800509c:	01c003c4 	movi	r7,15
 80050a0:	2007883a 	mov	r3,r4
 80050a4:	3980032e 	bgeu	r7,r6,80050b4 <memcpy+0x18>
 80050a8:	2904b03a 	or	r2,r5,r4
 80050ac:	108000cc 	andi	r2,r2,3
 80050b0:	10000926 	beq	r2,zero,80050d8 <memcpy+0x3c>
 80050b4:	30000626 	beq	r6,zero,80050d0 <memcpy+0x34>
 80050b8:	30cd883a 	add	r6,r6,r3
 80050bc:	28800003 	ldbu	r2,0(r5)
 80050c0:	29400044 	addi	r5,r5,1
 80050c4:	18800005 	stb	r2,0(r3)
 80050c8:	18c00044 	addi	r3,r3,1
 80050cc:	30fffb1e 	bne	r6,r3,80050bc <memcpy+0x20>
 80050d0:	2005883a 	mov	r2,r4
 80050d4:	f800283a 	ret
 80050d8:	3811883a 	mov	r8,r7
 80050dc:	200f883a 	mov	r7,r4
 80050e0:	28c00017 	ldw	r3,0(r5)
 80050e4:	31bffc04 	addi	r6,r6,-16
 80050e8:	38c00015 	stw	r3,0(r7)
 80050ec:	28800117 	ldw	r2,4(r5)
 80050f0:	38800115 	stw	r2,4(r7)
 80050f4:	28c00217 	ldw	r3,8(r5)
 80050f8:	38c00215 	stw	r3,8(r7)
 80050fc:	28800317 	ldw	r2,12(r5)
 8005100:	29400404 	addi	r5,r5,16
 8005104:	38800315 	stw	r2,12(r7)
 8005108:	39c00404 	addi	r7,r7,16
 800510c:	41bff436 	bltu	r8,r6,80050e0 <memcpy+0x44>
 8005110:	008000c4 	movi	r2,3
 8005114:	1180072e 	bgeu	r2,r6,8005134 <memcpy+0x98>
 8005118:	1007883a 	mov	r3,r2
 800511c:	28800017 	ldw	r2,0(r5)
 8005120:	31bfff04 	addi	r6,r6,-4
 8005124:	29400104 	addi	r5,r5,4
 8005128:	38800015 	stw	r2,0(r7)
 800512c:	39c00104 	addi	r7,r7,4
 8005130:	19bffa36 	bltu	r3,r6,800511c <memcpy+0x80>
 8005134:	3807883a 	mov	r3,r7
 8005138:	003fde06 	br	80050b4 <memcpy+0x18>

0800513c <_open_r>:
 800513c:	defffd04 	addi	sp,sp,-12
 8005140:	dc000015 	stw	r16,0(sp)
 8005144:	040200b4 	movhi	r16,2050
 8005148:	842f3604 	addi	r16,r16,-17192
 800514c:	dc400115 	stw	r17,4(sp)
 8005150:	80000015 	stw	zero,0(r16)
 8005154:	2023883a 	mov	r17,r4
 8005158:	2809883a 	mov	r4,r5
 800515c:	300b883a 	mov	r5,r6
 8005160:	380d883a 	mov	r6,r7
 8005164:	dfc00215 	stw	ra,8(sp)
 8005168:	800eaf80 	call	800eaf8 <open>
 800516c:	1007883a 	mov	r3,r2
 8005170:	00bfffc4 	movi	r2,-1
 8005174:	18800626 	beq	r3,r2,8005190 <_open_r+0x54>
 8005178:	1805883a 	mov	r2,r3
 800517c:	dfc00217 	ldw	ra,8(sp)
 8005180:	dc400117 	ldw	r17,4(sp)
 8005184:	dc000017 	ldw	r16,0(sp)
 8005188:	dec00304 	addi	sp,sp,12
 800518c:	f800283a 	ret
 8005190:	80800017 	ldw	r2,0(r16)
 8005194:	103ff826 	beq	r2,zero,8005178 <_open_r+0x3c>
 8005198:	88800015 	stw	r2,0(r17)
 800519c:	1805883a 	mov	r2,r3
 80051a0:	dfc00217 	ldw	ra,8(sp)
 80051a4:	dc400117 	ldw	r17,4(sp)
 80051a8:	dc000017 	ldw	r16,0(sp)
 80051ac:	dec00304 	addi	sp,sp,12
 80051b0:	f800283a 	ret

080051b4 <_perror_r>:
 80051b4:	defffe04 	addi	sp,sp,-8
 80051b8:	dc000015 	stw	r16,0(sp)
 80051bc:	dfc00115 	stw	ra,4(sp)
 80051c0:	2021883a 	mov	r16,r4
 80051c4:	28000326 	beq	r5,zero,80051d4 <_perror_r+0x20>
 80051c8:	28800007 	ldb	r2,0(r5)
 80051cc:	2809883a 	mov	r4,r5
 80051d0:	10000c1e 	bne	r2,zero,8005204 <_perror_r+0x50>
 80051d4:	81000017 	ldw	r4,0(r16)
 80051d8:	80056fc0 	call	80056fc <strerror>
 80051dc:	1009883a 	mov	r4,r2
 80051e0:	10000226 	beq	r2,zero,80051ec <_perror_r+0x38>
 80051e4:	81400317 	ldw	r5,12(r16)
 80051e8:	8009dc40 	call	8009dc4 <fputs>
 80051ec:	81400317 	ldw	r5,12(r16)
 80051f0:	01000284 	movi	r4,10
 80051f4:	dfc00117 	ldw	ra,4(sp)
 80051f8:	dc000017 	ldw	r16,0(sp)
 80051fc:	dec00204 	addi	sp,sp,8
 8005200:	8009c941 	jmpi	8009c94 <fputc>
 8005204:	81400317 	ldw	r5,12(r16)
 8005208:	8009dc40 	call	8009dc4 <fputs>
 800520c:	81400317 	ldw	r5,12(r16)
 8005210:	01020074 	movhi	r4,2049
 8005214:	211d4b04 	addi	r4,r4,29996
 8005218:	8009dc40 	call	8009dc4 <fputs>
 800521c:	003fed06 	br	80051d4 <_perror_r+0x20>

08005220 <perror>:
 8005220:	008200b4 	movhi	r2,2050
 8005224:	10a7cd04 	addi	r2,r2,-24780
 8005228:	200b883a 	mov	r5,r4
 800522c:	11000017 	ldw	r4,0(r2)
 8005230:	80051b41 	jmpi	80051b4 <_perror_r>

08005234 <printf>:
 8005234:	defffb04 	addi	sp,sp,-20
 8005238:	dfc00115 	stw	ra,4(sp)
 800523c:	d9400215 	stw	r5,8(sp)
 8005240:	d9800315 	stw	r6,12(sp)
 8005244:	d9c00415 	stw	r7,16(sp)
 8005248:	008200b4 	movhi	r2,2050
 800524c:	10a7cd04 	addi	r2,r2,-24780
 8005250:	10c00017 	ldw	r3,0(r2)
 8005254:	200b883a 	mov	r5,r4
 8005258:	d8800204 	addi	r2,sp,8
 800525c:	19000217 	ldw	r4,8(r3)
 8005260:	100d883a 	mov	r6,r2
 8005264:	d8800015 	stw	r2,0(sp)
 8005268:	8007cf00 	call	8007cf0 <__vfprintf_internal>
 800526c:	dfc00117 	ldw	ra,4(sp)
 8005270:	dec00504 	addi	sp,sp,20
 8005274:	f800283a 	ret

08005278 <_printf_r>:
 8005278:	defffc04 	addi	sp,sp,-16
 800527c:	dfc00115 	stw	ra,4(sp)
 8005280:	d9800215 	stw	r6,8(sp)
 8005284:	d9c00315 	stw	r7,12(sp)
 8005288:	280d883a 	mov	r6,r5
 800528c:	21400217 	ldw	r5,8(r4)
 8005290:	d8c00204 	addi	r3,sp,8
 8005294:	180f883a 	mov	r7,r3
 8005298:	d8c00015 	stw	r3,0(sp)
 800529c:	8005e440 	call	8005e44 <___vfprintf_internal_r>
 80052a0:	dfc00117 	ldw	ra,4(sp)
 80052a4:	dec00404 	addi	sp,sp,16
 80052a8:	f800283a 	ret

080052ac <_puts_r>:
 80052ac:	defff604 	addi	sp,sp,-40
 80052b0:	dc400715 	stw	r17,28(sp)
 80052b4:	2023883a 	mov	r17,r4
 80052b8:	2809883a 	mov	r4,r5
 80052bc:	dfc00915 	stw	ra,36(sp)
 80052c0:	dcc00815 	stw	r19,32(sp)
 80052c4:	2827883a 	mov	r19,r5
 80052c8:	8005d700 	call	8005d70 <strlen>
 80052cc:	89400217 	ldw	r5,8(r17)
 80052d0:	00c20074 	movhi	r3,2049
 80052d4:	18dd4c04 	addi	r3,r3,30000
 80052d8:	01c00044 	movi	r7,1
 80052dc:	12000044 	addi	r8,r2,1
 80052e0:	d8c00515 	stw	r3,20(sp)
 80052e4:	d9c00615 	stw	r7,24(sp)
 80052e8:	d8c00304 	addi	r3,sp,12
 80052ec:	01c00084 	movi	r7,2
 80052f0:	8809883a 	mov	r4,r17
 80052f4:	d80d883a 	mov	r6,sp
 80052f8:	d8c00015 	stw	r3,0(sp)
 80052fc:	dcc00315 	stw	r19,12(sp)
 8005300:	da000215 	stw	r8,8(sp)
 8005304:	d9c00115 	stw	r7,4(sp)
 8005308:	d8800415 	stw	r2,16(sp)
 800530c:	8009de00 	call	8009de0 <__sfvwrite_r>
 8005310:	00ffffc4 	movi	r3,-1
 8005314:	10000626 	beq	r2,zero,8005330 <_puts_r+0x84>
 8005318:	1805883a 	mov	r2,r3
 800531c:	dfc00917 	ldw	ra,36(sp)
 8005320:	dcc00817 	ldw	r19,32(sp)
 8005324:	dc400717 	ldw	r17,28(sp)
 8005328:	dec00a04 	addi	sp,sp,40
 800532c:	f800283a 	ret
 8005330:	00c00284 	movi	r3,10
 8005334:	1805883a 	mov	r2,r3
 8005338:	dfc00917 	ldw	ra,36(sp)
 800533c:	dcc00817 	ldw	r19,32(sp)
 8005340:	dc400717 	ldw	r17,28(sp)
 8005344:	dec00a04 	addi	sp,sp,40
 8005348:	f800283a 	ret

0800534c <puts>:
 800534c:	008200b4 	movhi	r2,2050
 8005350:	10a7cd04 	addi	r2,r2,-24780
 8005354:	200b883a 	mov	r5,r4
 8005358:	11000017 	ldw	r4,0(r2)
 800535c:	80052ac1 	jmpi	80052ac <_puts_r>

08005360 <__srefill_r>:
 8005360:	defffd04 	addi	sp,sp,-12
 8005364:	dc400115 	stw	r17,4(sp)
 8005368:	dc000015 	stw	r16,0(sp)
 800536c:	dfc00215 	stw	ra,8(sp)
 8005370:	2023883a 	mov	r17,r4
 8005374:	2821883a 	mov	r16,r5
 8005378:	20000226 	beq	r4,zero,8005384 <__srefill_r+0x24>
 800537c:	20800e17 	ldw	r2,56(r4)
 8005380:	10004126 	beq	r2,zero,8005488 <__srefill_r+0x128>
 8005384:	80c0030b 	ldhu	r3,12(r16)
 8005388:	80000115 	stw	zero,4(r16)
 800538c:	1880080c 	andi	r2,r3,32
 8005390:	1000361e 	bne	r2,zero,800546c <__srefill_r+0x10c>
 8005394:	1880010c 	andi	r2,r3,4
 8005398:	1000211e 	bne	r2,zero,8005420 <__srefill_r+0xc0>
 800539c:	1880040c 	andi	r2,r3,16
 80053a0:	10005026 	beq	r2,zero,80054e4 <__srefill_r+0x184>
 80053a4:	1880020c 	andi	r2,r3,8
 80053a8:	1000541e 	bne	r2,zero,80054fc <__srefill_r+0x19c>
 80053ac:	8080030b 	ldhu	r2,12(r16)
 80053b0:	10800114 	ori	r2,r2,4
 80053b4:	8080030d 	sth	r2,12(r16)
 80053b8:	80800417 	ldw	r2,16(r16)
 80053bc:	10004526 	beq	r2,zero,80054d4 <__srefill_r+0x174>
 80053c0:	8080030b 	ldhu	r2,12(r16)
 80053c4:	108000cc 	andi	r2,r2,3
 80053c8:	1000361e 	bne	r2,zero,80054a4 <__srefill_r+0x144>
 80053cc:	81800417 	ldw	r6,16(r16)
 80053d0:	80c00817 	ldw	r3,32(r16)
 80053d4:	81400717 	ldw	r5,28(r16)
 80053d8:	81c00517 	ldw	r7,20(r16)
 80053dc:	8809883a 	mov	r4,r17
 80053e0:	81800015 	stw	r6,0(r16)
 80053e4:	183ee83a 	callr	r3
 80053e8:	80c0030b 	ldhu	r3,12(r16)
 80053ec:	1009883a 	mov	r4,r2
 80053f0:	80800115 	stw	r2,4(r16)
 80053f4:	00b7ffc4 	movi	r2,-8193
 80053f8:	1884703a 	and	r2,r3,r2
 80053fc:	8080030d 	sth	r2,12(r16)
 8005400:	0100230e 	bge	zero,r4,8005490 <__srefill_r+0x130>
 8005404:	0009883a 	mov	r4,zero
 8005408:	2005883a 	mov	r2,r4
 800540c:	dfc00217 	ldw	ra,8(sp)
 8005410:	dc400117 	ldw	r17,4(sp)
 8005414:	dc000017 	ldw	r16,0(sp)
 8005418:	dec00304 	addi	sp,sp,12
 800541c:	f800283a 	ret
 8005420:	81400c17 	ldw	r5,48(r16)
 8005424:	283fe426 	beq	r5,zero,80053b8 <__srefill_r+0x58>
 8005428:	80801004 	addi	r2,r16,64
 800542c:	28800226 	beq	r5,r2,8005438 <__srefill_r+0xd8>
 8005430:	8809883a 	mov	r4,r17
 8005434:	8003fb80 	call	8003fb8 <_free_r>
 8005438:	80800f17 	ldw	r2,60(r16)
 800543c:	80000c15 	stw	zero,48(r16)
 8005440:	80800115 	stw	r2,4(r16)
 8005444:	103fdc26 	beq	r2,zero,80053b8 <__srefill_r+0x58>
 8005448:	80800e17 	ldw	r2,56(r16)
 800544c:	0009883a 	mov	r4,zero
 8005450:	80800015 	stw	r2,0(r16)
 8005454:	2005883a 	mov	r2,r4
 8005458:	dfc00217 	ldw	ra,8(sp)
 800545c:	dc400117 	ldw	r17,4(sp)
 8005460:	dc000017 	ldw	r16,0(sp)
 8005464:	dec00304 	addi	sp,sp,12
 8005468:	f800283a 	ret
 800546c:	013fffc4 	movi	r4,-1
 8005470:	2005883a 	mov	r2,r4
 8005474:	dfc00217 	ldw	ra,8(sp)
 8005478:	dc400117 	ldw	r17,4(sp)
 800547c:	dc000017 	ldw	r16,0(sp)
 8005480:	dec00304 	addi	sp,sp,12
 8005484:	f800283a 	ret
 8005488:	800999c0 	call	800999c <__sinit>
 800548c:	003fbd06 	br	8005384 <__srefill_r+0x24>
 8005490:	20000b1e 	bne	r4,zero,80054c0 <__srefill_r+0x160>
 8005494:	10800814 	ori	r2,r2,32
 8005498:	013fffc4 	movi	r4,-1
 800549c:	8080030d 	sth	r2,12(r16)
 80054a0:	003fd906 	br	8005408 <__srefill_r+0xa8>
 80054a4:	008200b4 	movhi	r2,2050
 80054a8:	10a7ce04 	addi	r2,r2,-24776
 80054ac:	11000017 	ldw	r4,0(r2)
 80054b0:	01420034 	movhi	r5,2048
 80054b4:	29554904 	addi	r5,r5,21796
 80054b8:	800a3440 	call	800a344 <_fwalk>
 80054bc:	003fc306 	br	80053cc <__srefill_r+0x6c>
 80054c0:	10801014 	ori	r2,r2,64
 80054c4:	013fffc4 	movi	r4,-1
 80054c8:	8080030d 	sth	r2,12(r16)
 80054cc:	80000115 	stw	zero,4(r16)
 80054d0:	003fcd06 	br	8005408 <__srefill_r+0xa8>
 80054d4:	8809883a 	mov	r4,r17
 80054d8:	800b883a 	mov	r5,r16
 80054dc:	80047a00 	call	80047a0 <__smakebuf_r>
 80054e0:	003fb706 	br	80053c0 <__srefill_r+0x60>
