
fractals1.elf:     file format elf32-littlenios2
fractals1.elf
architecture: nios2, flags 0x00000112:
EXEC_P, HAS_SYMS, D_PAGED
start address 0x084001b4

Program Header:
    LOAD off    0x00001000 vaddr 0x08400000 paddr 0x08400000 align 2**12
         filesz 0x00000020 memsz 0x00000020 flags r-x
    LOAD off    0x00001020 vaddr 0x08400020 paddr 0x08400020 align 2**12
         filesz 0x00011db8 memsz 0x00011db8 flags r-x
    LOAD off    0x00012dd8 vaddr 0x08411dd8 paddr 0x08413998 align 2**12
         filesz 0x00001bc0 memsz 0x00001bc0 flags rw-
    LOAD off    0x00015558 vaddr 0x08415558 paddr 0x08415558 align 2**12
         filesz 0x00000000 memsz 0x0000030c flags rw-

Sections:
Idx Name          Size      VMA       LMA       File off  Algn
  0 .entry        00000020  08400000  08400000  00001000  2**5
                  CONTENTS, ALLOC, LOAD, READONLY, CODE
  1 .exceptions   00000194  08400020  08400020  00001020  2**2
                  CONTENTS, ALLOC, LOAD, READONLY, CODE
  2 .text         0001167c  084001b4  084001b4  000011b4  2**2
                  CONTENTS, ALLOC, LOAD, READONLY, CODE
  3 .rodata       000005a8  08411830  08411830  00012830  2**2
                  CONTENTS, ALLOC, LOAD, READONLY, DATA
  4 .rwdata       00001bc0  08411dd8  08413998  00012dd8  2**2
                  CONTENTS, ALLOC, LOAD, DATA, SMALL_DATA
  5 .bss          0000030c  08415558  08415558  00015558  2**2
                  ALLOC, SMALL_DATA
  6 .comment      00000023  00000000  00000000  00014998  2**0
                  CONTENTS, READONLY
  7 .debug_aranges 00001018  00000000  00000000  000149c0  2**3
                  CONTENTS, READONLY, DEBUGGING
  8 .debug_pubnames 00001b16  00000000  00000000  000159d8  2**0
                  CONTENTS, READONLY, DEBUGGING
  9 .debug_info   00029349  00000000  00000000  000174ee  2**0
                  CONTENTS, READONLY, DEBUGGING
 10 .debug_abbrev 00009d6e  00000000  00000000  00040837  2**0
                  CONTENTS, READONLY, DEBUGGING
 11 .debug_line   000195f4  00000000  00000000  0004a5a5  2**0
                  CONTENTS, READONLY, DEBUGGING
 12 .debug_frame  00002004  00000000  00000000  00063b9c  2**2
                  CONTENTS, READONLY, DEBUGGING
 13 .debug_str    00002901  00000000  00000000  00065ba0  2**0
                  CONTENTS, READONLY, DEBUGGING
 14 .debug_loc    0000e66b  00000000  00000000  000684a1  2**0
                  CONTENTS, READONLY, DEBUGGING
 15 .debug_alt_sim_info 00000030  00000000  00000000  00076b0c  2**2
                  CONTENTS, READONLY, DEBUGGING
 16 .debug_ranges 00000ce0  00000000  00000000  00076b40  2**3
                  CONTENTS, READONLY, DEBUGGING
 17 .thread_model 00000003  00000000  00000000  0007b43e  2**0
                  CONTENTS, READONLY
 18 .cpu          00000005  00000000  00000000  0007b441  2**0
                  CONTENTS, READONLY
 19 .simulation_enabled 00000001  00000000  00000000  0007b446  2**0
                  CONTENTS, READONLY
 20 .sysid_hash   00000004  00000000  00000000  0007b447  2**0
                  CONTENTS, READONLY
 21 .sysid_base   00000004  00000000  00000000  0007b44b  2**0
                  CONTENTS, READONLY
 22 .sysid_time   00000004  00000000  00000000  0007b44f  2**0
                  CONTENTS, READONLY
 23 .stderr_dev   0000000b  00000000  00000000  0007b453  2**0
                  CONTENTS, READONLY
 24 .stdin_dev    0000000b  00000000  00000000  0007b45e  2**0
                  CONTENTS, READONLY
 25 .stdout_dev   0000000b  00000000  00000000  0007b469  2**0
                  CONTENTS, READONLY
 26 .sopc_system_name 0000000b  00000000  00000000  0007b474  2**0
                  CONTENTS, READONLY
 27 .quartus_project_dir 00000020  00000000  00000000  0007b47f  2**0
                  CONTENTS, READONLY
 28 .jdi          0001085c  00000000  00000000  0007b49f  2**0
                  CONTENTS, READONLY
 29 .sopcinfo     00113e1c  00000000  00000000  0008bcfb  2**0
                  CONTENTS, READONLY
SYMBOL TABLE:
08400000 l    d  .entry	00000000 .entry
08400020 l    d  .exceptions	00000000 .exceptions
084001b4 l    d  .text	00000000 .text
08411830 l    d  .rodata	00000000 .rodata
08411dd8 l    d  .rwdata	00000000 .rwdata
08415558 l    d  .bss	00000000 .bss
00000000 l    d  .comment	00000000 .comment
00000000 l    d  .debug_aranges	00000000 .debug_aranges
00000000 l    d  .debug_pubnames	00000000 .debug_pubnames
00000000 l    d  .debug_info	00000000 .debug_info
00000000 l    d  .debug_abbrev	00000000 .debug_abbrev
00000000 l    d  .debug_line	00000000 .debug_line
00000000 l    d  .debug_frame	00000000 .debug_frame
00000000 l    d  .debug_str	00000000 .debug_str
00000000 l    d  .debug_loc	00000000 .debug_loc
00000000 l    d  .debug_alt_sim_info	00000000 .debug_alt_sim_info
00000000 l    d  .debug_ranges	00000000 .debug_ranges
084001fc l       .text	00000000 alt_after_alt_main
00000000 l    df *ABS*	00000000 alt_irq_handler.c
00000000 l    df *ABS*	00000000 hello_world.c
00000000 l    df *ABS*	00000000 w_pow.c
00000000 l    df *ABS*	00000000 e_pow.c
08411924 l     O .rodata	00000010 bp
08411934 l     O .rodata	00000010 dp_l
08411944 l     O .rodata	00000010 dp_h
00000000 l    df *ABS*	00000000 e_sqrt.c
00000000 l    df *ABS*	00000000 s_fabs.c
00000000 l    df *ABS*	00000000 s_finite.c
00000000 l    df *ABS*	00000000 s_isnand.c
00000000 l    df *ABS*	00000000 s_lib_ver.c
00000000 l    df *ABS*	00000000 s_matherr.c
00000000 l    df *ABS*	00000000 s_nan.c
00000000 l    df *ABS*	00000000 s_rint.c
08411954 l     O .rodata	00000010 TWO52
00000000 l    df *ABS*	00000000 s_scalbn.c
00000000 l    df *ABS*	00000000 s_copysign.c
00000000 l    df *ABS*	00000000 libgcc2.c
00000000 l    df *ABS*	00000000 fp-bit.c
08402bd0 l     F .text	000001e4 _fpadd_parts
00000000 l    df *ABS*	00000000 fp-bit.c
00000000 l    df *ABS*	00000000 fp-bit.c
00000000 l    df *ABS*	00000000 fp-bit.c
00000000 l    df *ABS*	00000000 fp-bit.c
00000000 l    df *ABS*	00000000 fp-bit.c
00000000 l    df *ABS*	00000000 fp-bit.c
00000000 l    df *ABS*	00000000 fp-bit.c
00000000 l    df *ABS*	00000000 fp-bit.c
00000000 l    df *ABS*	00000000 dp-bit.c
0840332c l     F .text	00000410 _fpadd_parts
00000000 l    df *ABS*	00000000 dp-bit.c
00000000 l    df *ABS*	00000000 dp-bit.c
00000000 l    df *ABS*	00000000 dp-bit.c
00000000 l    df *ABS*	00000000 dp-bit.c
00000000 l    df *ABS*	00000000 dp-bit.c
00000000 l    df *ABS*	00000000 dp-bit.c
00000000 l    df *ABS*	00000000 dp-bit.c
00000000 l    df *ABS*	00000000 dp-bit.c
00000000 l    df *ABS*	00000000 dp-bit.c
00000000 l    df *ABS*	00000000 dp-bit.c
00000000 l    df *ABS*	00000000 dp-bit.c
00000000 l    df *ABS*	00000000 lib2-divmod.c
08404298 l     F .text	0000007c udivmodsi4
00000000 l    df *ABS*	00000000 libgcc2.c
00000000 l    df *ABS*	00000000 libgcc2.c
00000000 l    df *ABS*	00000000 fp-bit.c
00000000 l    df *ABS*	00000000 fp-bit.c
00000000 l    df *ABS*	00000000 fp-bit.c
00000000 l    df *ABS*	00000000 fp-bit.c
00000000 l    df *ABS*	00000000 dp-bit.c
00000000 l    df *ABS*	00000000 dp-bit.c
00000000 l    df *ABS*	00000000 dp-bit.c
00000000 l    df *ABS*	00000000 libgcc2.c
00000000 l    df *ABS*	00000000 errno.c
00000000 l    df *ABS*	00000000 impure.c
08411dd8 l     O .rwdata	00000400 impure_data
00000000 l    df *ABS*	00000000 printf.c
00000000 l    df *ABS*	00000000 puts.c
00000000 l    df *ABS*	00000000 strlen.c
00000000 l    df *ABS*	00000000 vfprintf.c
08404ebc l     F .text	00000058 __sprint_r
08411afe l     O .rodata	00000010 blanks.3452
08411aee l     O .rodata	00000010 zeroes.3453
00000000 l    df *ABS*	00000000 wsetup.c
00000000 l    df *ABS*	00000000 dtoa.c
08406f20 l     F .text	00000218 quorem
00000000 l    df *ABS*	00000000 fflush.c
00000000 l    df *ABS*	00000000 findfp.c
0840891c l     F .text	00000058 std
08408a28 l     F .text	00000008 __fp_lock
08408a30 l     F .text	00000008 __fp_unlock
00000000 l    df *ABS*	00000000 mallocr.c
00000000 l    df *ABS*	00000000 fvwrite.c
00000000 l    df *ABS*	00000000 fwalk.c
00000000 l    df *ABS*	00000000 locale.c
08413954 l     O .rwdata	00000004 charset
08411b30 l     O .rodata	00000030 lconv
00000000 l    df *ABS*	00000000 makebuf.c
00000000 l    df *ABS*	00000000 mallocr.c
00000000 l    df *ABS*	00000000 memchr.c
00000000 l    df *ABS*	00000000 memcpy.c
00000000 l    df *ABS*	00000000 memmove.c
00000000 l    df *ABS*	00000000 memset.c
00000000 l    df *ABS*	00000000 mprec.c
08411c78 l     O .rodata	0000000c p05.2458
00000000 l    df *ABS*	00000000 mallocr.c
00000000 l    df *ABS*	00000000 s_isinfd.c
00000000 l    df *ABS*	00000000 sbrkr.c
00000000 l    df *ABS*	00000000 stdio.c
00000000 l    df *ABS*	00000000 strcmp.c
00000000 l    df *ABS*	00000000 writer.c
00000000 l    df *ABS*	00000000 mallocr.c
00000000 l    df *ABS*	00000000 closer.c
00000000 l    df *ABS*	00000000 fclose.c
00000000 l    df *ABS*	00000000 fstatr.c
00000000 l    df *ABS*	00000000 int_errno.c
00000000 l    df *ABS*	00000000 isattyr.c
00000000 l    df *ABS*	00000000 lseekr.c
00000000 l    df *ABS*	00000000 readr.c
00000000 l    df *ABS*	00000000 libgcc2.c
00000000 l    df *ABS*	00000000 libgcc2.c
00000000 l    df *ABS*	00000000 dp-bit.c
00000000 l    df *ABS*	00000000 dp-bit.c
00000000 l    df *ABS*	00000000 dp-bit.c
00000000 l    df *ABS*	00000000 alt_close.c
0840cf7c l     F .text	00000060 alt_get_errno
00000000 l    df *ABS*	00000000 alt_dev.c
0840cfdc l     F .text	0000002c alt_dev_null_write
00000000 l    df *ABS*	00000000 alt_errno.c
00000000 l    df *ABS*	00000000 alt_fstat.c
0840d0dc l     F .text	00000060 alt_get_errno
00000000 l    df *ABS*	00000000 alt_isatty.c
0840d1fc l     F .text	00000060 alt_get_errno
00000000 l    df *ABS*	00000000 alt_load.c
0840d2dc l     F .text	0000006c alt_load_section
00000000 l    df *ABS*	00000000 alt_lseek.c
0840d438 l     F .text	00000060 alt_get_errno
00000000 l    df *ABS*	00000000 alt_main.c
00000000 l    df *ABS*	00000000 alt_malloc_lock.c
00000000 l    df *ABS*	00000000 alt_read.c
0840d664 l     F .text	00000060 alt_get_errno
00000000 l    df *ABS*	00000000 alt_release_fd.c
00000000 l    df *ABS*	00000000 alt_sbrk.c
08413978 l     O .rwdata	00000004 heap_end
00000000 l    df *ABS*	00000000 alt_write.c
0840d900 l     F .text	00000060 alt_get_errno
00000000 l    df *ABS*	00000000 alt_sys_init.c
08412794 l     O .rwdata	00001060 jtag_uart_1
084137f4 l     O .rwdata	0000003c mailbox_0
08413830 l     O .rwdata	0000003c mailbox_1
0841386c l     O .rwdata	0000003c mailbox_2
084138a8 l     O .rwdata	0000003c mailbox_3
084138e4 l     O .rwdata	00000054 video_pixel_buffer_dma_0
0840dc0c l     F .text	00000038 alt_dev_reg
00000000 l    df *ABS*	00000000 altera_avalon_jtag_uart_fd.c
00000000 l    df *ABS*	00000000 altera_avalon_jtag_uart_init.c
0840de4c l     F .text	00000228 altera_avalon_jtag_uart_irq
0840e074 l     F .text	000000b0 altera_avalon_jtag_uart_timeout
00000000 l    df *ABS*	00000000 altera_avalon_jtag_uart_ioctl.c
00000000 l    df *ABS*	00000000 altera_avalon_jtag_uart_read.c
00000000 l    df *ABS*	00000000 altera_avalon_jtag_uart_write.c
00000000 l    df *ABS*	00000000 altera_avalon_mailbox.c
0840e848 l     F .text	0000006c alt_avalon_mutex_reg
0840e8b4 l     F .text	00000060 alt_get_errno
0840ea48 l     F .text	00000050 alt_mailbox_increment_ptr
00000000 l    df *ABS*	00000000 altera_avalon_mutex.c
0840ec18 l     F .text	0000007c alt_mutex_trylock
0840ecec l     F .text	00000060 alt_get_errno
00000000 l    df *ABS*	00000000 altera_up_avalon_video_pixel_buffer_dma.c
00000000 l    df *ABS*	00000000 alt_alarm_start.c
00000000 l    df *ABS*	00000000 alt_dcache_flush_all.c
00000000 l    df *ABS*	00000000 alt_dev_llist_insert.c
084106d4 l     F .text	00000060 alt_get_errno
00000000 l    df *ABS*	00000000 alt_do_ctors.c
00000000 l    df *ABS*	00000000 alt_do_dtors.c
00000000 l    df *ABS*	00000000 alt_find_dev.c
00000000 l    df *ABS*	00000000 alt_icache_flush_all.c
00000000 l    df *ABS*	00000000 alt_iic.c
00000000 l    df *ABS*	00000000 alt_iic_isr_register.c
00000000 l    df *ABS*	00000000 alt_io_redirect.c
08410b8c l     F .text	000000c4 alt_open_fd
00000000 l    df *ABS*	00000000 alt_irq_vars.c
00000000 l    df *ABS*	00000000 alt_open.c
08410cc8 l     F .text	000000dc alt_file_locked
08410f2c l     F .text	00000060 alt_get_errno
00000000 l    df *ABS*	00000000 alt_tick.c
00000000 l    df *ABS*	00000000 altera_nios2_irq.c
00000000 l    df *ABS*	00000000 alt_find_file.c
00000000 l    df *ABS*	00000000 alt_get_fd.c
00000000 l    df *ABS*	00000000 alt_icache_flush.c
00000000 l    df *ABS*	00000000 atexit.c
00000000 l    df *ABS*	00000000 exit.c
00000000 l    df *ABS*	00000000 memcmp.c
00000000 l    df *ABS*	00000000 __atexit.c
00000000 l    df *ABS*	00000000 __call_atexit.c
084115ac l     F .text	00000004 register_fini
00000000 l    df *ABS*	00000000 alt_exit.c
08411760 l     F .text	00000040 alt_sim_halt
0840a6d8 g     F .text	00000094 _mprec_log10
00007000 g       *ABS*	00000000 __alt_mem_onchip_memory2_3
0840a7c4 g     F .text	00000088 __any_on
0840bea0 g     F .text	00000070 _isatty_r
08411c50 g     O .rodata	00000028 __mprec_tinytens
0840d498 g     F .text	0000006c alt_main
0840ea98 g     F .text	000000a8 altera_avalon_mailbox_pend
0840fb88 g     F .text	000003d0 alt_up_pixel_buffer_dma_draw_vline
08404d94 g     F .text	000000a0 _puts_r
084155d4 g     O .bss	00000100 alt_irq
084026d0 g     F .text	00000018 fabs
0840bf10 g     F .text	00000078 _lseek_r
0841555c g     O .bss	00000004 mailbox_0
08413998 g       *ABS*	00000000 __flash_rwdata_start
08403e4c g     F .text	00000088 __eqdf2
08415864 g       *ABS*	00000000 __alt_heap_start
08415560 g     O .bss	00000004 mailbox_2
0840eb40 g     F .text	000000d8 altera_avalon_mailbox_get
08404d1c g     F .text	00000044 printf
0840b96c g     F .text	00000068 __sseek
08408984 g     F .text	000000a4 __sinit
0840965c g     F .text	00000084 _setlocale_r
08408a84 g     F .text	00000068 __sfmoreglue
0840d524 g     F .text	00000020 __malloc_unlock
08402e88 g     F .text	00000174 __divsf3
0840a154 g     F .text	000000e0 memmove
08408a74 g     F .text	00000010 _cleanup
0840edac g     F .text	00000040 altera_avalon_mutex_trylock
0840a84c g     F .text	000000bc _Balloc
08403184 g     F .text	00000094 __fixsfsi
08413940 g     O .rwdata	00000004 n
0840ef5c g     F .text	000001a0 alt_up_pixel_buffer_dma_draw
08403f5c g     F .text	00000088 __gtdf2
08404d0c g     F .text	00000010 __errno
0840ef1c g     F .text	00000040 alt_up_pixel_buffer_dma_open_dev
08400000 g     F .entry	0000001c __reset
0840ee48 g     F .text	0000007c altera_avalon_mutex_is_mine
08400020 g       *ABS*	00000000 __flash_exceptions_start
0840be2c g     F .text	00000074 _fstat_r
08415590 g     O .bss	00000004 errno
084041ec g     F .text	00000038 __make_dp
084047cc g     F .text	0000002c __make_fp
08415598 g     O .bss	00000004 alt_argv
0841b938 g       *ABS*	00000000 _gp
08402db4 g     F .text	00000070 __subsf3
0840f0fc g     F .text	00000058 alt_up_pixel_buffer_dma_change_back_buffer_address
00005000 g       *ABS*	00000000 __alt_mem_onchip_memory2_2
08412614 g     O .rwdata	00000180 alt_fd_list
08415564 g     O .bss	00000004 mailbox_1
084107fc g     F .text	00000094 alt_find_dev
0840a0b4 g     F .text	000000a0 memcpy
08408a68 g     F .text	0000000c _cleanup_r
084040f4 g     F .text	000000f8 __floatsidf
08410c50 g     F .text	00000078 alt_io_redirect
08403fe4 g     F .text	00000088 __ltdf2
08411830 g       *ABS*	00000000 __DTOR_END__
08404e34 g     F .text	00000014 puts
08411130 g     F .text	00000020 altera_nios2_irq_init
0840a628 g     F .text	000000b0 __ratio
0840e98c g     F .text	000000bc altera_avalon_mailbox_post
0840f1ac g     F .text	00000034 alt_up_pixel_buffer_dma_check_swap_buffers_status
0840e28c g     F .text	00000224 altera_avalon_jtag_uart_read
00000000  w      *UND*	00000000 malloc
08404d60 g     F .text	00000034 _printf_r
00003000 g       *ABS*	00000000 __alt_mem_onchip_memory2_0
084043d4 g     F .text	00000008 __udivsi3
0840d13c g     F .text	000000c0 isatty
08411b60 g     O .rodata	000000c8 __mprec_tens
0840e96c g     F .text	00000020 altera_avalon_mailbox_close
0840f838 g     F .text	00000350 alt_up_pixel_buffer_dma_draw_hline
08409638 g     F .text	00000008 __locale_charset
08403074 g     F .text	00000078 __lesf2
08411328 g     F .text	00000090 alt_icache_flush
08415584 g     O .bss	00000004 __malloc_top_pad
08413950 g     O .rwdata	00000004 __mb_cur_max
08409640 g     F .text	0000000c _localeconv_r
0840af44 g     F .text	0000003c __i2b
0840901c g     F .text	0000049c __sfvwrite_r
0840b8f4 g     F .text	00000070 _sbrk_r
0841001c g     F .text	000000d0 helper_plot_pixel
0840bf88 g     F .text	00000078 _read_r
084121d8 g     O .rwdata	0000000c __lc_ctype
08413970 g     O .rwdata	00000004 alt_max_fd
08404b0c g     F .text	00000138 __unpack_d
0840bd08 g     F .text	00000110 _fclose_r
084088e8 g     F .text	00000034 fflush
08415588 g     O .bss	00000004 __malloc_max_sbrked_mem
08403218 g     F .text	00000054 __extendsfdf2
084037bc g     F .text	00000074 __adddf3
0840a508 g     F .text	00000120 __b2d
0840f1e0 g     F .text	00000164 alt_up_pixel_buffer_dma_clear_screen
0840c5dc g     F .text	000005b0 __umoddi3
0840d348 g     F .text	000000f0 lseek
0840eec4 g     F .text	00000058 altera_avalon_mutex_first_lock
08413944 g     O .rwdata	00000004 __fdlib_version
0841394c g     O .rwdata	00000004 _global_impure_ptr
0840b2c0 g     F .text	000005f4 _realloc_r
08415864 g       *ABS*	00000000 __bss_end
08410a94 g     F .text	000000f8 alt_iic_isr_register
0840f344 g     F .text	000004f4 alt_up_pixel_buffer_dma_draw_box
08411024 g     F .text	0000010c alt_tick
0840c000 g     F .text	000005dc __udivdi3
08411c28 g     O .rodata	00000028 __mprec_bigtens
0840b1a0 g     F .text	00000120 __s2b
0840ccec g     F .text	00000194 __floatunsidf
0840a428 g     F .text	00000060 __mcmp
08415558 g     O .bss	00000004 message
08408a50 g     F .text	00000018 __fp_lock_all
08410a4c g     F .text	00000048 alt_ic_irq_enabled
08410f8c g     F .text	00000098 alt_alarm_stop
084155a0 g     O .bss	00000004 alt_irq_active
084000ec g     F .exceptions	000000c8 alt_irq_handler
084125ec g     O .rwdata	00000028 alt_dev_null
08400a50 g     F .text	00000114 barrier
0840ec94 g     F .text	00000058 altera_avalon_mutex_open
0840274c g     F .text	00000210 rint
0840465c g     F .text	000000c8 __unpack_f
084105dc g     F .text	00000044 alt_dcache_flush_all
0840a2f4 g     F .text	00000070 __hi0bits
0840ff58 g     F .text	000000c4 alt_up_pixel_buffer_dma_draw_rectangle
0840cc14 g     F .text	000000d8 __fixdfsi
08413998 g       *ABS*	00000000 __ram_rwdata_end
08413968 g     O .rwdata	00000008 alt_dev_list
0840d7e0 g     F .text	00000120 write
084100ec g     F .text	0000039c alt_up_pixel_buffer_dma_draw_line
08413984 g     O .rwdata	00000008 alt_mutex_list
08411dd8 g       *ABS*	00000000 __ram_rodata_end
0840d008 g     F .text	000000d4 fstat
0840406c g     F .text	00000088 __ledf2
0840b080 g     F .text	00000120 __pow5mult
08415578 g     O .bss	00000004 __nlocale_changed
084043dc g     F .text	00000008 __umodsi3
08415864 g       *ABS*	00000000 end
084044fc g     F .text	00000160 __pack_f
0840dd8c g     F .text	000000c0 altera_avalon_jtag_uart_init
0841182c g       *ABS*	00000000 __CTOR_LIST__
08800000 g       *ABS*	00000000 __alt_stack_pointer
0840447c g     F .text	00000080 __clzsi2
0840e4b0 g     F .text	00000240 altera_avalon_jtag_uart_write
0840e6f0 g     F .text	00000158 alt_avalon_mailbox_init
08408974 g     F .text	00000004 __sfp_lock_acquire
08409fd0 g     F .text	000000e4 memchr
08404f14 g     F .text	00001eac ___vfprintf_internal_r
08408d08 g     F .text	00000314 _free_r
084115b0 g     F .text	000001b0 __call_exitprocs
0841557c g     O .bss	00000004 __mlocale_changed
0841395c g     O .rwdata	00000004 __malloc_sbrk_base
084001b4 g     F .text	0000004c _start
084155a4 g     O .bss	00000004 _alt_tick_rate
0840ac10 g     F .text	0000014c __lshift
084155a8 g     O .bss	00000004 _alt_nticks
0840d544 g     F .text	00000120 read
0840d994 g     F .text	00000278 alt_sys_init
084030ec g     F .text	00000098 __floatsisf
08411478 g     F .text	00000134 __register_exitproc
0840edec g     F .text	0000005c altera_avalon_mutex_unlock
0840ad5c g     F .text	000001e8 __multiply
08401108 g     F .text	00001300 __ieee754_pow
0840e124 g     F .text	00000074 altera_avalon_jtag_uart_close
08400c80 g     F .text	00000488 pow
08411dd8 g       *ABS*	00000000 __ram_rwdata_start
08411830 g       *ABS*	00000000 __ram_rodata_start
084155ac g     O .bss	00000028 __malloc_current_mallinfo
00004000 g       *ABS*	00000000 __alt_mem_onchip_memory2_1
0840a908 g     F .text	0000017c __d2b
0840dc44 g     F .text	00000058 altera_avalon_jtag_uart_read_fd
08411270 g     F .text	000000b8 alt_get_fd
08404c44 g     F .text	000000c8 __fpcmp_parts_d
0840bc98 g     F .text	00000070 _close_r
08411404 g     F .text	00000074 memcmp
0840dcf4 g     F .text	00000048 altera_avalon_jtag_uart_close_fd
08415568 g     O .bss	00000004 col
08415864 g       *ABS*	00000000 __alt_stack_base
0840dd3c g     F .text	00000050 altera_avalon_jtag_uart_ioctl_fd
08406de4 g     F .text	0000013c __swsetup_r
08403bf4 g     F .text	00000258 __divdf3
08408aec g     F .text	000000f0 __sfp
0840a76c g     F .text	00000058 __copybits
084121e4 g     O .rwdata	00000408 __malloc_av_
08408980 g     F .text	00000004 __sinit_lock_release
08403830 g     F .text	000003c4 __muldf3
0840ba50 g     F .text	00000060 __sread
08411964 g     O .rodata	00000010 __thenan_sf
08411150 g     F .text	00000120 alt_find_file
08410620 g     F .text	000000b4 alt_dev_llist_insert
0840d504 g     F .text	00000020 __malloc_lock
0840d724 g     F .text	000000bc sbrk
084086ec g     F .text	000001fc _fflush_r
0840bbe4 g     F .text	000000b4 _calloc_r
08415558 g       *ABS*	00000000 __bss_start
0840a234 g     F .text	00000098 memset
08400200 g     F .text	00000850 main
0841559c g     O .bss	00000004 alt_envp
0841558c g     O .bss	00000004 __malloc_max_total_mem
0840f154 g     F .text	00000058 alt_up_pixel_buffer_dma_swap_buffers
0840dc9c g     F .text	00000058 altera_avalon_jtag_uart_write_fd
0840b964 g     F .text	00000008 __sclose
08402734 g     F .text	00000008 matherr
08800000 g       *ABS*	00000000 __alt_heap_limit
0840be18 g     F .text	00000014 fclose
08404224 g     F .text	00000074 __truncdfsf2
084156d4 g     O .bss	00000190 _atexit0
0840ed6c g     F .text	00000040 altera_avalon_mutex_lock
08407138 g     F .text	000015b4 _dtoa_r
08409890 g     F .text	00000740 _malloc_r
08413974 g     O .rwdata	00000004 alt_errno
08409580 g     F .text	000000b8 _fwalk
08404314 g     F .text	00000060 __divsi3
08411974 g     O .rodata	00000014 __thenan_df
08408bdc g     F .text	0000012c _malloc_trim_r
08411830 g       *ABS*	00000000 __CTOR_END__
084026e8 g     F .text	0000001c finite
0840bab0 g     F .text	000000bc strcmp
08411830 g       *ABS*	00000000 __flash_rodata_start
08411830 g       *ABS*	00000000 __DTOR_LIST__
08402b3c g     F .text	00000024 copysign
08403ed4 g     F .text	00000088 __nedf2
11000000 g       *ABS*	00000000 __alt_mem_sram_0
0840d960 g     F .text	00000034 alt_irq_init
0840d6c4 g     F .text	00000060 alt_release_fd
08411988 g     O .rodata	00000100 __clz_tab
08415580 g     O .bss	00000004 _PathLocale
084113b8 g     F .text	00000014 atexit
0841556c g     O .bss	00000004 my_pixel_buffer
08402ffc g     F .text	00000078 __gesf2
0840bb6c g     F .text	00000078 _write_r
08415570 g     O .bss	00000004 mailbox_3
084096e0 g     F .text	0000001c setlocale
08413948 g     O .rwdata	00000004 _impure_ptr
08415594 g     O .bss	00000004 alt_argc
0840295c g     F .text	000001e0 scalbn
08410798 g     F .text	00000064 _do_dtors
08000000 g       *ABS*	00000000 __alt_mem_sdram_0
08400020 g       .exceptions	00000000 alt_irq_entry
0840a488 g     F .text	00000080 __ulp
0840b8b4 g     F .text	00000040 __isinfd
08408a38 g     F .text	00000018 __fp_unlock_all
0841397c g     O .rwdata	00000008 alt_mailbox_list
08413938 g     O .rwdata	00000004 num_rows
08413960 g     O .rwdata	00000008 alt_fs_list
0840273c g     F .text	00000010 nan
08400020 g       *ABS*	00000000 __ram_exceptions_start
0840964c g     F .text	00000010 localeconv
08402408 g     F .text	000002c8 __ieee754_sqrt
084108c0 g     F .text	00000050 alt_ic_isr_register
08413998 g       *ABS*	00000000 _edata
08415864 g       *ABS*	00000000 _end
08400b94 g     F .text	000000ec post
084001b4 g       *ABS*	00000000 __ram_exceptions_end
0840e198 g     F .text	000000f4 altera_avalon_jtag_uart_ioctl
084109ac g     F .text	000000a0 alt_ic_irq_disable
0840b9d4 g     F .text	0000007c __swrite
08413958 g     O .rwdata	00000004 __malloc_trim_threshold
084113cc g     F .text	00000038 exit
084094b8 g     F .text	000000c8 _fwalk_reent
0840326c g     F .text	000000c0 __floatunsisf
0840aa84 g     F .text	0000018c __mdiff
08404374 g     F .text	00000060 __modsi3
08800000 g       *ABS*	00000000 __alt_data_end
08400020 g     F .exceptions	00000000 alt_exception
08408978 g     F .text	00000004 __sfp_lock_release
08402b60 g     F .text	00000070 __fixunssfsi
0840e914 g     F .text	00000058 altera_avalon_mailbox_open
08404724 g     F .text	000000a8 __fpcmp_parts_f
084117a0 g     F .text	00000020 _exit
08402704 g     F .text	00000030 __isnand
08410488 g     F .text	00000154 alt_alarm_start
084043e4 g     F .text	00000098 __muldi3
084096fc g     F .text	00000194 __smakebuf_r
08404e48 g     F .text	00000074 strlen
08410da4 g     F .text	00000188 open
0840cb8c g     F .text	00000088 __gedf2
08410890 g     F .text	00000030 alt_icache_flush_all
08400b64 g     F .text	00000030 pend
0841398c g     O .rwdata	00000004 alt_priority_mask
0841393c g     O .rwdata	00000004 num_cols
08410910 g     F .text	0000009c alt_ic_irq_enable
08406dc0 g     F .text	00000024 __vfprintf_internal
0840ed4c g     F .text	00000020 altera_avalon_mutex_close
0840373c g     F .text	00000080 __subdf3
0840a364 g     F .text	000000c4 __lo0bits
08413990 g     O .rwdata	00000008 alt_alarm_list
08410734 g     F .text	00000064 _do_ctors
0840ce80 g     F .text	000000fc close
08402e24 g     F .text	00000064 __addsf3
0840d25c g     F .text	00000080 alt_load
08415574 g     O .bss	00000004 row
084047f8 g     F .text	00000314 __pack_d
00000000  w      *UND*	00000000 free
0840897c g     F .text	00000004 __sinit_lock_acquire
0840af80 g     F .text	00000100 __multadd
0840a2cc g     F .text	00000028 _Bfree



Disassembly of section .entry:

08400000 <__reset>:
#if NIOS2_ICACHE_SIZE > 0 && defined(ALT_ALLOW_CODE_AT_RESET) && !defined(ALT_SIM_OPTIMIZE)
    /* Assume the instruction cache size is always a power of two. */
#if NIOS2_ICACHE_SIZE > 0x8000
    movhi r2, %hi(NIOS2_ICACHE_SIZE)
#else
    movui r2, NIOS2_ICACHE_SIZE
 8400000:	00840014 	movui	r2,4096
#endif

0:
    initi r2
 8400004:	1001483a 	initi	r2
    addi r2, r2, -NIOS2_ICACHE_LINE_SIZE
 8400008:	10bff804 	addi	r2,r2,-32
    bgt r2, zero, 0b
 840000c:	00bffd16 	blt	zero,r2,8400004 <__reset+0x4>
 * Jump to the _start entry point in the .text section if reset code
 * is allowed or if optimizing for RTL simulation.
 */
#if defined(ALT_ALLOW_CODE_AT_RESET) || defined(ALT_SIM_OPTIMIZE)
    /* Jump to the _start entry point in the .text section. */
    movhi r1, %hi(_start)
 8400010:	00421034 	movhi	at,2112
    ori r1, r1, %lo(_start)
 8400014:	08406d14 	ori	at,at,436
    jmp r1
 8400018:	0800683a 	jmp	at
 840001c:	00000000 	call	0 <__alt_mem_onchip_memory2_0-0x3000>

Disassembly of section .exceptions:

08400020 <alt_exception>:
         * Process an exception.  For all exceptions we must preserve all
         * caller saved registers on the stack (See the Nios2 ABI
         * documentation for details).
         */

        addi  sp, sp, -76
 8400020:	deffed04 	addi	sp,sp,-76

#endif

#endif

        stw   ra,  0(sp)
 8400024:	dfc00015 	stw	ra,0(sp)
        /*
         * Leave a gap in the stack frame at 4(sp) for the muldiv handler to
         * store zero into.
         */

        stw   r1,   8(sp)
 8400028:	d8400215 	stw	at,8(sp)
        stw   r2,  12(sp)
 840002c:	d8800315 	stw	r2,12(sp)
        stw   r3,  16(sp)
 8400030:	d8c00415 	stw	r3,16(sp)
        stw   r4,  20(sp)
 8400034:	d9000515 	stw	r4,20(sp)
        stw   r5,  24(sp)
 8400038:	d9400615 	stw	r5,24(sp)
        stw   r6,  28(sp)
 840003c:	d9800715 	stw	r6,28(sp)
        stw   r7,  32(sp)
 8400040:	d9c00815 	stw	r7,32(sp)

        rdctl r5, estatus
 8400044:	000b307a 	rdctl	r5,estatus

        stw   r8,  36(sp)
 8400048:	da000915 	stw	r8,36(sp)
        stw   r9,  40(sp)
 840004c:	da400a15 	stw	r9,40(sp)
        stw   r10, 44(sp)
 8400050:	da800b15 	stw	r10,44(sp)
        stw   r11, 48(sp)
 8400054:	dac00c15 	stw	r11,48(sp)
        stw   r12, 52(sp)
 8400058:	db000d15 	stw	r12,52(sp)
        stw   r13, 56(sp)
 840005c:	db400e15 	stw	r13,56(sp)
        stw   r14, 60(sp)
 8400060:	db800f15 	stw	r14,60(sp)
        stw   r15, 64(sp)
 8400064:	dbc01015 	stw	r15,64(sp)
        /*
         * ea-4 contains the address of the instruction being executed
         * when the exception occured. For interrupt exceptions, we will
         * will be re-issue the isntruction. Store it in 72(sp)
         */
        stw   r5,  68(sp)  /* estatus */
 8400068:	d9401115 	stw	r5,68(sp)
        addi  r15, ea, -4  /* instruction that caused exception */
 840006c:	ebffff04 	addi	r15,ea,-4
        stw   r15,  72(sp)
 8400070:	dbc01215 	stw	r15,72(sp)
#else
        /*
         * Test to see if the exception was a software exception or caused 
         * by an external interrupt, and vector accordingly.
         */
        rdctl r4, ipending
 8400074:	0009313a 	rdctl	r4,ipending
        andi  r2, r5, 1
 8400078:	2880004c 	andi	r2,r5,1
        beq   r2, zero, .Lnot_irq
 840007c:	10000326 	beq	r2,zero,840008c <alt_exception+0x6c>
        beq   r4, zero, .Lnot_irq
 8400080:	20000226 	beq	r4,zero,840008c <alt_exception+0x6c>
        /*
         * Now that all necessary registers have been preserved, call 
         * alt_irq_handler() to process the interrupts.
         */

        call alt_irq_handler
 8400084:	84000ec0 	call	84000ec <alt_irq_handler>

        .section .exceptions.irqreturn, "xa"

        br    .Lexception_exit
 8400088:	00000306 	br	8400098 <alt_exception+0x78>
         * upon completion, so we write ea (address of instruction *after*
         * the one where the exception occured) into 72(sp). The actual
         * instruction that caused the exception is written in r2, which these
         * handlers will utilize.
         */
        stw   ea,  72(sp)  /* Don't re-issue */
 840008c:	df401215 	stw	ea,72(sp)
        ldw   r2, -4(ea)   /* Instruction that caused exception */
 8400090:	e8bfff17 	ldw	r2,-4(ea)
#ifdef NIOS2_HAS_DEBUG_STUB
       /*
        *  Either tell the user now (if there is a debugger attached) or go into
        *  the debug monitor which will loop until a debugger is attached.
        */
        break
 8400094:	003da03a 	break	0
        /* 
         * Restore the saved registers, so that all general purpose registers 
         * have been restored to their state at the time the interrupt occured.
         */

        ldw   r5,  68(sp)
 8400098:	d9401117 	ldw	r5,68(sp)
        ldw   ea,  72(sp)  /* This becomes the PC once eret is executed */
 840009c:	df401217 	ldw	ea,72(sp)
        ldw   ra,   0(sp)
 84000a0:	dfc00017 	ldw	ra,0(sp)

        wrctl estatus, r5
 84000a4:	2801707a 	wrctl	estatus,r5

        ldw   r1,   8(sp)
 84000a8:	d8400217 	ldw	at,8(sp)
        ldw   r2,  12(sp)
 84000ac:	d8800317 	ldw	r2,12(sp)
        ldw   r3,  16(sp)
 84000b0:	d8c00417 	ldw	r3,16(sp)
        ldw   r4,  20(sp)
 84000b4:	d9000517 	ldw	r4,20(sp)
        ldw   r5,  24(sp)
 84000b8:	d9400617 	ldw	r5,24(sp)
        ldw   r6,  28(sp)
 84000bc:	d9800717 	ldw	r6,28(sp)
        ldw   r7,  32(sp)
 84000c0:	d9c00817 	ldw	r7,32(sp)
#ifdef ALT_STACK_CHECK
        ldw   et, %gprel(alt_exception_old_stack_limit)(gp)
#endif
#endif

        ldw   r8,  36(sp)
 84000c4:	da000917 	ldw	r8,36(sp)
        ldw   r9,  40(sp)
 84000c8:	da400a17 	ldw	r9,40(sp)
        ldw   r10, 44(sp)
 84000cc:	da800b17 	ldw	r10,44(sp)
        ldw   r11, 48(sp)
 84000d0:	dac00c17 	ldw	r11,48(sp)
        ldw   r12, 52(sp)
 84000d4:	db000d17 	ldw	r12,52(sp)
        ldw   r13, 56(sp)
 84000d8:	db400e17 	ldw	r13,56(sp)
        ldw   r14, 60(sp)
 84000dc:	db800f17 	ldw	r14,60(sp)
        ldw   r15, 64(sp)
 84000e0:	dbc01017 	ldw	r15,64(sp)
#endif

        ldw   sp,  76(sp)

#else
        addi  sp, sp, 76
 84000e4:	dec01304 	addi	sp,sp,76

        /*
         * Return to the interrupted instruction.
         */

        eret
 84000e8:	ef80083a 	eret

084000ec <alt_irq_handler>:
 * instruction is present if the macro ALT_CI_INTERRUPT_VECTOR defined.
 */

void alt_irq_handler (void) __attribute__ ((section (".exceptions")));
void alt_irq_handler (void)
{
 84000ec:	defff904 	addi	sp,sp,-28
 84000f0:	dfc00615 	stw	ra,24(sp)
 84000f4:	df000515 	stw	fp,20(sp)
 84000f8:	df000504 	addi	fp,sp,20
#ifndef NIOS2_EIC_PRESENT
static ALT_INLINE alt_u32 ALT_ALWAYS_INLINE alt_irq_pending (void)
{
  alt_u32 active;

  NIOS2_READ_IPENDING (active);
 84000fc:	0005313a 	rdctl	r2,ipending
 8400100:	e0bffc15 	stw	r2,-16(fp)

  return active;
 8400104:	e0bffc17 	ldw	r2,-16(fp)
   * Consider the case where the high priority interupt is asserted during
   * the interrupt entry sequence for a lower priority interrupt to see why
   * this is the case.
   */

  active = alt_irq_pending ();
 8400108:	e0bfff15 	stw	r2,-4(fp)

  do
  {
    i = 0;
 840010c:	e03ffd15 	stw	zero,-12(fp)
    mask = 1;
 8400110:	00800044 	movi	r2,1
 8400114:	e0bffe15 	stw	r2,-8(fp)
     * called to clear the interrupt condition.
     */

    do
    {
      if (active & mask)
 8400118:	e0ffff17 	ldw	r3,-4(fp)
 840011c:	e0bffe17 	ldw	r2,-8(fp)
 8400120:	1884703a 	and	r2,r3,r2
 8400124:	1005003a 	cmpeq	r2,r2,zero
 8400128:	1000161e 	bne	r2,zero,8400184 <alt_irq_handler+0x98>
      { 
#ifdef ALT_ENHANCED_INTERRUPT_API_PRESENT
        alt_irq[i].handler(alt_irq[i].context); 
 840012c:	e0bffd17 	ldw	r2,-12(fp)
 8400130:	00c21074 	movhi	r3,2113
 8400134:	18d57504 	addi	r3,r3,21972
 8400138:	100490fa 	slli	r2,r2,3
 840013c:	10c5883a 	add	r2,r2,r3
 8400140:	11400017 	ldw	r5,0(r2)
 8400144:	e0bffd17 	ldw	r2,-12(fp)
 8400148:	00c21074 	movhi	r3,2113
 840014c:	18d57504 	addi	r3,r3,21972
 8400150:	100490fa 	slli	r2,r2,3
 8400154:	10c5883a 	add	r2,r2,r3
 8400158:	10800104 	addi	r2,r2,4
 840015c:	11000017 	ldw	r4,0(r2)
 8400160:	283ee83a 	callr	r5
#ifndef NIOS2_EIC_PRESENT
static ALT_INLINE alt_u32 ALT_ALWAYS_INLINE alt_irq_pending (void)
{
  alt_u32 active;

  NIOS2_READ_IPENDING (active);
 8400164:	0005313a 	rdctl	r2,ipending
 8400168:	e0bffb15 	stw	r2,-20(fp)

  return active;
 840016c:	e0bffb17 	ldw	r2,-20(fp)
      mask <<= 1;
      i++;

    } while (1);

    active = alt_irq_pending ();
 8400170:	e0bfff15 	stw	r2,-4(fp)
    
  } while (active);
 8400174:	e0bfff17 	ldw	r2,-4(fp)
 8400178:	1004c03a 	cmpne	r2,r2,zero
 840017c:	103fe31e 	bne	r2,zero,840010c <alt_irq_handler+0x20>
 8400180:	00000706 	br	84001a0 <alt_irq_handler+0xb4>
#else
        alt_irq[i].handler(alt_irq[i].context, i); 
#endif
        break;
      }
      mask <<= 1;
 8400184:	e0bffe17 	ldw	r2,-8(fp)
 8400188:	1085883a 	add	r2,r2,r2
 840018c:	e0bffe15 	stw	r2,-8(fp)
      i++;
 8400190:	e0bffd17 	ldw	r2,-12(fp)
 8400194:	10800044 	addi	r2,r2,1
 8400198:	e0bffd15 	stw	r2,-12(fp)

    } while (1);
 840019c:	003fde06 	br	8400118 <alt_irq_handler+0x2c>
  /*
   * Notify the operating system that interrupt processing is complete.
   */ 

  ALT_OS_INT_EXIT();
}
 84001a0:	e037883a 	mov	sp,fp
 84001a4:	dfc00117 	ldw	ra,4(sp)
 84001a8:	df000017 	ldw	fp,0(sp)
 84001ac:	dec00204 	addi	sp,sp,8
 84001b0:	f800283a 	ret

Disassembly of section .text:

084001b4 <_start>:

    /* Assume the data cache size is always a power of two. */
#if NIOS2_DCACHE_SIZE > 0x8000
    movhi r2, %hi(NIOS2_DCACHE_SIZE)
#else
    movui r2, NIOS2_DCACHE_SIZE
 84001b4:	00810014 	movui	r2,1024
#endif

0:
    initd 0(r2)
 84001b8:	10000033 	initd	0(r2)
    addi r2, r2, -NIOS2_DCACHE_LINE_SIZE
 84001bc:	10bff804 	addi	r2,r2,-32
    bgt r2, zero, 0b
 84001c0:	00bffd16 	blt	zero,r2,84001b8 <_start+0x4>
#if (NIOS2_NUM_OF_SHADOW_REG_SETS == 0)    
    /*
     * Now that the caches are initialized, set up the stack pointer.
     * The value provided by the linker is assumed to be correctly aligned.
     */
    movhi sp, %hi(__alt_stack_pointer)
 84001c4:	06c22034 	movhi	sp,2176
    ori sp, sp, %lo(__alt_stack_pointer)
 84001c8:	dec00014 	ori	sp,sp,0

    /* Set up the global pointer. */
    movhi gp, %hi(_gp)
 84001cc:	06821074 	movhi	gp,2113
    ori gp, gp, %lo(_gp)
 84001d0:	d6ae4e14 	ori	gp,gp,47416
 */
#ifndef ALT_SIM_OPTIMIZE
    /* Log that the BSS is about to be cleared. */
    ALT_LOG_PUTS(alt_log_msg_bss)

    movhi r2, %hi(__bss_start)
 84001d4:	00821074 	movhi	r2,2113
    ori r2, r2, %lo(__bss_start)
 84001d8:	10955614 	ori	r2,r2,21848

    movhi r3, %hi(__bss_end)
 84001dc:	00c21074 	movhi	r3,2113
    ori r3, r3, %lo(__bss_end)
 84001e0:	18d61914 	ori	r3,r3,22628

    beq r2, r3, 1f
 84001e4:	10c00326 	beq	r2,r3,84001f4 <_start+0x40>

0:
    stw zero, (r2)
 84001e8:	10000015 	stw	zero,0(r2)
    addi r2, r2, 4
 84001ec:	10800104 	addi	r2,r2,4
    bltu r2, r3, 0b
 84001f0:	10fffd36 	bltu	r2,r3,84001e8 <_start+0x34>
     * section aren't defined until alt_load() has been called).
     */
    mov   et, zero
#endif

    call alt_load
 84001f4:	840d25c0 	call	840d25c <alt_load>

    /* Log that alt_main is about to be called. */
    ALT_LOG_PUTS(alt_log_msg_alt_main)

    /* Call the C entry point. It should never return. */
    call alt_main
 84001f8:	840d4980 	call	840d498 <alt_main>

084001fc <alt_after_alt_main>:

    /* Wait in infinite loop in case alt_main does return. */
alt_after_alt_main:
    br alt_after_alt_main
 84001fc:	003fff06 	br	84001fc <alt_after_alt_main>

08400200 <main>:
void barrier(int id);
void pend(alt_mailbox_dev* box);
void post(int id, alt_u32 mess);


int main() {
 8400200:	deffe704 	addi	sp,sp,-100
 8400204:	dfc01815 	stw	ra,96(sp)
 8400208:	df001715 	stw	fp,92(sp)
 840020c:	dc401615 	stw	r17,88(sp)
 8400210:	dc001515 	stw	r16,84(sp)
 8400214:	df001504 	addi	fp,sp,84

	mailbox_0 = altera_avalon_mailbox_open("/dev/mailbox_0");
 8400218:	01021074 	movhi	r4,2113
 840021c:	21060c04 	addi	r4,r4,6192
 8400220:	840e9140 	call	840e914 <altera_avalon_mailbox_open>
 8400224:	d0a70915 	stw	r2,-25564(gp)
	mailbox_1 = altera_avalon_mailbox_open("/dev/mailbox_1");
 8400228:	01021074 	movhi	r4,2113
 840022c:	21061004 	addi	r4,r4,6208
 8400230:	840e9140 	call	840e914 <altera_avalon_mailbox_open>
 8400234:	d0a70b15 	stw	r2,-25556(gp)
	mailbox_2 = altera_avalon_mailbox_open("/dev/mailbox_2");
 8400238:	01021074 	movhi	r4,2113
 840023c:	21061404 	addi	r4,r4,6224
 8400240:	840e9140 	call	840e914 <altera_avalon_mailbox_open>
 8400244:	d0a70a15 	stw	r2,-25560(gp)
	mailbox_3 = altera_avalon_mailbox_open("/dev/mailbox_3");
 8400248:	01021074 	movhi	r4,2113
 840024c:	21061804 	addi	r4,r4,6240
 8400250:	840e9140 	call	840e914 <altera_avalon_mailbox_open>
 8400254:	d0a70e15 	stw	r2,-25544(gp)

	int cpuid = __builtin_rdctl(5);
 8400258:	0005317a 	rdctl	r2,cpuid
 840025c:	e0bffe15 	stw	r2,-8(fp)

	barrier(cpuid);
 8400260:	e13ffe17 	ldw	r4,-8(fp)
 8400264:	8400a500 	call	8400a50 <barrier>
	alt_up_pixel_buffer_dma_dev *my_pixel_buffer; //declare global var
	my_pixel_buffer=alt_up_pixel_buffer_dma_open_dev("/dev/video_pixel_buffer_dma_0"); //assign it
 8400268:	01021074 	movhi	r4,2113
 840026c:	21061c04 	addi	r4,r4,6256
 8400270:	840ef1c0 	call	840ef1c <alt_up_pixel_buffer_dma_open_dev>
 8400274:	e0bffd15 	stw	r2,-12(fp)
	alt_up_pixel_buffer_dma_clear_screen(my_pixel_buffer,0);//clear_screen();
 8400278:	e13ffd17 	ldw	r4,-12(fp)
 840027c:	000b883a 	mov	r5,zero
 8400280:	840f1e00 	call	840f1e0 <alt_up_pixel_buffer_dma_clear_screen>

	int zoom = 1;
 8400284:	00800044 	movi	r2,1
 8400288:	e0bffc15 	stw	r2,-16(fp)
	float min_x, max_x, min_y, max_y;
	min_x = -2.5;
 840028c:	00b00834 	movhi	r2,49184
 8400290:	e0bffb15 	stw	r2,-20(fp)
	max_x = 1.0;
 8400294:	008fe034 	movhi	r2,16256
 8400298:	e0bffa15 	stw	r2,-24(fp)
	min_y = -1.0;
 840029c:	00afe034 	movhi	r2,49024
 84002a0:	e0bff915 	stw	r2,-28(fp)
	max_y = 1.0;
 84002a4:	008fe034 	movhi	r2,16256
 84002a8:	e0bff815 	stw	r2,-32(fp)
	float x, y, z;
	float x0, y0;
	float target_x, target_y, xtemp;
	int iteration;
	int is_target; //false
	int first_pass = 0; // on the first pass
 84002ac:	e03feb15 	stw	zero,-84(fp)

	//barrier(cpuid);
	while (1) {
		is_target = 0;
 84002b0:	e03fec15 	stw	zero,-80(fp)
		for (i = cpuid; i < num_rows; i+=4) {
 84002b4:	e0bffe17 	ldw	r2,-8(fp)
 84002b8:	e0bff715 	stw	r2,-36(fp)
 84002bc:	00014206 	br	84007c8 <main+0x5c8>
			for (j = 0; j < num_cols; j++) {
 84002c0:	e03ff615 	stw	zero,-40(fp)
 84002c4:	00013806 	br	84007a8 <main+0x5a8>
				x = 0;
 84002c8:	e03ff515 	stw	zero,-44(fp)
				y = 0;
 84002cc:	e03ff415 	stw	zero,-48(fp)
				z = 0;
 84002d0:	e03ff315 	stw	zero,-52(fp)
				x0 = j/320.0*(max_x - min_x) + min_x;
 84002d4:	e13ff617 	ldw	r4,-40(fp)
 84002d8:	84030ec0 	call	84030ec <__floatsisf>
 84002dc:	1009883a 	mov	r4,r2
 84002e0:	0150e834 	movhi	r5,17312
 84002e4:	8402e880 	call	8402e88 <__divsf3>
 84002e8:	1009883a 	mov	r4,r2
 84002ec:	e0fffa17 	ldw	r3,-24(fp)
 84002f0:	e0bffb17 	ldw	r2,-20(fp)
 84002f4:	1885ffb2 	custom	254,r2,r3,r2
 84002f8:	2087ff32 	custom	252,r3,r4,r2
 84002fc:	e0bffb17 	ldw	r2,-20(fp)
 8400300:	1885ff72 	custom	253,r2,r3,r2
 8400304:	e0bff215 	stw	r2,-56(fp)
				y0 = (239.0-i)/240.0*(max_y - min_y) + min_y;
 8400308:	e13ff717 	ldw	r4,-36(fp)
 840030c:	84030ec0 	call	84030ec <__floatsisf>
 8400310:	1007883a 	mov	r3,r2
 8400314:	0090dbf4 	movhi	r2,17263
 8400318:	10c5ffb2 	custom	254,r2,r2,r3
 840031c:	1009883a 	mov	r4,r2
 8400320:	0150dc34 	movhi	r5,17264
 8400324:	8402e880 	call	8402e88 <__divsf3>
 8400328:	1009883a 	mov	r4,r2
 840032c:	e0fff817 	ldw	r3,-32(fp)
 8400330:	e0bff917 	ldw	r2,-28(fp)
 8400334:	1885ffb2 	custom	254,r2,r3,r2
 8400338:	2087ff32 	custom	252,r3,r4,r2
 840033c:	e0bff917 	ldw	r2,-28(fp)
 8400340:	1885ff72 	custom	253,r2,r3,r2
 8400344:	e0bff115 	stw	r2,-60(fp)
				iteration = 0;
 8400348:	e03fed15 	stw	zero,-76(fp)

				while( (x*x + y*y) <= 4 && iteration < 500) {
 840034c:	0000db06 	br	84006bc <main+0x4bc>
					xtemp = x*x - y*y + x0;
 8400350:	e0fff517 	ldw	r3,-44(fp)
 8400354:	e0bff517 	ldw	r2,-44(fp)
 8400358:	1889ff32 	custom	252,r4,r3,r2
 840035c:	e0fff417 	ldw	r3,-48(fp)
 8400360:	e0bff417 	ldw	r2,-48(fp)
 8400364:	1885ff32 	custom	252,r2,r3,r2
 8400368:	2087ffb2 	custom	254,r3,r4,r2
 840036c:	e0bff217 	ldw	r2,-56(fp)
 8400370:	1885ff72 	custom	253,r2,r3,r2
 8400374:	e0bfee15 	stw	r2,-72(fp)
					y = 2*x*y + y0;
 8400378:	e0bff517 	ldw	r2,-44(fp)
 840037c:	1087ff72 	custom	253,r3,r2,r2
 8400380:	e0bff417 	ldw	r2,-48(fp)
 8400384:	1887ff32 	custom	252,r3,r3,r2
 8400388:	e0bff117 	ldw	r2,-60(fp)
 840038c:	1885ff72 	custom	253,r2,r3,r2
 8400390:	e0bff415 	stw	r2,-48(fp)
					x = xtemp;
 8400394:	e0bfee17 	ldw	r2,-72(fp)
 8400398:	e0bff515 	stw	r2,-44(fp)
					iteration++;
 840039c:	e0bfed17 	ldw	r2,-76(fp)
 84003a0:	10800044 	addi	r2,r2,1
 84003a4:	e0bfed15 	stw	r2,-76(fp)

					if(iteration == 450 && first_pass == 0) {
 84003a8:	e0bfed17 	ldw	r2,-76(fp)
 84003ac:	10807098 	cmpnei	r2,r2,450
 84003b0:	1000c21e 	bne	r2,zero,84006bc <main+0x4bc>
 84003b4:	e0bfeb17 	ldw	r2,-84(fp)
 84003b8:	1004c03a 	cmpne	r2,r2,zero
 84003bc:	1000bf1e 	bne	r2,zero,84006bc <main+0x4bc>
						printf("FIRST PASS COMPLETE\n");
 84003c0:	01021074 	movhi	r4,2113
 84003c4:	21062404 	addi	r4,r4,6288
 84003c8:	8404e340 	call	8404e34 <puts>
						first_pass = 1;
 84003cc:	00800044 	movi	r2,1
 84003d0:	e0bfeb15 	stw	r2,-84(fp)
						if(cpuid == 0 && is_target == 0){
 84003d4:	e0bffe17 	ldw	r2,-8(fp)
 84003d8:	1004c03a 	cmpne	r2,r2,zero
 84003dc:	1000481e 	bne	r2,zero,8400500 <main+0x300>
 84003e0:	e0bfec17 	ldw	r2,-80(fp)
 84003e4:	1004c03a 	cmpne	r2,r2,zero
 84003e8:	1000451e 	bne	r2,zero,8400500 <main+0x300>
							printf("set target x and y for zoom \n");
 84003ec:	01021074 	movhi	r4,2113
 84003f0:	21062904 	addi	r4,r4,6308
 84003f4:	8404e340 	call	8404e34 <puts>
							is_target = 1;
 84003f8:	00800044 	movi	r2,1
 84003fc:	e0bfec15 	stw	r2,-80(fp)
							target_x = x0;
 8400400:	e0bff217 	ldw	r2,-56(fp)
 8400404:	e0bff015 	stw	r2,-64(fp)
							target_y = y0;
 8400408:	e0bff117 	ldw	r2,-60(fp)
 840040c:	e0bfef15 	stw	r2,-68(fp)
							//comment out from here to the other dotted line to get rid of the zoom stuff
							//if you run it with no zoom you'll notice I was able to adjust the barriers and
							//smooth out the drawing of the frame so that certain CPUs don't pull ahead
							//*------------
							printf("target_x: %f...", target_x);
 8400410:	e13ff017 	ldw	r4,-64(fp)
 8400414:	84032180 	call	8403218 <__extendsfdf2>
 8400418:	100d883a 	mov	r6,r2
 840041c:	180f883a 	mov	r7,r3
 8400420:	01021074 	movhi	r4,2113
 8400424:	21063104 	addi	r4,r4,6340
 8400428:	300b883a 	mov	r5,r6
 840042c:	380d883a 	mov	r6,r7
 8400430:	8404d1c0 	call	8404d1c <printf>
							printf("target_y: %f\n", target_y);
 8400434:	e13fef17 	ldw	r4,-68(fp)
 8400438:	84032180 	call	8403218 <__extendsfdf2>
 840043c:	100d883a 	mov	r6,r2
 8400440:	180f883a 	mov	r7,r3
 8400444:	01021074 	movhi	r4,2113
 8400448:	21063504 	addi	r4,r4,6356
 840044c:	300b883a 	mov	r5,r6
 8400450:	380d883a 	mov	r6,r7
 8400454:	8404d1c0 	call	8404d1c <printf>
							 *
							 *
							 *
							 */

							altera_avalon_mailbox_post(mailbox_1, target_x);
 8400458:	d4270b17 	ldw	r16,-25556(gp)
 840045c:	e13ff017 	ldw	r4,-64(fp)
 8400460:	8402b600 	call	8402b60 <__fixunssfsi>
 8400464:	100b883a 	mov	r5,r2
 8400468:	8009883a 	mov	r4,r16
 840046c:	840e98c0 	call	840e98c <altera_avalon_mailbox_post>
							altera_avalon_mailbox_post(mailbox_2, target_x);
 8400470:	d4270a17 	ldw	r16,-25560(gp)
 8400474:	e13ff017 	ldw	r4,-64(fp)
 8400478:	8402b600 	call	8402b60 <__fixunssfsi>
 840047c:	100b883a 	mov	r5,r2
 8400480:	8009883a 	mov	r4,r16
 8400484:	840e98c0 	call	840e98c <altera_avalon_mailbox_post>
							altera_avalon_mailbox_post(mailbox_3, target_x);
 8400488:	d4270e17 	ldw	r16,-25544(gp)
 840048c:	e13ff017 	ldw	r4,-64(fp)
 8400490:	8402b600 	call	8402b60 <__fixunssfsi>
 8400494:	100b883a 	mov	r5,r2
 8400498:	8009883a 	mov	r4,r16
 840049c:	840e98c0 	call	840e98c <altera_avalon_mailbox_post>
							altera_avalon_mailbox_post(mailbox_1, target_y);
 84004a0:	d4270b17 	ldw	r16,-25556(gp)
 84004a4:	e13fef17 	ldw	r4,-68(fp)
 84004a8:	8402b600 	call	8402b60 <__fixunssfsi>
 84004ac:	100b883a 	mov	r5,r2
 84004b0:	8009883a 	mov	r4,r16
 84004b4:	840e98c0 	call	840e98c <altera_avalon_mailbox_post>
							altera_avalon_mailbox_post(mailbox_2, target_y);
 84004b8:	d4270a17 	ldw	r16,-25560(gp)
 84004bc:	e13fef17 	ldw	r4,-68(fp)
 84004c0:	8402b600 	call	8402b60 <__fixunssfsi>
 84004c4:	100b883a 	mov	r5,r2
 84004c8:	8009883a 	mov	r4,r16
 84004cc:	840e98c0 	call	840e98c <altera_avalon_mailbox_post>
							altera_avalon_mailbox_post(mailbox_3, target_y);
 84004d0:	d4270e17 	ldw	r16,-25544(gp)
 84004d4:	e13fef17 	ldw	r4,-68(fp)
 84004d8:	8402b600 	call	8402b60 <__fixunssfsi>
 84004dc:	100b883a 	mov	r5,r2
 84004e0:	8009883a 	mov	r4,r16
 84004e4:	840e98c0 	call	840e98c <altera_avalon_mailbox_post>
							//pend mailbox 0 until the other 3 boxes have posted
							altera_avalon_mailbox_pend(mailbox_0);
 84004e8:	d1270917 	ldw	r4,-25564(gp)
 84004ec:	840ea980 	call	840ea98 <altera_avalon_mailbox_pend>
							altera_avalon_mailbox_pend(mailbox_0);
 84004f0:	d1270917 	ldw	r4,-25564(gp)
 84004f4:	840ea980 	call	840ea98 <altera_avalon_mailbox_pend>
							altera_avalon_mailbox_pend(mailbox_0);
 84004f8:	d1270917 	ldw	r4,-25564(gp)
 84004fc:	840ea980 	call	840ea98 <altera_avalon_mailbox_pend>
						}
						if(cpuid == 1){
 8400500:	e0bffe17 	ldw	r2,-8(fp)
 8400504:	10800058 	cmpnei	r2,r2,1
 8400508:	1000221e 	bne	r2,zero,8400594 <main+0x394>
							printf("mailbox_1 pending\n");
 840050c:	01021074 	movhi	r4,2113
 8400510:	21063904 	addi	r4,r4,6372
 8400514:	8404e340 	call	8404e34 <puts>
							target_x = altera_avalon_mailbox_pend(mailbox_1);
 8400518:	d1270b17 	ldw	r4,-25556(gp)
 840051c:	840ea980 	call	840ea98 <altera_avalon_mailbox_pend>
 8400520:	1009883a 	mov	r4,r2
 8400524:	840326c0 	call	840326c <__floatunsisf>
 8400528:	e0bff015 	stw	r2,-64(fp)
							target_y = altera_avalon_mailbox_pend(mailbox_1);
 840052c:	d1270b17 	ldw	r4,-25556(gp)
 8400530:	840ea980 	call	840ea98 <altera_avalon_mailbox_pend>
 8400534:	1009883a 	mov	r4,r2
 8400538:	840326c0 	call	840326c <__floatunsisf>
 840053c:	e0bfef15 	stw	r2,-68(fp)
							printf("target_x: %f...", target_x);
 8400540:	e13ff017 	ldw	r4,-64(fp)
 8400544:	84032180 	call	8403218 <__extendsfdf2>
 8400548:	100d883a 	mov	r6,r2
 840054c:	180f883a 	mov	r7,r3
 8400550:	01021074 	movhi	r4,2113
 8400554:	21063104 	addi	r4,r4,6340
 8400558:	300b883a 	mov	r5,r6
 840055c:	380d883a 	mov	r6,r7
 8400560:	8404d1c0 	call	8404d1c <printf>
							printf("target_y: %f\n", target_y);
 8400564:	e13fef17 	ldw	r4,-68(fp)
 8400568:	84032180 	call	8403218 <__extendsfdf2>
 840056c:	100d883a 	mov	r6,r2
 8400570:	180f883a 	mov	r7,r3
 8400574:	01021074 	movhi	r4,2113
 8400578:	21063504 	addi	r4,r4,6356
 840057c:	300b883a 	mov	r5,r6
 8400580:	380d883a 	mov	r6,r7
 8400584:	8404d1c0 	call	8404d1c <printf>
							altera_avalon_mailbox_post(mailbox_0, message);
 8400588:	d1270917 	ldw	r4,-25564(gp)
 840058c:	d1670817 	ldw	r5,-25568(gp)
 8400590:	840e98c0 	call	840e98c <altera_avalon_mailbox_post>
						}
						if(cpuid == 2){
 8400594:	e0bffe17 	ldw	r2,-8(fp)
 8400598:	10800098 	cmpnei	r2,r2,2
 840059c:	1000221e 	bne	r2,zero,8400628 <main+0x428>
							printf("mailbox_2 pending\n");
 84005a0:	01021074 	movhi	r4,2113
 84005a4:	21063e04 	addi	r4,r4,6392
 84005a8:	8404e340 	call	8404e34 <puts>
							target_x = altera_avalon_mailbox_pend(mailbox_2);
 84005ac:	d1270a17 	ldw	r4,-25560(gp)
 84005b0:	840ea980 	call	840ea98 <altera_avalon_mailbox_pend>
 84005b4:	1009883a 	mov	r4,r2
 84005b8:	840326c0 	call	840326c <__floatunsisf>
 84005bc:	e0bff015 	stw	r2,-64(fp)
							target_y = altera_avalon_mailbox_pend(mailbox_2);
 84005c0:	d1270a17 	ldw	r4,-25560(gp)
 84005c4:	840ea980 	call	840ea98 <altera_avalon_mailbox_pend>
 84005c8:	1009883a 	mov	r4,r2
 84005cc:	840326c0 	call	840326c <__floatunsisf>
 84005d0:	e0bfef15 	stw	r2,-68(fp)
							printf("target_x: %f...", target_x);
 84005d4:	e13ff017 	ldw	r4,-64(fp)
 84005d8:	84032180 	call	8403218 <__extendsfdf2>
 84005dc:	100d883a 	mov	r6,r2
 84005e0:	180f883a 	mov	r7,r3
 84005e4:	01021074 	movhi	r4,2113
 84005e8:	21063104 	addi	r4,r4,6340
 84005ec:	300b883a 	mov	r5,r6
 84005f0:	380d883a 	mov	r6,r7
 84005f4:	8404d1c0 	call	8404d1c <printf>
							printf("target_y: %f\n", target_y);
 84005f8:	e13fef17 	ldw	r4,-68(fp)
 84005fc:	84032180 	call	8403218 <__extendsfdf2>
 8400600:	100d883a 	mov	r6,r2
 8400604:	180f883a 	mov	r7,r3
 8400608:	01021074 	movhi	r4,2113
 840060c:	21063504 	addi	r4,r4,6356
 8400610:	300b883a 	mov	r5,r6
 8400614:	380d883a 	mov	r6,r7
 8400618:	8404d1c0 	call	8404d1c <printf>
							altera_avalon_mailbox_post(mailbox_0, message);
 840061c:	d1270917 	ldw	r4,-25564(gp)
 8400620:	d1670817 	ldw	r5,-25568(gp)
 8400624:	840e98c0 	call	840e98c <altera_avalon_mailbox_post>
						}
						if(cpuid == 3){
 8400628:	e0bffe17 	ldw	r2,-8(fp)
 840062c:	108000d8 	cmpnei	r2,r2,3
 8400630:	1000221e 	bne	r2,zero,84006bc <main+0x4bc>
							printf("mailbox_3 pending\n");
 8400634:	01021074 	movhi	r4,2113
 8400638:	21064304 	addi	r4,r4,6412
 840063c:	8404e340 	call	8404e34 <puts>
							target_x = altera_avalon_mailbox_pend(mailbox_3);
 8400640:	d1270e17 	ldw	r4,-25544(gp)
 8400644:	840ea980 	call	840ea98 <altera_avalon_mailbox_pend>
 8400648:	1009883a 	mov	r4,r2
 840064c:	840326c0 	call	840326c <__floatunsisf>
 8400650:	e0bff015 	stw	r2,-64(fp)
							target_y = altera_avalon_mailbox_pend(mailbox_3);
 8400654:	d1270e17 	ldw	r4,-25544(gp)
 8400658:	840ea980 	call	840ea98 <altera_avalon_mailbox_pend>
 840065c:	1009883a 	mov	r4,r2
 8400660:	840326c0 	call	840326c <__floatunsisf>
 8400664:	e0bfef15 	stw	r2,-68(fp)
							printf("target_x: %f...", target_x);
 8400668:	e13ff017 	ldw	r4,-64(fp)
 840066c:	84032180 	call	8403218 <__extendsfdf2>
 8400670:	100d883a 	mov	r6,r2
 8400674:	180f883a 	mov	r7,r3
 8400678:	01021074 	movhi	r4,2113
 840067c:	21063104 	addi	r4,r4,6340
 8400680:	300b883a 	mov	r5,r6
 8400684:	380d883a 	mov	r6,r7
 8400688:	8404d1c0 	call	8404d1c <printf>
							printf("target_y: %f\n", target_y);
 840068c:	e13fef17 	ldw	r4,-68(fp)
 8400690:	84032180 	call	8403218 <__extendsfdf2>
 8400694:	100d883a 	mov	r6,r2
 8400698:	180f883a 	mov	r7,r3
 840069c:	01021074 	movhi	r4,2113
 84006a0:	21063504 	addi	r4,r4,6356
 84006a4:	300b883a 	mov	r5,r6
 84006a8:	380d883a 	mov	r6,r7
 84006ac:	8404d1c0 	call	8404d1c <printf>
							altera_avalon_mailbox_post(mailbox_0, message);
 84006b0:	d1270917 	ldw	r4,-25564(gp)
 84006b4:	d1670817 	ldw	r5,-25568(gp)
 84006b8:	840e98c0 	call	840e98c <altera_avalon_mailbox_post>
				z = 0;
				x0 = j/320.0*(max_x - min_x) + min_x;
				y0 = (239.0-i)/240.0*(max_y - min_y) + min_y;
				iteration = 0;

				while( (x*x + y*y) <= 4 && iteration < 500) {
 84006bc:	e0fff517 	ldw	r3,-44(fp)
 84006c0:	e0bff517 	ldw	r2,-44(fp)
 84006c4:	1889ff32 	custom	252,r4,r3,r2
 84006c8:	e0fff417 	ldw	r3,-48(fp)
 84006cc:	e0bff417 	ldw	r2,-48(fp)
 84006d0:	1885ff32 	custom	252,r2,r3,r2
 84006d4:	2085ff72 	custom	253,r2,r4,r2
 84006d8:	e03fff05 	stb	zero,-4(fp)
 84006dc:	1009883a 	mov	r4,r2
 84006e0:	01502034 	movhi	r5,16512
 84006e4:	84030740 	call	8403074 <__lesf2>
 84006e8:	10800050 	cmplti	r2,r2,1
 84006ec:	1000011e 	bne	r2,zero,84006f4 <main+0x4f4>
 84006f0:	00000206 	br	84006fc <main+0x4fc>
 84006f4:	00800044 	movi	r2,1
 84006f8:	e0bfff05 	stb	r2,-4(fp)
 84006fc:	e0ffff03 	ldbu	r3,-4(fp)
 8400700:	1880005c 	xori	r2,r3,1
 8400704:	10803fcc 	andi	r2,r2,255
 8400708:	1004c03a 	cmpne	r2,r2,zero
 840070c:	1000031e 	bne	r2,zero,840071c <main+0x51c>
 8400710:	e0bfed17 	ldw	r2,-76(fp)
 8400714:	10807d10 	cmplti	r2,r2,500
 8400718:	103f0d1e 	bne	r2,zero,8400350 <main+0x150>
						}
					}

				}
				//printf("Iteration: %d\n", iteration);
				if(iteration == 500) {
 840071c:	e0bfed17 	ldw	r2,-76(fp)
 8400720:	10807d18 	cmpnei	r2,r2,500
 8400724:	1000061e 	bne	r2,zero,8400740 <main+0x540>
					alt_up_pixel_buffer_dma_draw(my_pixel_buffer, 0,j,i );
 8400728:	e1bff617 	ldw	r6,-40(fp)
 840072c:	e1fff717 	ldw	r7,-36(fp)
 8400730:	e13ffd17 	ldw	r4,-12(fp)
 8400734:	000b883a 	mov	r5,zero
 8400738:	840ef5c0 	call	840ef5c <alt_up_pixel_buffer_dma_draw>
 840073c:	00001706 	br	840079c <main+0x59c>
				} else {
					alt_up_pixel_buffer_dma_draw(my_pixel_buffer, (iteration*8/zoom) + (iteration*4/zoom) +(iteration*2/zoom), j, i);
 8400740:	e0bfed17 	ldw	r2,-76(fp)
 8400744:	100890fa 	slli	r4,r2,3
 8400748:	e17ffc17 	ldw	r5,-16(fp)
 840074c:	84043140 	call	8404314 <__divsi3>
 8400750:	1021883a 	mov	r16,r2
 8400754:	e0bfed17 	ldw	r2,-76(fp)
 8400758:	1085883a 	add	r2,r2,r2
 840075c:	1085883a 	add	r2,r2,r2
 8400760:	1009883a 	mov	r4,r2
 8400764:	e17ffc17 	ldw	r5,-16(fp)
 8400768:	84043140 	call	8404314 <__divsi3>
 840076c:	80a1883a 	add	r16,r16,r2
 8400770:	e0bfed17 	ldw	r2,-76(fp)
 8400774:	1085883a 	add	r2,r2,r2
 8400778:	1009883a 	mov	r4,r2
 840077c:	e17ffc17 	ldw	r5,-16(fp)
 8400780:	84043140 	call	8404314 <__divsi3>
 8400784:	8085883a 	add	r2,r16,r2
 8400788:	100b883a 	mov	r5,r2
 840078c:	e1bff617 	ldw	r6,-40(fp)
 8400790:	e1fff717 	ldw	r7,-36(fp)
 8400794:	e13ffd17 	ldw	r4,-12(fp)
 8400798:	840ef5c0 	call	840ef5c <alt_up_pixel_buffer_dma_draw>

	//barrier(cpuid);
	while (1) {
		is_target = 0;
		for (i = cpuid; i < num_rows; i+=4) {
			for (j = 0; j < num_cols; j++) {
 840079c:	e0bff617 	ldw	r2,-40(fp)
 84007a0:	10800044 	addi	r2,r2,1
 84007a4:	e0bff615 	stw	r2,-40(fp)
 84007a8:	d0e00117 	ldw	r3,-32764(gp)
 84007ac:	e0bff617 	ldw	r2,-40(fp)
 84007b0:	10fec516 	blt	r2,r3,84002c8 <main+0xc8>
				} else {
					alt_up_pixel_buffer_dma_draw(my_pixel_buffer, (iteration*8/zoom) + (iteration*4/zoom) +(iteration*2/zoom), j, i);
				}
				//barrier(cpuid);
			}
			barrier(cpuid);
 84007b4:	e13ffe17 	ldw	r4,-8(fp)
 84007b8:	8400a500 	call	8400a50 <barrier>
	int first_pass = 0; // on the first pass

	//barrier(cpuid);
	while (1) {
		is_target = 0;
		for (i = cpuid; i < num_rows; i+=4) {
 84007bc:	e0bff717 	ldw	r2,-36(fp)
 84007c0:	10800104 	addi	r2,r2,4
 84007c4:	e0bff715 	stw	r2,-36(fp)
 84007c8:	d0e00017 	ldw	r3,-32768(gp)
 84007cc:	e0bff717 	ldw	r2,-36(fp)
 84007d0:	10febb16 	blt	r2,r3,84002c0 <main+0xc0>
				//barrier(cpuid);
			}
			barrier(cpuid);
		}

		barrier(cpuid);
 84007d4:	e13ffe17 	ldw	r4,-8(fp)
 84007d8:	8400a500 	call	8400a50 <barrier>
		min_x = target_x - (1/(pow(1.5, zoom)));
 84007dc:	e13ff017 	ldw	r4,-64(fp)
 84007e0:	84032180 	call	8403218 <__extendsfdf2>
 84007e4:	1021883a 	mov	r16,r2
 84007e8:	1823883a 	mov	r17,r3
 84007ec:	e13ffc17 	ldw	r4,-16(fp)
 84007f0:	84040f40 	call	84040f4 <__floatsidf>
 84007f4:	100f883a 	mov	r7,r2
 84007f8:	1811883a 	mov	r8,r3
 84007fc:	0009883a 	mov	r4,zero
 8400800:	014ffe34 	movhi	r5,16376
 8400804:	380d883a 	mov	r6,r7
 8400808:	400f883a 	mov	r7,r8
 840080c:	8400c800 	call	8400c80 <pow>
 8400810:	1009883a 	mov	r4,r2
 8400814:	180b883a 	mov	r5,r3
 8400818:	2005883a 	mov	r2,r4
 840081c:	2807883a 	mov	r3,r5
 8400820:	0009883a 	mov	r4,zero
 8400824:	016ffc34 	movhi	r5,49136
 8400828:	100d883a 	mov	r6,r2
 840082c:	180f883a 	mov	r7,r3
 8400830:	8403bf40 	call	8403bf4 <__divdf3>
 8400834:	1009883a 	mov	r4,r2
 8400838:	180b883a 	mov	r5,r3
 840083c:	2005883a 	mov	r2,r4
 8400840:	2807883a 	mov	r3,r5
 8400844:	8009883a 	mov	r4,r16
 8400848:	880b883a 	mov	r5,r17
 840084c:	100d883a 	mov	r6,r2
 8400850:	180f883a 	mov	r7,r3
 8400854:	84037bc0 	call	84037bc <__adddf3>
 8400858:	1009883a 	mov	r4,r2
 840085c:	180b883a 	mov	r5,r3
 8400860:	2005883a 	mov	r2,r4
 8400864:	2807883a 	mov	r3,r5
 8400868:	1009883a 	mov	r4,r2
 840086c:	180b883a 	mov	r5,r3
 8400870:	84042240 	call	8404224 <__truncdfsf2>
 8400874:	e0bffb15 	stw	r2,-20(fp)
		max_x = target_x + (1/(pow(1.5, zoom)));
 8400878:	e13ff017 	ldw	r4,-64(fp)
 840087c:	84032180 	call	8403218 <__extendsfdf2>
 8400880:	1021883a 	mov	r16,r2
 8400884:	1823883a 	mov	r17,r3
 8400888:	e13ffc17 	ldw	r4,-16(fp)
 840088c:	84040f40 	call	84040f4 <__floatsidf>
 8400890:	100f883a 	mov	r7,r2
 8400894:	1811883a 	mov	r8,r3
 8400898:	0009883a 	mov	r4,zero
 840089c:	014ffe34 	movhi	r5,16376
 84008a0:	380d883a 	mov	r6,r7
 84008a4:	400f883a 	mov	r7,r8
 84008a8:	8400c800 	call	8400c80 <pow>
 84008ac:	100f883a 	mov	r7,r2
 84008b0:	1811883a 	mov	r8,r3
 84008b4:	0009883a 	mov	r4,zero
 84008b8:	014ffc34 	movhi	r5,16368
 84008bc:	380d883a 	mov	r6,r7
 84008c0:	400f883a 	mov	r7,r8
 84008c4:	8403bf40 	call	8403bf4 <__divdf3>
 84008c8:	1009883a 	mov	r4,r2
 84008cc:	180b883a 	mov	r5,r3
 84008d0:	2005883a 	mov	r2,r4
 84008d4:	2807883a 	mov	r3,r5
 84008d8:	8009883a 	mov	r4,r16
 84008dc:	880b883a 	mov	r5,r17
 84008e0:	100d883a 	mov	r6,r2
 84008e4:	180f883a 	mov	r7,r3
 84008e8:	84037bc0 	call	84037bc <__adddf3>
 84008ec:	1009883a 	mov	r4,r2
 84008f0:	180b883a 	mov	r5,r3
 84008f4:	2005883a 	mov	r2,r4
 84008f8:	2807883a 	mov	r3,r5
 84008fc:	1009883a 	mov	r4,r2
 8400900:	180b883a 	mov	r5,r3
 8400904:	84042240 	call	8404224 <__truncdfsf2>
 8400908:	e0bffa15 	stw	r2,-24(fp)
		min_y = target_y - (0.75/(pow(1.5, zoom)));
 840090c:	e13fef17 	ldw	r4,-68(fp)
 8400910:	84032180 	call	8403218 <__extendsfdf2>
 8400914:	1021883a 	mov	r16,r2
 8400918:	1823883a 	mov	r17,r3
 840091c:	e13ffc17 	ldw	r4,-16(fp)
 8400920:	84040f40 	call	84040f4 <__floatsidf>
 8400924:	100f883a 	mov	r7,r2
 8400928:	1811883a 	mov	r8,r3
 840092c:	0009883a 	mov	r4,zero
 8400930:	014ffe34 	movhi	r5,16376
 8400934:	380d883a 	mov	r6,r7
 8400938:	400f883a 	mov	r7,r8
 840093c:	8400c800 	call	8400c80 <pow>
 8400940:	100f883a 	mov	r7,r2
 8400944:	1811883a 	mov	r8,r3
 8400948:	0009883a 	mov	r4,zero
 840094c:	016ffa34 	movhi	r5,49128
 8400950:	380d883a 	mov	r6,r7
 8400954:	400f883a 	mov	r7,r8
 8400958:	8403bf40 	call	8403bf4 <__divdf3>
 840095c:	1009883a 	mov	r4,r2
 8400960:	180b883a 	mov	r5,r3
 8400964:	2005883a 	mov	r2,r4
 8400968:	2807883a 	mov	r3,r5
 840096c:	8009883a 	mov	r4,r16
 8400970:	880b883a 	mov	r5,r17
 8400974:	100d883a 	mov	r6,r2
 8400978:	180f883a 	mov	r7,r3
 840097c:	84037bc0 	call	84037bc <__adddf3>
 8400980:	1009883a 	mov	r4,r2
 8400984:	180b883a 	mov	r5,r3
 8400988:	2005883a 	mov	r2,r4
 840098c:	2807883a 	mov	r3,r5
 8400990:	1009883a 	mov	r4,r2
 8400994:	180b883a 	mov	r5,r3
 8400998:	84042240 	call	8404224 <__truncdfsf2>
 840099c:	e0bff915 	stw	r2,-28(fp)
		max_y = target_y + (0.75/(pow(1.5, zoom)));
 84009a0:	e13fef17 	ldw	r4,-68(fp)
 84009a4:	84032180 	call	8403218 <__extendsfdf2>
 84009a8:	1021883a 	mov	r16,r2
 84009ac:	1823883a 	mov	r17,r3
 84009b0:	e13ffc17 	ldw	r4,-16(fp)
 84009b4:	84040f40 	call	84040f4 <__floatsidf>
 84009b8:	100f883a 	mov	r7,r2
 84009bc:	1811883a 	mov	r8,r3
 84009c0:	0009883a 	mov	r4,zero
 84009c4:	014ffe34 	movhi	r5,16376
 84009c8:	380d883a 	mov	r6,r7
 84009cc:	400f883a 	mov	r7,r8
 84009d0:	8400c800 	call	8400c80 <pow>
 84009d4:	100f883a 	mov	r7,r2
 84009d8:	1811883a 	mov	r8,r3
 84009dc:	0009883a 	mov	r4,zero
 84009e0:	014ffa34 	movhi	r5,16360
 84009e4:	380d883a 	mov	r6,r7
 84009e8:	400f883a 	mov	r7,r8
 84009ec:	8403bf40 	call	8403bf4 <__divdf3>
 84009f0:	1009883a 	mov	r4,r2
 84009f4:	180b883a 	mov	r5,r3
 84009f8:	2005883a 	mov	r2,r4
 84009fc:	2807883a 	mov	r3,r5
 8400a00:	8009883a 	mov	r4,r16
 8400a04:	880b883a 	mov	r5,r17
 8400a08:	100d883a 	mov	r6,r2
 8400a0c:	180f883a 	mov	r7,r3
 8400a10:	84037bc0 	call	84037bc <__adddf3>
 8400a14:	1009883a 	mov	r4,r2
 8400a18:	180b883a 	mov	r5,r3
 8400a1c:	2005883a 	mov	r2,r4
 8400a20:	2807883a 	mov	r3,r5
 8400a24:	1009883a 	mov	r4,r2
 8400a28:	180b883a 	mov	r5,r3
 8400a2c:	84042240 	call	8404224 <__truncdfsf2>
 8400a30:	e0bff815 	stw	r2,-32(fp)
		zoom += 1;
 8400a34:	e0bffc17 	ldw	r2,-16(fp)
 8400a38:	10800044 	addi	r2,r2,1
 8400a3c:	e0bffc15 	stw	r2,-16(fp)

		alt_up_pixel_buffer_dma_clear_screen(my_pixel_buffer,0);
 8400a40:	e13ffd17 	ldw	r4,-12(fp)
 8400a44:	000b883a 	mov	r5,zero
 8400a48:	840f1e00 	call	840f1e0 <alt_up_pixel_buffer_dma_clear_screen>
	}
 8400a4c:	003e1806 	br	84002b0 <main+0xb0>

08400a50 <barrier>:
	//barrier(cpuid);
}

void barrier(int id){
 8400a50:	defff904 	addi	sp,sp,-28
 8400a54:	dfc00615 	stw	ra,24(sp)
 8400a58:	df000515 	stw	fp,20(sp)
 8400a5c:	df000504 	addi	fp,sp,20
 8400a60:	e13fff15 	stw	r4,-4(fp)
	post(id, message);
 8400a64:	d1670817 	ldw	r5,-25568(gp)
 8400a68:	e13fff17 	ldw	r4,-4(fp)
 8400a6c:	8400b940 	call	8400b94 <post>
	if(id == 0){
 8400a70:	e0bfff17 	ldw	r2,-4(fp)
 8400a74:	1004c03a 	cmpne	r2,r2,zero
 8400a78:	10000b1e 	bne	r2,zero,8400aa8 <barrier+0x58>
		int i;
		for(i = 0; i < n-1; i++){
 8400a7c:	e03ffe15 	stw	zero,-8(fp)
 8400a80:	00000506 	br	8400a98 <barrier+0x48>
			pend(mailbox_0);
 8400a84:	d1270917 	ldw	r4,-25564(gp)
 8400a88:	8400b640 	call	8400b64 <pend>

void barrier(int id){
	post(id, message);
	if(id == 0){
		int i;
		for(i = 0; i < n-1; i++){
 8400a8c:	e0bffe17 	ldw	r2,-8(fp)
 8400a90:	10800044 	addi	r2,r2,1
 8400a94:	e0bffe15 	stw	r2,-8(fp)
 8400a98:	d0a00217 	ldw	r2,-32760(gp)
 8400a9c:	10ffffc4 	addi	r3,r2,-1
 8400aa0:	e0bffe17 	ldw	r2,-8(fp)
 8400aa4:	10fff716 	blt	r2,r3,8400a84 <barrier+0x34>
			pend(mailbox_0);
		}
	}
	if(id == 1){
 8400aa8:	e0bfff17 	ldw	r2,-4(fp)
 8400aac:	10800058 	cmpnei	r2,r2,1
 8400ab0:	10000b1e 	bne	r2,zero,8400ae0 <barrier+0x90>
		int i;
		for(i = 0; i < n-1; i++){
 8400ab4:	e03ffd15 	stw	zero,-12(fp)
 8400ab8:	00000506 	br	8400ad0 <barrier+0x80>
			pend(mailbox_1);
 8400abc:	d1270b17 	ldw	r4,-25556(gp)
 8400ac0:	8400b640 	call	8400b64 <pend>
			pend(mailbox_0);
		}
	}
	if(id == 1){
		int i;
		for(i = 0; i < n-1; i++){
 8400ac4:	e0bffd17 	ldw	r2,-12(fp)
 8400ac8:	10800044 	addi	r2,r2,1
 8400acc:	e0bffd15 	stw	r2,-12(fp)
 8400ad0:	d0a00217 	ldw	r2,-32760(gp)
 8400ad4:	10ffffc4 	addi	r3,r2,-1
 8400ad8:	e0bffd17 	ldw	r2,-12(fp)
 8400adc:	10fff716 	blt	r2,r3,8400abc <barrier+0x6c>
			pend(mailbox_1);
		}
	}
	if(id == 2){
 8400ae0:	e0bfff17 	ldw	r2,-4(fp)
 8400ae4:	10800098 	cmpnei	r2,r2,2
 8400ae8:	10000b1e 	bne	r2,zero,8400b18 <barrier+0xc8>
		int i;
		for(i = 0; i < n-1; i++){
 8400aec:	e03ffc15 	stw	zero,-16(fp)
 8400af0:	00000506 	br	8400b08 <barrier+0xb8>
			pend(mailbox_2);
 8400af4:	d1270a17 	ldw	r4,-25560(gp)
 8400af8:	8400b640 	call	8400b64 <pend>
			pend(mailbox_1);
		}
	}
	if(id == 2){
		int i;
		for(i = 0; i < n-1; i++){
 8400afc:	e0bffc17 	ldw	r2,-16(fp)
 8400b00:	10800044 	addi	r2,r2,1
 8400b04:	e0bffc15 	stw	r2,-16(fp)
 8400b08:	d0a00217 	ldw	r2,-32760(gp)
 8400b0c:	10ffffc4 	addi	r3,r2,-1
 8400b10:	e0bffc17 	ldw	r2,-16(fp)
 8400b14:	10fff716 	blt	r2,r3,8400af4 <barrier+0xa4>
			pend(mailbox_2);
		}
	}
	if(id == 3){
 8400b18:	e0bfff17 	ldw	r2,-4(fp)
 8400b1c:	108000d8 	cmpnei	r2,r2,3
 8400b20:	10000b1e 	bne	r2,zero,8400b50 <barrier+0x100>
		int i;
		for(i = 0; i < n-1; i++){
 8400b24:	e03ffb15 	stw	zero,-20(fp)
 8400b28:	00000506 	br	8400b40 <barrier+0xf0>
			pend(mailbox_3);
 8400b2c:	d1270e17 	ldw	r4,-25544(gp)
 8400b30:	8400b640 	call	8400b64 <pend>
			pend(mailbox_2);
		}
	}
	if(id == 3){
		int i;
		for(i = 0; i < n-1; i++){
 8400b34:	e0bffb17 	ldw	r2,-20(fp)
 8400b38:	10800044 	addi	r2,r2,1
 8400b3c:	e0bffb15 	stw	r2,-20(fp)
 8400b40:	d0a00217 	ldw	r2,-32760(gp)
 8400b44:	10ffffc4 	addi	r3,r2,-1
 8400b48:	e0bffb17 	ldw	r2,-20(fp)
 8400b4c:	10fff716 	blt	r2,r3,8400b2c <barrier+0xdc>
			pend(mailbox_3);
		}
	}
}
 8400b50:	e037883a 	mov	sp,fp
 8400b54:	dfc00117 	ldw	ra,4(sp)
 8400b58:	df000017 	ldw	fp,0(sp)
 8400b5c:	dec00204 	addi	sp,sp,8
 8400b60:	f800283a 	ret

08400b64 <pend>:
void pend(alt_mailbox_dev* box){
 8400b64:	defffd04 	addi	sp,sp,-12
 8400b68:	dfc00215 	stw	ra,8(sp)
 8400b6c:	df000115 	stw	fp,4(sp)
 8400b70:	df000104 	addi	fp,sp,4
 8400b74:	e13fff15 	stw	r4,-4(fp)
	//printf("MAILBOX PENDING \n");
	altera_avalon_mailbox_pend(box);
 8400b78:	e13fff17 	ldw	r4,-4(fp)
 8400b7c:	840ea980 	call	840ea98 <altera_avalon_mailbox_pend>
}
 8400b80:	e037883a 	mov	sp,fp
 8400b84:	dfc00117 	ldw	ra,4(sp)
 8400b88:	df000017 	ldw	fp,0(sp)
 8400b8c:	dec00204 	addi	sp,sp,8
 8400b90:	f800283a 	ret

08400b94 <post>:

void post(int id, alt_u32 mess){
 8400b94:	defffc04 	addi	sp,sp,-16
 8400b98:	dfc00315 	stw	ra,12(sp)
 8400b9c:	df000215 	stw	fp,8(sp)
 8400ba0:	df000204 	addi	fp,sp,8
 8400ba4:	e13ffe15 	stw	r4,-8(fp)
 8400ba8:	e17fff15 	stw	r5,-4(fp)
	 //altera_avalon_mailbox_post(box, message);

	 if(id == 0){
 8400bac:	e0bffe17 	ldw	r2,-8(fp)
 8400bb0:	1004c03a 	cmpne	r2,r2,zero
 8400bb4:	1000091e 	bne	r2,zero,8400bdc <post+0x48>
	 //printf("MAILBOX 0 POSTING \n");
	 altera_avalon_mailbox_post(mailbox_1, mess);
 8400bb8:	d1270b17 	ldw	r4,-25556(gp)
 8400bbc:	e17fff17 	ldw	r5,-4(fp)
 8400bc0:	840e98c0 	call	840e98c <altera_avalon_mailbox_post>
	 altera_avalon_mailbox_post(mailbox_2, mess);
 8400bc4:	d1270a17 	ldw	r4,-25560(gp)
 8400bc8:	e17fff17 	ldw	r5,-4(fp)
 8400bcc:	840e98c0 	call	840e98c <altera_avalon_mailbox_post>
	 altera_avalon_mailbox_post(mailbox_3, mess);
 8400bd0:	d1270e17 	ldw	r4,-25544(gp)
 8400bd4:	e17fff17 	ldw	r5,-4(fp)
 8400bd8:	840e98c0 	call	840e98c <altera_avalon_mailbox_post>
	 }
	 if(id == 1){
 8400bdc:	e0bffe17 	ldw	r2,-8(fp)
 8400be0:	10800058 	cmpnei	r2,r2,1
 8400be4:	1000091e 	bne	r2,zero,8400c0c <post+0x78>
	 //printf("MAILBOX 1 POSTING \n");
	 altera_avalon_mailbox_post(mailbox_0, mess);
 8400be8:	d1270917 	ldw	r4,-25564(gp)
 8400bec:	e17fff17 	ldw	r5,-4(fp)
 8400bf0:	840e98c0 	call	840e98c <altera_avalon_mailbox_post>
	 altera_avalon_mailbox_post(mailbox_2, mess);
 8400bf4:	d1270a17 	ldw	r4,-25560(gp)
 8400bf8:	e17fff17 	ldw	r5,-4(fp)
 8400bfc:	840e98c0 	call	840e98c <altera_avalon_mailbox_post>
	 altera_avalon_mailbox_post(mailbox_3, mess);
 8400c00:	d1270e17 	ldw	r4,-25544(gp)
 8400c04:	e17fff17 	ldw	r5,-4(fp)
 8400c08:	840e98c0 	call	840e98c <altera_avalon_mailbox_post>
	 }

	 if(id == 2){
 8400c0c:	e0bffe17 	ldw	r2,-8(fp)
 8400c10:	10800098 	cmpnei	r2,r2,2
 8400c14:	1000091e 	bne	r2,zero,8400c3c <post+0xa8>
	 //printf("MAILBOX 2 POSTING \n");
	 altera_avalon_mailbox_post(mailbox_0, mess);
 8400c18:	d1270917 	ldw	r4,-25564(gp)
 8400c1c:	e17fff17 	ldw	r5,-4(fp)
 8400c20:	840e98c0 	call	840e98c <altera_avalon_mailbox_post>
	 altera_avalon_mailbox_post(mailbox_1, mess);
 8400c24:	d1270b17 	ldw	r4,-25556(gp)
 8400c28:	e17fff17 	ldw	r5,-4(fp)
 8400c2c:	840e98c0 	call	840e98c <altera_avalon_mailbox_post>
	 altera_avalon_mailbox_post(mailbox_3, mess);
 8400c30:	d1270e17 	ldw	r4,-25544(gp)
 8400c34:	e17fff17 	ldw	r5,-4(fp)
 8400c38:	840e98c0 	call	840e98c <altera_avalon_mailbox_post>
	 }

	 if(id == 3){
 8400c3c:	e0bffe17 	ldw	r2,-8(fp)
 8400c40:	108000d8 	cmpnei	r2,r2,3
 8400c44:	1000091e 	bne	r2,zero,8400c6c <post+0xd8>
	 //printf("MAILBOX 3 POSTING \n");
	 altera_avalon_mailbox_post(mailbox_0, mess);
 8400c48:	d1270917 	ldw	r4,-25564(gp)
 8400c4c:	e17fff17 	ldw	r5,-4(fp)
 8400c50:	840e98c0 	call	840e98c <altera_avalon_mailbox_post>
	 altera_avalon_mailbox_post(mailbox_1, mess);
 8400c54:	d1270b17 	ldw	r4,-25556(gp)
 8400c58:	e17fff17 	ldw	r5,-4(fp)
 8400c5c:	840e98c0 	call	840e98c <altera_avalon_mailbox_post>
	 altera_avalon_mailbox_post(mailbox_2, mess);
 8400c60:	d1270a17 	ldw	r4,-25560(gp)
 8400c64:	e17fff17 	ldw	r5,-4(fp)
 8400c68:	840e98c0 	call	840e98c <altera_avalon_mailbox_post>
	 }

}
 8400c6c:	e037883a 	mov	sp,fp
 8400c70:	dfc00117 	ldw	ra,4(sp)
 8400c74:	df000017 	ldw	fp,0(sp)
 8400c78:	dec00204 	addi	sp,sp,8
 8400c7c:	f800283a 	ret

08400c80 <pow>:
 8400c80:	deffee04 	addi	sp,sp,-72
 8400c84:	ddc01015 	stw	r23,64(sp)
 8400c88:	05c21074 	movhi	r23,2113
 8400c8c:	bdce5104 	addi	r23,r23,14660
 8400c90:	dd800f15 	stw	r22,60(sp)
 8400c94:	dd400e15 	stw	r21,56(sp)
 8400c98:	dd000d15 	stw	r20,52(sp)
 8400c9c:	dcc00c15 	stw	r19,48(sp)
 8400ca0:	dc800b15 	stw	r18,44(sp)
 8400ca4:	dc400a15 	stw	r17,40(sp)
 8400ca8:	dc000915 	stw	r16,36(sp)
 8400cac:	2029883a 	mov	r20,r4
 8400cb0:	dfc01115 	stw	ra,68(sp)
 8400cb4:	3025883a 	mov	r18,r6
 8400cb8:	282b883a 	mov	r21,r5
 8400cbc:	3827883a 	mov	r19,r7
 8400cc0:	84011080 	call	8401108 <__ieee754_pow>
 8400cc4:	b9000017 	ldw	r4,0(r23)
 8400cc8:	05bfffc4 	movi	r22,-1
 8400ccc:	1021883a 	mov	r16,r2
 8400cd0:	1823883a 	mov	r17,r3
 8400cd4:	25800426 	beq	r4,r22,8400ce8 <pow+0x68>
 8400cd8:	9009883a 	mov	r4,r18
 8400cdc:	980b883a 	mov	r5,r19
 8400ce0:	84027040 	call	8402704 <__isnand>
 8400ce4:	10000d26 	beq	r2,zero,8400d1c <pow+0x9c>
 8400ce8:	8005883a 	mov	r2,r16
 8400cec:	8807883a 	mov	r3,r17
 8400cf0:	dfc01117 	ldw	ra,68(sp)
 8400cf4:	ddc01017 	ldw	r23,64(sp)
 8400cf8:	dd800f17 	ldw	r22,60(sp)
 8400cfc:	dd400e17 	ldw	r21,56(sp)
 8400d00:	dd000d17 	ldw	r20,52(sp)
 8400d04:	dcc00c17 	ldw	r19,48(sp)
 8400d08:	dc800b17 	ldw	r18,44(sp)
 8400d0c:	dc400a17 	ldw	r17,40(sp)
 8400d10:	dc000917 	ldw	r16,36(sp)
 8400d14:	dec01204 	addi	sp,sp,72
 8400d18:	f800283a 	ret
 8400d1c:	a009883a 	mov	r4,r20
 8400d20:	a80b883a 	mov	r5,r21
 8400d24:	84027040 	call	8402704 <__isnand>
 8400d28:	1000151e 	bne	r2,zero,8400d80 <pow+0x100>
 8400d2c:	000d883a 	mov	r6,zero
 8400d30:	000f883a 	mov	r7,zero
 8400d34:	a009883a 	mov	r4,r20
 8400d38:	a80b883a 	mov	r5,r21
 8400d3c:	8403e4c0 	call	8403e4c <__eqdf2>
 8400d40:	1000541e 	bne	r2,zero,8400e94 <pow+0x214>
 8400d44:	000d883a 	mov	r6,zero
 8400d48:	000f883a 	mov	r7,zero
 8400d4c:	9009883a 	mov	r4,r18
 8400d50:	980b883a 	mov	r5,r19
 8400d54:	8403e4c0 	call	8403e4c <__eqdf2>
 8400d58:	10002c1e 	bne	r2,zero,8400e0c <pow+0x18c>
 8400d5c:	b8800017 	ldw	r2,0(r23)
 8400d60:	d8000615 	stw	zero,24(sp)
 8400d64:	d8000715 	stw	zero,28(sp)
 8400d68:	10001226 	beq	r2,zero,8400db4 <pow+0x134>
 8400d6c:	008ffc34 	movhi	r2,16368
 8400d70:	d8800715 	stw	r2,28(sp)
 8400d74:	dc000617 	ldw	r16,24(sp)
 8400d78:	dc400717 	ldw	r17,28(sp)
 8400d7c:	003fda06 	br	8400ce8 <pow+0x68>
 8400d80:	000d883a 	mov	r6,zero
 8400d84:	000f883a 	mov	r7,zero
 8400d88:	9009883a 	mov	r4,r18
 8400d8c:	980b883a 	mov	r5,r19
 8400d90:	8403e4c0 	call	8403e4c <__eqdf2>
 8400d94:	103fd41e 	bne	r2,zero,8400ce8 <pow+0x68>
 8400d98:	b8c00017 	ldw	r3,0(r23)
 8400d9c:	010ffc34 	movhi	r4,16368
 8400da0:	d8000615 	stw	zero,24(sp)
 8400da4:	d9000715 	stw	r4,28(sp)
 8400da8:	1d801526 	beq	r3,r22,8400e00 <pow+0x180>
 8400dac:	00800084 	movi	r2,2
 8400db0:	18801326 	beq	r3,r2,8400e00 <pow+0x180>
 8400db4:	00821074 	movhi	r2,2113
 8400db8:	10864804 	addi	r2,r2,6432
 8400dbc:	00c00044 	movi	r3,1
 8400dc0:	d809883a 	mov	r4,sp
 8400dc4:	dcc00515 	stw	r19,20(sp)
 8400dc8:	dd400315 	stw	r21,12(sp)
 8400dcc:	d8800115 	stw	r2,4(sp)
 8400dd0:	d8c00015 	stw	r3,0(sp)
 8400dd4:	dc800415 	stw	r18,16(sp)
 8400dd8:	dd000215 	stw	r20,8(sp)
 8400ddc:	d8000815 	stw	zero,32(sp)
 8400de0:	84027340 	call	8402734 <matherr>
 8400de4:	10002726 	beq	r2,zero,8400e84 <pow+0x204>
 8400de8:	d8800817 	ldw	r2,32(sp)
 8400dec:	103fe126 	beq	r2,zero,8400d74 <pow+0xf4>
 8400df0:	8404d0c0 	call	8404d0c <__errno>
 8400df4:	d8c00817 	ldw	r3,32(sp)
 8400df8:	10c00015 	stw	r3,0(r2)
 8400dfc:	003fdd06 	br	8400d74 <pow+0xf4>
 8400e00:	d9000715 	stw	r4,28(sp)
 8400e04:	d8000615 	stw	zero,24(sp)
 8400e08:	003fda06 	br	8400d74 <pow+0xf4>
 8400e0c:	9009883a 	mov	r4,r18
 8400e10:	980b883a 	mov	r5,r19
 8400e14:	84026e80 	call	84026e8 <finite>
 8400e18:	103fb326 	beq	r2,zero,8400ce8 <pow+0x68>
 8400e1c:	000d883a 	mov	r6,zero
 8400e20:	000f883a 	mov	r7,zero
 8400e24:	9009883a 	mov	r4,r18
 8400e28:	980b883a 	mov	r5,r19
 8400e2c:	8403fe40 	call	8403fe4 <__ltdf2>
 8400e30:	103fad0e 	bge	r2,zero,8400ce8 <pow+0x68>
 8400e34:	b9000017 	ldw	r4,0(r23)
 8400e38:	00800044 	movi	r2,1
 8400e3c:	00c21074 	movhi	r3,2113
 8400e40:	18c64804 	addi	r3,r3,6432
 8400e44:	d8800015 	stw	r2,0(sp)
 8400e48:	d8c00115 	stw	r3,4(sp)
 8400e4c:	dd400315 	stw	r21,12(sp)
 8400e50:	dcc00515 	stw	r19,20(sp)
 8400e54:	d8000815 	stw	zero,32(sp)
 8400e58:	dd000215 	stw	r20,8(sp)
 8400e5c:	dc800415 	stw	r18,16(sp)
 8400e60:	20005626 	beq	r4,zero,8400fbc <pow+0x33c>
 8400e64:	00bffc34 	movhi	r2,65520
 8400e68:	d8800715 	stw	r2,28(sp)
 8400e6c:	00800084 	movi	r2,2
 8400e70:	d8000615 	stw	zero,24(sp)
 8400e74:	20800326 	beq	r4,r2,8400e84 <pow+0x204>
 8400e78:	d809883a 	mov	r4,sp
 8400e7c:	84027340 	call	8402734 <matherr>
 8400e80:	103fd91e 	bne	r2,zero,8400de8 <pow+0x168>
 8400e84:	8404d0c0 	call	8404d0c <__errno>
 8400e88:	00c00844 	movi	r3,33
 8400e8c:	10c00015 	stw	r3,0(r2)
 8400e90:	003fd506 	br	8400de8 <pow+0x168>
 8400e94:	8009883a 	mov	r4,r16
 8400e98:	880b883a 	mov	r5,r17
 8400e9c:	84026e80 	call	84026e8 <finite>
 8400ea0:	10002426 	beq	r2,zero,8400f34 <pow+0x2b4>
 8400ea4:	000d883a 	mov	r6,zero
 8400ea8:	000f883a 	mov	r7,zero
 8400eac:	8009883a 	mov	r4,r16
 8400eb0:	880b883a 	mov	r5,r17
 8400eb4:	8403e4c0 	call	8403e4c <__eqdf2>
 8400eb8:	103f8b1e 	bne	r2,zero,8400ce8 <pow+0x68>
 8400ebc:	a009883a 	mov	r4,r20
 8400ec0:	a80b883a 	mov	r5,r21
 8400ec4:	84026e80 	call	84026e8 <finite>
 8400ec8:	103f8726 	beq	r2,zero,8400ce8 <pow+0x68>
 8400ecc:	9009883a 	mov	r4,r18
 8400ed0:	980b883a 	mov	r5,r19
 8400ed4:	84026e80 	call	84026e8 <finite>
 8400ed8:	103f8326 	beq	r2,zero,8400ce8 <pow+0x68>
 8400edc:	b9000017 	ldw	r4,0(r23)
 8400ee0:	00800104 	movi	r2,4
 8400ee4:	d8800015 	stw	r2,0(sp)
 8400ee8:	00c21074 	movhi	r3,2113
 8400eec:	18c64804 	addi	r3,r3,6432
 8400ef0:	00800084 	movi	r2,2
 8400ef4:	d8c00115 	stw	r3,4(sp)
 8400ef8:	dd400315 	stw	r21,12(sp)
 8400efc:	dcc00515 	stw	r19,20(sp)
 8400f00:	d8000815 	stw	zero,32(sp)
 8400f04:	dd000215 	stw	r20,8(sp)
 8400f08:	dc800415 	stw	r18,16(sp)
 8400f0c:	d8000615 	stw	zero,24(sp)
 8400f10:	d8000715 	stw	zero,28(sp)
 8400f14:	20800326 	beq	r4,r2,8400f24 <pow+0x2a4>
 8400f18:	d809883a 	mov	r4,sp
 8400f1c:	84027340 	call	8402734 <matherr>
 8400f20:	103fb11e 	bne	r2,zero,8400de8 <pow+0x168>
 8400f24:	8404d0c0 	call	8404d0c <__errno>
 8400f28:	00c00884 	movi	r3,34
 8400f2c:	10c00015 	stw	r3,0(r2)
 8400f30:	003fad06 	br	8400de8 <pow+0x168>
 8400f34:	a009883a 	mov	r4,r20
 8400f38:	a80b883a 	mov	r5,r21
 8400f3c:	84026e80 	call	84026e8 <finite>
 8400f40:	103fd826 	beq	r2,zero,8400ea4 <pow+0x224>
 8400f44:	9009883a 	mov	r4,r18
 8400f48:	980b883a 	mov	r5,r19
 8400f4c:	84026e80 	call	84026e8 <finite>
 8400f50:	103fd426 	beq	r2,zero,8400ea4 <pow+0x224>
 8400f54:	880b883a 	mov	r5,r17
 8400f58:	8009883a 	mov	r4,r16
 8400f5c:	84027040 	call	8402704 <__isnand>
 8400f60:	10001926 	beq	r2,zero,8400fc8 <pow+0x348>
 8400f64:	bc000017 	ldw	r16,0(r23)
 8400f68:	00800044 	movi	r2,1
 8400f6c:	00c21074 	movhi	r3,2113
 8400f70:	18c64804 	addi	r3,r3,6432
 8400f74:	d8800015 	stw	r2,0(sp)
 8400f78:	d8c00115 	stw	r3,4(sp)
 8400f7c:	dd400315 	stw	r21,12(sp)
 8400f80:	dcc00515 	stw	r19,20(sp)
 8400f84:	d8000815 	stw	zero,32(sp)
 8400f88:	dd000215 	stw	r20,8(sp)
 8400f8c:	dc800415 	stw	r18,16(sp)
 8400f90:	80000a26 	beq	r16,zero,8400fbc <pow+0x33c>
 8400f94:	0009883a 	mov	r4,zero
 8400f98:	000d883a 	mov	r6,zero
 8400f9c:	000b883a 	mov	r5,zero
 8400fa0:	000f883a 	mov	r7,zero
 8400fa4:	8403bf40 	call	8403bf4 <__divdf3>
 8400fa8:	d8800615 	stw	r2,24(sp)
 8400fac:	00800084 	movi	r2,2
 8400fb0:	d8c00715 	stw	r3,28(sp)
 8400fb4:	80bfb01e 	bne	r16,r2,8400e78 <pow+0x1f8>
 8400fb8:	003fb206 	br	8400e84 <pow+0x204>
 8400fbc:	d8000615 	stw	zero,24(sp)
 8400fc0:	d8000715 	stw	zero,28(sp)
 8400fc4:	003fac06 	br	8400e78 <pow+0x1f8>
 8400fc8:	b8800017 	ldw	r2,0(r23)
 8400fcc:	00c000c4 	movi	r3,3
 8400fd0:	01021074 	movhi	r4,2113
 8400fd4:	21064804 	addi	r4,r4,6432
 8400fd8:	d8c00015 	stw	r3,0(sp)
 8400fdc:	d9000115 	stw	r4,4(sp)
 8400fe0:	d8000815 	stw	zero,32(sp)
 8400fe4:	dd000215 	stw	r20,8(sp)
 8400fe8:	dd400315 	stw	r21,12(sp)
 8400fec:	dc800415 	stw	r18,16(sp)
 8400ff0:	dcc00515 	stw	r19,20(sp)
 8400ff4:	1000251e 	bne	r2,zero,840108c <pow+0x40c>
 8400ff8:	05b80034 	movhi	r22,57344
 8400ffc:	0091fc34 	movhi	r2,18416
 8401000:	10bfffc4 	addi	r2,r2,-1
 8401004:	000d883a 	mov	r6,zero
 8401008:	000f883a 	mov	r7,zero
 840100c:	a80b883a 	mov	r5,r21
 8401010:	a009883a 	mov	r4,r20
 8401014:	d8800715 	stw	r2,28(sp)
 8401018:	dd800615 	stw	r22,24(sp)
 840101c:	8403fe40 	call	8403fe4 <__ltdf2>
 8401020:	103fbd0e 	bge	r2,zero,8400f18 <pow+0x298>
 8401024:	0005883a 	mov	r2,zero
 8401028:	00cff834 	movhi	r3,16352
 840102c:	180f883a 	mov	r7,r3
 8401030:	100d883a 	mov	r6,r2
 8401034:	980b883a 	mov	r5,r19
 8401038:	9009883a 	mov	r4,r18
 840103c:	84038300 	call	8403830 <__muldf3>
 8401040:	1009883a 	mov	r4,r2
 8401044:	180b883a 	mov	r5,r3
 8401048:	1021883a 	mov	r16,r2
 840104c:	1823883a 	mov	r17,r3
 8401050:	840274c0 	call	840274c <rint>
 8401054:	180f883a 	mov	r7,r3
 8401058:	8009883a 	mov	r4,r16
 840105c:	880b883a 	mov	r5,r17
 8401060:	100d883a 	mov	r6,r2
 8401064:	8403ed40 	call	8403ed4 <__nedf2>
 8401068:	10000426 	beq	r2,zero,840107c <pow+0x3fc>
 840106c:	00b1fc34 	movhi	r2,51184
 8401070:	10bfffc4 	addi	r2,r2,-1
 8401074:	dd800615 	stw	r22,24(sp)
 8401078:	d8800715 	stw	r2,28(sp)
 840107c:	b8c00017 	ldw	r3,0(r23)
 8401080:	00800084 	movi	r2,2
 8401084:	18bfa41e 	bne	r3,r2,8400f18 <pow+0x298>
 8401088:	003fa606 	br	8400f24 <pow+0x2a4>
 840108c:	009ffc34 	movhi	r2,32752
 8401090:	000d883a 	mov	r6,zero
 8401094:	000f883a 	mov	r7,zero
 8401098:	a80b883a 	mov	r5,r21
 840109c:	a009883a 	mov	r4,r20
 84010a0:	d8800715 	stw	r2,28(sp)
 84010a4:	d8000615 	stw	zero,24(sp)
 84010a8:	8403fe40 	call	8403fe4 <__ltdf2>
 84010ac:	103ff30e 	bge	r2,zero,840107c <pow+0x3fc>
 84010b0:	0005883a 	mov	r2,zero
 84010b4:	00cff834 	movhi	r3,16352
 84010b8:	180f883a 	mov	r7,r3
 84010bc:	100d883a 	mov	r6,r2
 84010c0:	980b883a 	mov	r5,r19
 84010c4:	9009883a 	mov	r4,r18
 84010c8:	84038300 	call	8403830 <__muldf3>
 84010cc:	1009883a 	mov	r4,r2
 84010d0:	180b883a 	mov	r5,r3
 84010d4:	1021883a 	mov	r16,r2
 84010d8:	1823883a 	mov	r17,r3
 84010dc:	840274c0 	call	840274c <rint>
 84010e0:	180f883a 	mov	r7,r3
 84010e4:	8009883a 	mov	r4,r16
 84010e8:	880b883a 	mov	r5,r17
 84010ec:	100d883a 	mov	r6,r2
 84010f0:	8403ed40 	call	8403ed4 <__nedf2>
 84010f4:	103fe126 	beq	r2,zero,840107c <pow+0x3fc>
 84010f8:	00bffc34 	movhi	r2,65520
 84010fc:	d8800715 	stw	r2,28(sp)
 8401100:	d8000615 	stw	zero,24(sp)
 8401104:	003fdd06 	br	840107c <pow+0x3fc>

08401108 <__ieee754_pow>:
 8401108:	deffbb04 	addi	sp,sp,-276
 840110c:	3005883a 	mov	r2,r6
 8401110:	dd404015 	stw	r21,256(sp)
 8401114:	dd003f15 	stw	r20,252(sp)
 8401118:	d9802815 	stw	r6,160(sp)
 840111c:	2029883a 	mov	r20,r4
 8401120:	282b883a 	mov	r21,r5
 8401124:	3009883a 	mov	r4,r6
 8401128:	380b883a 	mov	r5,r7
 840112c:	01a00034 	movhi	r6,32768
 8401130:	31bfffc4 	addi	r6,r6,-1
 8401134:	dc003b15 	stw	r16,236(sp)
 8401138:	29a0703a 	and	r16,r5,r6
 840113c:	1404b03a 	or	r2,r2,r16
 8401140:	dd804115 	stw	r22,260(sp)
 8401144:	dc403c15 	stw	r17,240(sp)
 8401148:	d9c02915 	stw	r7,164(sp)
 840114c:	382d883a 	mov	r22,r7
 8401150:	dfc04415 	stw	ra,272(sp)
 8401154:	200f883a 	mov	r7,r4
 8401158:	df004315 	stw	fp,268(sp)
 840115c:	ddc04215 	stw	r23,264(sp)
 8401160:	dcc03e15 	stw	r19,248(sp)
 8401164:	dc803d15 	stw	r18,244(sp)
 8401168:	a023883a 	mov	r17,r20
 840116c:	2809883a 	mov	r4,r5
 8401170:	10000826 	beq	r2,zero,8401194 <__ieee754_pow+0x8c>
 8401174:	a9a4703a 	and	r18,r21,r6
 8401178:	009ffc34 	movhi	r2,32752
 840117c:	a827883a 	mov	r19,r21
 8401180:	1480180e 	bge	r2,r18,84011e4 <__ieee754_pow+0xdc>
 8401184:	00b00434 	movhi	r2,49168
 8401188:	9085883a 	add	r2,r18,r2
 840118c:	8884b03a 	or	r2,r17,r2
 8401190:	1000321e 	bne	r2,zero,840125c <__ieee754_pow+0x154>
 8401194:	0009883a 	mov	r4,zero
 8401198:	014ffc34 	movhi	r5,16368
 840119c:	d9002815 	stw	r4,160(sp)
 84011a0:	d9402915 	stw	r5,164(sp)
 84011a4:	d9002817 	ldw	r4,160(sp)
 84011a8:	d9402917 	ldw	r5,164(sp)
 84011ac:	2005883a 	mov	r2,r4
 84011b0:	2807883a 	mov	r3,r5
 84011b4:	dfc04417 	ldw	ra,272(sp)
 84011b8:	df004317 	ldw	fp,268(sp)
 84011bc:	ddc04217 	ldw	r23,264(sp)
 84011c0:	dd804117 	ldw	r22,260(sp)
 84011c4:	dd404017 	ldw	r21,256(sp)
 84011c8:	dd003f17 	ldw	r20,252(sp)
 84011cc:	dcc03e17 	ldw	r19,248(sp)
 84011d0:	dc803d17 	ldw	r18,244(sp)
 84011d4:	dc403c17 	ldw	r17,240(sp)
 84011d8:	dc003b17 	ldw	r16,236(sp)
 84011dc:	dec04504 	addi	sp,sp,276
 84011e0:	f800283a 	ret
 84011e4:	90802b26 	beq	r18,r2,8401294 <__ieee754_pow+0x18c>
 84011e8:	143fe616 	blt	r2,r16,8401184 <__ieee754_pow+0x7c>
 84011ec:	80806126 	beq	r16,r2,8401374 <__ieee754_pow+0x26c>
 84011f0:	982e403a 	cmpge	r23,r19,zero
 84011f4:	b8004e26 	beq	r23,zero,8401330 <__ieee754_pow+0x228>
 84011f8:	0039883a 	mov	fp,zero
 84011fc:	3800281e 	bne	r7,zero,84012a0 <__ieee754_pow+0x198>
 8401200:	009ffc34 	movhi	r2,32752
 8401204:	80804f26 	beq	r16,r2,8401344 <__ieee754_pow+0x23c>
 8401208:	008ffc34 	movhi	r2,16368
 840120c:	80808226 	beq	r16,r2,8401418 <__ieee754_pow+0x310>
 8401210:	00900034 	movhi	r2,16384
 8401214:	20828426 	beq	r4,r2,8401c28 <__ieee754_pow+0xb20>
 8401218:	008ff834 	movhi	r2,16352
 840121c:	2080201e 	bne	r4,r2,84012a0 <__ieee754_pow+0x198>
 8401220:	98001f16 	blt	r19,zero,84012a0 <__ieee754_pow+0x198>
 8401224:	a80b883a 	mov	r5,r21
 8401228:	a009883a 	mov	r4,r20
 840122c:	dfc04417 	ldw	ra,272(sp)
 8401230:	df004317 	ldw	fp,268(sp)
 8401234:	ddc04217 	ldw	r23,264(sp)
 8401238:	dd804117 	ldw	r22,260(sp)
 840123c:	dd404017 	ldw	r21,256(sp)
 8401240:	dd003f17 	ldw	r20,252(sp)
 8401244:	dcc03e17 	ldw	r19,248(sp)
 8401248:	dc803d17 	ldw	r18,244(sp)
 840124c:	dc403c17 	ldw	r17,240(sp)
 8401250:	dc003b17 	ldw	r16,236(sp)
 8401254:	dec04504 	addi	sp,sp,276
 8401258:	84024081 	jmpi	8402408 <__ieee754_sqrt>
 840125c:	01021074 	movhi	r4,2113
 8401260:	2106b304 	addi	r4,r4,6860
 8401264:	dfc04417 	ldw	ra,272(sp)
 8401268:	df004317 	ldw	fp,268(sp)
 840126c:	ddc04217 	ldw	r23,264(sp)
 8401270:	dd804117 	ldw	r22,260(sp)
 8401274:	dd404017 	ldw	r21,256(sp)
 8401278:	dd003f17 	ldw	r20,252(sp)
 840127c:	dcc03e17 	ldw	r19,248(sp)
 8401280:	dc803d17 	ldw	r18,244(sp)
 8401284:	dc403c17 	ldw	r17,240(sp)
 8401288:	dc003b17 	ldw	r16,236(sp)
 840128c:	dec04504 	addi	sp,sp,276
 8401290:	840273c1 	jmpi	840273c <nan>
 8401294:	a03fbb1e 	bne	r20,zero,8401184 <__ieee754_pow+0x7c>
 8401298:	003fd306 	br	84011e8 <__ieee754_pow+0xe0>
 840129c:	0039883a 	mov	fp,zero
 84012a0:	a009883a 	mov	r4,r20
 84012a4:	a80b883a 	mov	r5,r21
 84012a8:	84026d00 	call	84026d0 <fabs>
 84012ac:	1015883a 	mov	r10,r2
 84012b0:	1817883a 	mov	r11,r3
 84012b4:	88001226 	beq	r17,zero,8401300 <__ieee754_pow+0x1f8>
 84012b8:	9804d7fa 	srli	r2,r19,31
 84012bc:	10bfffc4 	addi	r2,r2,-1
 84012c0:	1706b03a 	or	r3,r2,fp
 84012c4:	d8802515 	stw	r2,148(sp)
 84012c8:	18002c1e 	bne	r3,zero,840137c <__ieee754_pow+0x274>
 84012cc:	a80f883a 	mov	r7,r21
 84012d0:	a009883a 	mov	r4,r20
 84012d4:	a80b883a 	mov	r5,r21
 84012d8:	a00d883a 	mov	r6,r20
 84012dc:	840373c0 	call	840373c <__subdf3>
 84012e0:	1009883a 	mov	r4,r2
 84012e4:	180b883a 	mov	r5,r3
 84012e8:	100d883a 	mov	r6,r2
 84012ec:	180f883a 	mov	r7,r3
 84012f0:	8403bf40 	call	8403bf4 <__divdf3>
 84012f4:	d8802815 	stw	r2,160(sp)
 84012f8:	d8c02915 	stw	r3,164(sp)
 84012fc:	003fa906 	br	84011a4 <__ieee754_pow+0x9c>
 8401300:	009ffc34 	movhi	r2,32752
 8401304:	90800326 	beq	r18,r2,8401314 <__ieee754_pow+0x20c>
 8401308:	90000226 	beq	r18,zero,8401314 <__ieee754_pow+0x20c>
 840130c:	008ffc34 	movhi	r2,16368
 8401310:	90bfe91e 	bne	r18,r2,84012b8 <__ieee754_pow+0x1b0>
 8401314:	b0026316 	blt	r22,zero,8401ca4 <__ieee754_pow+0xb9c>
 8401318:	5011883a 	mov	r8,r10
 840131c:	5813883a 	mov	r9,r11
 8401320:	b8023126 	beq	r23,zero,8401be8 <__ieee754_pow+0xae0>
 8401324:	da002815 	stw	r8,160(sp)
 8401328:	da402915 	stw	r9,164(sp)
 840132c:	003f9d06 	br	84011a4 <__ieee754_pow+0x9c>
 8401330:	0090d034 	movhi	r2,17216
 8401334:	10bfffc4 	addi	r2,r2,-1
 8401338:	1400270e 	bge	r2,r16,84013d8 <__ieee754_pow+0x2d0>
 840133c:	07000084 	movi	fp,2
 8401340:	003fae06 	br	84011fc <__ieee754_pow+0xf4>
 8401344:	00b00434 	movhi	r2,49168
 8401348:	9085883a 	add	r2,r18,r2
 840134c:	8884b03a 	or	r2,r17,r2
 8401350:	103f9026 	beq	r2,zero,8401194 <__ieee754_pow+0x8c>
 8401354:	008ffc34 	movhi	r2,16368
 8401358:	10bfffc4 	addi	r2,r2,-1
 840135c:	1482d00e 	bge	r2,r18,8401ea0 <__ieee754_pow+0xd98>
 8401360:	b03f900e 	bge	r22,zero,84011a4 <__ieee754_pow+0x9c>
 8401364:	0005883a 	mov	r2,zero
 8401368:	d8802815 	stw	r2,160(sp)
 840136c:	d8802915 	stw	r2,164(sp)
 8401370:	003f8c06 	br	84011a4 <__ieee754_pow+0x9c>
 8401374:	383f9e26 	beq	r7,zero,84011f0 <__ieee754_pow+0xe8>
 8401378:	003f8206 	br	8401184 <__ieee754_pow+0x7c>
 840137c:	00907834 	movhi	r2,16864
 8401380:	1400290e 	bge	r2,r16,8401428 <__ieee754_pow+0x320>
 8401384:	0090fc34 	movhi	r2,17392
 8401388:	1402500e 	bge	r2,r16,8401ccc <__ieee754_pow+0xbc4>
 840138c:	008ffc34 	movhi	r2,16368
 8401390:	10bfffc4 	addi	r2,r2,-1
 8401394:	14800b0e 	bge	r2,r18,84013c4 <__ieee754_pow+0x2bc>
 8401398:	05800b0e 	bge	zero,r22,84013c8 <__ieee754_pow+0x2c0>
 840139c:	00a20034 	movhi	r2,34816
 84013a0:	109d6704 	addi	r2,r2,30108
 84013a4:	00df8e34 	movhi	r3,32312
 84013a8:	18f90f04 	addi	r3,r3,-7108
 84013ac:	100d883a 	mov	r6,r2
 84013b0:	180f883a 	mov	r7,r3
 84013b4:	1009883a 	mov	r4,r2
 84013b8:	180b883a 	mov	r5,r3
 84013bc:	84038300 	call	8403830 <__muldf3>
 84013c0:	003fcc06 	br	84012f4 <__ieee754_pow+0x1ec>
 84013c4:	b03ff516 	blt	r22,zero,840139c <__ieee754_pow+0x294>
 84013c8:	0007883a 	mov	r3,zero
 84013cc:	d8c02815 	stw	r3,160(sp)
 84013d0:	d8c02915 	stw	r3,164(sp)
 84013d4:	003f7306 	br	84011a4 <__ieee754_pow+0x9c>
 84013d8:	008ffc34 	movhi	r2,16368
 84013dc:	10bfffc4 	addi	r2,r2,-1
 84013e0:	143f850e 	bge	r2,r16,84011f8 <__ieee754_pow+0xf0>
 84013e4:	8005d53a 	srai	r2,r16,20
 84013e8:	01400504 	movi	r5,20
 84013ec:	10ff0044 	addi	r3,r2,-1023
 84013f0:	28c3e10e 	bge	r5,r3,8402378 <__ieee754_pow+0x1270>
 84013f4:	00800d04 	movi	r2,52
 84013f8:	10c5c83a 	sub	r2,r2,r3
 84013fc:	3886d83a 	srl	r3,r7,r2
 8401400:	1884983a 	sll	r2,r3,r2
 8401404:	38bf7c1e 	bne	r7,r2,84011f8 <__ieee754_pow+0xf0>
 8401408:	18c0004c 	andi	r3,r3,1
 840140c:	00800084 	movi	r2,2
 8401410:	10f9c83a 	sub	fp,r2,r3
 8401414:	003f7906 	br	84011fc <__ieee754_pow+0xf4>
 8401418:	b0038516 	blt	r22,zero,8402230 <__ieee754_pow+0x1128>
 840141c:	dd002815 	stw	r20,160(sp)
 8401420:	dd402915 	stw	r21,164(sp)
 8401424:	003f5f06 	br	84011a4 <__ieee754_pow+0x9c>
 8401428:	00800434 	movhi	r2,16
 840142c:	10bfffc4 	addi	r2,r2,-1
 8401430:	1482900e 	bge	r2,r18,8401e74 <__ieee754_pow+0xd6c>
 8401434:	000b883a 	mov	r5,zero
 8401438:	9005d53a 	srai	r2,r18,20
 840143c:	00c00434 	movhi	r3,16
 8401440:	18ffffc4 	addi	r3,r3,-1
 8401444:	90c8703a 	and	r4,r18,r3
 8401448:	2887883a 	add	r3,r5,r2
 840144c:	18bf0044 	addi	r2,r3,-1023
 8401450:	d8800015 	stw	r2,0(sp)
 8401454:	00800134 	movhi	r2,4
 8401458:	10a62384 	addi	r2,r2,-26482
 840145c:	250ffc34 	orhi	r20,r4,16368
 8401460:	1101ee0e 	bge	r2,r4,8401c1c <__ieee754_pow+0xb14>
 8401464:	00800334 	movhi	r2,12
 8401468:	10ad9e44 	addi	r2,r2,-18823
 840146c:	1101e716 	blt	r2,r4,8401c0c <__ieee754_pow+0xb04>
 8401470:	01000044 	movi	r4,1
 8401474:	04000334 	movhi	r16,12
 8401478:	200890fa 	slli	r4,r4,3
 840147c:	da800115 	stw	r10,4(sp)
 8401480:	dd000215 	stw	r20,8(sp)
 8401484:	d9002c15 	stw	r4,176(sp)
 8401488:	d9402c17 	ldw	r5,176(sp)
 840148c:	01021074 	movhi	r4,2113
 8401490:	21064904 	addi	r4,r4,6436
 8401494:	a02bd07a 	srai	r21,r20,1
 8401498:	2909883a 	add	r4,r5,r4
 840149c:	25800017 	ldw	r22,0(r4)
 84014a0:	25c00117 	ldw	r23,4(r4)
 84014a4:	a00b883a 	mov	r5,r20
 84014a8:	5009883a 	mov	r4,r10
 84014ac:	b00d883a 	mov	r6,r22
 84014b0:	b80f883a 	mov	r7,r23
 84014b4:	840373c0 	call	840373c <__subdf3>
 84014b8:	d9000117 	ldw	r4,4(sp)
 84014bc:	a00b883a 	mov	r5,r20
 84014c0:	b00d883a 	mov	r6,r22
 84014c4:	b80f883a 	mov	r7,r23
 84014c8:	1025883a 	mov	r18,r2
 84014cc:	1827883a 	mov	r19,r3
 84014d0:	84037bc0 	call	84037bc <__adddf3>
 84014d4:	0011883a 	mov	r8,zero
 84014d8:	024ffc34 	movhi	r9,16368
 84014dc:	480b883a 	mov	r5,r9
 84014e0:	4009883a 	mov	r4,r8
 84014e4:	180f883a 	mov	r7,r3
 84014e8:	100d883a 	mov	r6,r2
 84014ec:	8403bf40 	call	8403bf4 <__divdf3>
 84014f0:	d8c02e15 	stw	r3,184(sp)
 84014f4:	d8800f15 	stw	r2,60(sp)
 84014f8:	d8802d15 	stw	r2,180(sp)
 84014fc:	d8802e17 	ldw	r2,184(sp)
 8401500:	d9800f17 	ldw	r6,60(sp)
 8401504:	9009883a 	mov	r4,r18
 8401508:	980b883a 	mov	r5,r19
 840150c:	100f883a 	mov	r7,r2
 8401510:	dc800b15 	stw	r18,44(sp)
 8401514:	dcc00c15 	stw	r19,48(sp)
 8401518:	d8801015 	stw	r2,64(sp)
 840151c:	84038300 	call	8403830 <__muldf3>
 8401520:	d8c03015 	stw	r3,192(sp)
 8401524:	d9003017 	ldw	r4,192(sp)
 8401528:	d8802f15 	stw	r2,188(sp)
 840152c:	d8800315 	stw	r2,12(sp)
 8401530:	ad480034 	orhi	r21,r21,8192
 8401534:	0005883a 	mov	r2,zero
 8401538:	ac2b883a 	add	r21,r21,r16
 840153c:	000b883a 	mov	r5,zero
 8401540:	1021883a 	mov	r16,r2
 8401544:	2005883a 	mov	r2,r4
 8401548:	800d883a 	mov	r6,r16
 840154c:	a80f883a 	mov	r7,r21
 8401550:	d9000415 	stw	r4,16(sp)
 8401554:	d9002715 	stw	r4,156(sp)
 8401558:	d9402615 	stw	r5,152(sp)
 840155c:	d9401615 	stw	r5,88(sp)
 8401560:	d9001715 	stw	r4,92(sp)
 8401564:	100b883a 	mov	r5,r2
 8401568:	0009883a 	mov	r4,zero
 840156c:	84038300 	call	8403830 <__muldf3>
 8401570:	d9000b17 	ldw	r4,44(sp)
 8401574:	980b883a 	mov	r5,r19
 8401578:	180f883a 	mov	r7,r3
 840157c:	100d883a 	mov	r6,r2
 8401580:	840373c0 	call	840373c <__subdf3>
 8401584:	8009883a 	mov	r4,r16
 8401588:	a80b883a 	mov	r5,r21
 840158c:	b80f883a 	mov	r7,r23
 8401590:	b00d883a 	mov	r6,r22
 8401594:	1021883a 	mov	r16,r2
 8401598:	1823883a 	mov	r17,r3
 840159c:	840373c0 	call	840373c <__subdf3>
 84015a0:	d9000117 	ldw	r4,4(sp)
 84015a4:	a00b883a 	mov	r5,r20
 84015a8:	180f883a 	mov	r7,r3
 84015ac:	100d883a 	mov	r6,r2
 84015b0:	840373c0 	call	840373c <__subdf3>
 84015b4:	d9001617 	ldw	r4,88(sp)
 84015b8:	d9402717 	ldw	r5,156(sp)
 84015bc:	180f883a 	mov	r7,r3
 84015c0:	100d883a 	mov	r6,r2
 84015c4:	84038300 	call	8403830 <__muldf3>
 84015c8:	180f883a 	mov	r7,r3
 84015cc:	880b883a 	mov	r5,r17
 84015d0:	8009883a 	mov	r4,r16
 84015d4:	100d883a 	mov	r6,r2
 84015d8:	840373c0 	call	840373c <__subdf3>
 84015dc:	d9000f17 	ldw	r4,60(sp)
 84015e0:	d9402e17 	ldw	r5,184(sp)
 84015e4:	180f883a 	mov	r7,r3
 84015e8:	100d883a 	mov	r6,r2
 84015ec:	84038300 	call	8403830 <__muldf3>
 84015f0:	d9000317 	ldw	r4,12(sp)
 84015f4:	d9403017 	ldw	r5,192(sp)
 84015f8:	d8803115 	stw	r2,196(sp)
 84015fc:	200d883a 	mov	r6,r4
 8401600:	280f883a 	mov	r7,r5
 8401604:	d8c03215 	stw	r3,200(sp)
 8401608:	84038300 	call	8403830 <__muldf3>
 840160c:	1009883a 	mov	r4,r2
 8401610:	180b883a 	mov	r5,r3
 8401614:	100d883a 	mov	r6,r2
 8401618:	180f883a 	mov	r7,r3
 840161c:	1021883a 	mov	r16,r2
 8401620:	1823883a 	mov	r17,r3
 8401624:	84038300 	call	8403830 <__muldf3>
 8401628:	02129174 	movhi	r8,19013
 840162c:	4213bbc4 	addi	r8,r8,20207
 8401630:	024ff2b4 	movhi	r9,16330
 8401634:	4a5f8a04 	addi	r9,r9,32296
 8401638:	480f883a 	mov	r7,r9
 840163c:	8009883a 	mov	r4,r16
 8401640:	880b883a 	mov	r5,r17
 8401644:	400d883a 	mov	r6,r8
 8401648:	1029883a 	mov	r20,r2
 840164c:	182b883a 	mov	r21,r3
 8401650:	84038300 	call	8403830 <__muldf3>
 8401654:	0224f2b4 	movhi	r8,37834
 8401658:	4236d944 	addi	r8,r8,-9371
 840165c:	024ff3b4 	movhi	r9,16334
 8401660:	4a619284 	addi	r9,r9,-31158
 8401664:	480f883a 	mov	r7,r9
 8401668:	400d883a 	mov	r6,r8
 840166c:	180b883a 	mov	r5,r3
 8401670:	1009883a 	mov	r4,r2
 8401674:	84037bc0 	call	84037bc <__adddf3>
 8401678:	180f883a 	mov	r7,r3
 840167c:	8009883a 	mov	r4,r16
 8401680:	880b883a 	mov	r5,r17
 8401684:	100d883a 	mov	r6,r2
 8401688:	84038300 	call	8403830 <__muldf3>
 840168c:	022a4774 	movhi	r8,43293
 8401690:	42104044 	addi	r8,r8,16641
 8401694:	024ff474 	movhi	r9,16337
 8401698:	4a5d1804 	addi	r9,r9,29792
 840169c:	480f883a 	mov	r7,r9
 84016a0:	400d883a 	mov	r6,r8
 84016a4:	180b883a 	mov	r5,r3
 84016a8:	1009883a 	mov	r4,r2
 84016ac:	84037bc0 	call	84037bc <__adddf3>
 84016b0:	180f883a 	mov	r7,r3
 84016b4:	8009883a 	mov	r4,r16
 84016b8:	880b883a 	mov	r5,r17
 84016bc:	100d883a 	mov	r6,r2
 84016c0:	84038300 	call	8403830 <__muldf3>
 84016c4:	021463f4 	movhi	r8,20879
 84016c8:	42099344 	addi	r8,r8,9805
 84016cc:	024ff574 	movhi	r9,16341
 84016d0:	4a555544 	addi	r9,r9,21845
 84016d4:	480f883a 	mov	r7,r9
 84016d8:	400d883a 	mov	r6,r8
 84016dc:	180b883a 	mov	r5,r3
 84016e0:	1009883a 	mov	r4,r2
 84016e4:	84037bc0 	call	84037bc <__adddf3>
 84016e8:	180f883a 	mov	r7,r3
 84016ec:	8009883a 	mov	r4,r16
 84016f0:	880b883a 	mov	r5,r17
 84016f4:	100d883a 	mov	r6,r2
 84016f8:	84038300 	call	8403830 <__muldf3>
 84016fc:	0236dc34 	movhi	r8,56176
 8401700:	422affc4 	addi	r8,r8,-21505
 8401704:	024ff6f4 	movhi	r9,16347
 8401708:	4a5b6d84 	addi	r9,r9,28086
 840170c:	480f883a 	mov	r7,r9
 8401710:	400d883a 	mov	r6,r8
 8401714:	180b883a 	mov	r5,r3
 8401718:	1009883a 	mov	r4,r2
 840171c:	84037bc0 	call	84037bc <__adddf3>
 8401720:	180f883a 	mov	r7,r3
 8401724:	8009883a 	mov	r4,r16
 8401728:	880b883a 	mov	r5,r17
 840172c:	100d883a 	mov	r6,r2
 8401730:	84038300 	call	8403830 <__muldf3>
 8401734:	020cccf4 	movhi	r8,13107
 8401738:	420cc0c4 	addi	r8,r8,13059
 840173c:	024ff8f4 	movhi	r9,16355
 8401740:	4a4cccc4 	addi	r9,r9,13107
 8401744:	480f883a 	mov	r7,r9
 8401748:	400d883a 	mov	r6,r8
 840174c:	180b883a 	mov	r5,r3
 8401750:	1009883a 	mov	r4,r2
 8401754:	84037bc0 	call	84037bc <__adddf3>
 8401758:	180f883a 	mov	r7,r3
 840175c:	a80b883a 	mov	r5,r21
 8401760:	a009883a 	mov	r4,r20
 8401764:	100d883a 	mov	r6,r2
 8401768:	84038300 	call	8403830 <__muldf3>
 840176c:	d9000317 	ldw	r4,12(sp)
 8401770:	d9403017 	ldw	r5,192(sp)
 8401774:	d9801617 	ldw	r6,88(sp)
 8401778:	d9c02717 	ldw	r7,156(sp)
 840177c:	1021883a 	mov	r16,r2
 8401780:	1823883a 	mov	r17,r3
 8401784:	84037bc0 	call	84037bc <__adddf3>
 8401788:	d9003117 	ldw	r4,196(sp)
 840178c:	d9403217 	ldw	r5,200(sp)
 8401790:	180f883a 	mov	r7,r3
 8401794:	100d883a 	mov	r6,r2
 8401798:	d9001415 	stw	r4,80(sp)
 840179c:	d9401515 	stw	r5,84(sp)
 84017a0:	84038300 	call	8403830 <__muldf3>
 84017a4:	180f883a 	mov	r7,r3
 84017a8:	8009883a 	mov	r4,r16
 84017ac:	880b883a 	mov	r5,r17
 84017b0:	100d883a 	mov	r6,r2
 84017b4:	84037bc0 	call	84037bc <__adddf3>
 84017b8:	d9001617 	ldw	r4,88(sp)
 84017bc:	d9402717 	ldw	r5,156(sp)
 84017c0:	d8803315 	stw	r2,204(sp)
 84017c4:	200d883a 	mov	r6,r4
 84017c8:	280f883a 	mov	r7,r5
 84017cc:	d8c03415 	stw	r3,208(sp)
 84017d0:	84038300 	call	8403830 <__muldf3>
 84017d4:	182f883a 	mov	r23,r3
 84017d8:	05500234 	movhi	r21,16392
 84017dc:	0029883a 	mov	r20,zero
 84017e0:	b80b883a 	mov	r5,r23
 84017e4:	a00d883a 	mov	r6,r20
 84017e8:	a80f883a 	mov	r7,r21
 84017ec:	1009883a 	mov	r4,r2
 84017f0:	d8800715 	stw	r2,28(sp)
 84017f4:	d8c00815 	stw	r3,32(sp)
 84017f8:	84037bc0 	call	84037bc <__adddf3>
 84017fc:	d9003317 	ldw	r4,204(sp)
 8401800:	d9403417 	ldw	r5,208(sp)
 8401804:	180f883a 	mov	r7,r3
 8401808:	100d883a 	mov	r6,r2
 840180c:	d9000515 	stw	r4,20(sp)
 8401810:	d9400615 	stw	r5,24(sp)
 8401814:	84037bc0 	call	84037bc <__adddf3>
 8401818:	d9001617 	ldw	r4,88(sp)
 840181c:	d9402717 	ldw	r5,156(sp)
 8401820:	0025883a 	mov	r18,zero
 8401824:	900d883a 	mov	r6,r18
 8401828:	180f883a 	mov	r7,r3
 840182c:	1823883a 	mov	r17,r3
 8401830:	84038300 	call	8403830 <__muldf3>
 8401834:	d9001417 	ldw	r4,80(sp)
 8401838:	d9403217 	ldw	r5,200(sp)
 840183c:	880f883a 	mov	r7,r17
 8401840:	900d883a 	mov	r6,r18
 8401844:	d8803515 	stw	r2,212(sp)
 8401848:	d8c03615 	stw	r3,216(sp)
 840184c:	84038300 	call	8403830 <__muldf3>
 8401850:	a80f883a 	mov	r7,r21
 8401854:	880b883a 	mov	r5,r17
 8401858:	000d883a 	mov	r6,zero
 840185c:	9009883a 	mov	r4,r18
 8401860:	1021883a 	mov	r16,r2
 8401864:	1823883a 	mov	r17,r3
 8401868:	840373c0 	call	840373c <__subdf3>
 840186c:	d9800717 	ldw	r6,28(sp)
 8401870:	b80f883a 	mov	r7,r23
 8401874:	180b883a 	mov	r5,r3
 8401878:	1009883a 	mov	r4,r2
 840187c:	840373c0 	call	840373c <__subdf3>
 8401880:	d9000517 	ldw	r4,20(sp)
 8401884:	d9403417 	ldw	r5,208(sp)
 8401888:	180f883a 	mov	r7,r3
 840188c:	100d883a 	mov	r6,r2
 8401890:	840373c0 	call	840373c <__subdf3>
 8401894:	d9000317 	ldw	r4,12(sp)
 8401898:	d9403017 	ldw	r5,192(sp)
 840189c:	180f883a 	mov	r7,r3
 84018a0:	100d883a 	mov	r6,r2
 84018a4:	84038300 	call	8403830 <__muldf3>
 84018a8:	180f883a 	mov	r7,r3
 84018ac:	880b883a 	mov	r5,r17
 84018b0:	8009883a 	mov	r4,r16
 84018b4:	100d883a 	mov	r6,r2
 84018b8:	84037bc0 	call	84037bc <__adddf3>
 84018bc:	102d883a 	mov	r22,r2
 84018c0:	d9003617 	ldw	r4,216(sp)
 84018c4:	d8803517 	ldw	r2,212(sp)
 84018c8:	d9403617 	ldw	r5,216(sp)
 84018cc:	182f883a 	mov	r23,r3
 84018d0:	b00d883a 	mov	r6,r22
 84018d4:	b80f883a 	mov	r7,r23
 84018d8:	d9000a15 	stw	r4,40(sp)
 84018dc:	1009883a 	mov	r4,r2
 84018e0:	054ffbf4 	movhi	r21,16367
 84018e4:	ad71c244 	addi	r21,r21,-14583
 84018e8:	dd800d15 	stw	r22,52(sp)
 84018ec:	ddc00e15 	stw	r23,56(sp)
 84018f0:	05380034 	movhi	r20,57344
 84018f4:	d8800915 	stw	r2,36(sp)
 84018f8:	84037bc0 	call	84037bc <__adddf3>
 84018fc:	180b883a 	mov	r5,r3
 8401900:	a00d883a 	mov	r6,r20
 8401904:	a80f883a 	mov	r7,r21
 8401908:	9009883a 	mov	r4,r18
 840190c:	1823883a 	mov	r17,r3
 8401910:	84038300 	call	8403830 <__muldf3>
 8401914:	020516f4 	movhi	r8,5211
 8401918:	42007d44 	addi	r8,r8,501
 840191c:	026f8fb4 	movhi	r9,48702
 8401920:	4a4bf804 	addi	r9,r9,12256
 8401924:	480f883a 	mov	r7,r9
 8401928:	400d883a 	mov	r6,r8
 840192c:	880b883a 	mov	r5,r17
 8401930:	9009883a 	mov	r4,r18
 8401934:	d8803715 	stw	r2,220(sp)
 8401938:	d8c03815 	stw	r3,224(sp)
 840193c:	84038300 	call	8403830 <__muldf3>
 8401940:	d9800917 	ldw	r6,36(sp)
 8401944:	d9c03617 	ldw	r7,216(sp)
 8401948:	880b883a 	mov	r5,r17
 840194c:	9009883a 	mov	r4,r18
 8401950:	1021883a 	mov	r16,r2
 8401954:	1823883a 	mov	r17,r3
 8401958:	840373c0 	call	840373c <__subdf3>
 840195c:	d9000d17 	ldw	r4,52(sp)
 8401960:	b80b883a 	mov	r5,r23
 8401964:	180f883a 	mov	r7,r3
 8401968:	100d883a 	mov	r6,r2
 840196c:	840373c0 	call	840373c <__subdf3>
 8401970:	180b883a 	mov	r5,r3
 8401974:	a80f883a 	mov	r7,r21
 8401978:	01b70eb4 	movhi	r6,56378
 840197c:	3180ff44 	addi	r6,r6,1021
 8401980:	1009883a 	mov	r4,r2
 8401984:	84038300 	call	8403830 <__muldf3>
 8401988:	180f883a 	mov	r7,r3
 840198c:	880b883a 	mov	r5,r17
 8401990:	8009883a 	mov	r4,r16
 8401994:	100d883a 	mov	r6,r2
 8401998:	84037bc0 	call	84037bc <__adddf3>
 840199c:	d9402c17 	ldw	r5,176(sp)
 84019a0:	01021074 	movhi	r4,2113
 84019a4:	21064d04 	addi	r4,r4,6452
 84019a8:	2909883a 	add	r4,r5,r4
 84019ac:	22400117 	ldw	r9,4(r4)
 84019b0:	22000017 	ldw	r8,0(r4)
 84019b4:	180b883a 	mov	r5,r3
 84019b8:	480f883a 	mov	r7,r9
 84019bc:	400d883a 	mov	r6,r8
 84019c0:	1009883a 	mov	r4,r2
 84019c4:	84037bc0 	call	84037bc <__adddf3>
 84019c8:	d9000017 	ldw	r4,0(sp)
 84019cc:	182f883a 	mov	r23,r3
 84019d0:	102d883a 	mov	r22,r2
 84019d4:	84040f40 	call	84040f4 <__floatsidf>
 84019d8:	d9402c17 	ldw	r5,176(sp)
 84019dc:	01021074 	movhi	r4,2113
 84019e0:	21065104 	addi	r4,r4,6468
 84019e4:	b00d883a 	mov	r6,r22
 84019e8:	2911883a 	add	r8,r5,r4
 84019ec:	d9003717 	ldw	r4,220(sp)
 84019f0:	d9403817 	ldw	r5,224(sp)
 84019f4:	45000017 	ldw	r20,0(r8)
 84019f8:	d9002315 	stw	r4,140(sp)
 84019fc:	d9003817 	ldw	r4,224(sp)
 8401a00:	45400117 	ldw	r21,4(r8)
 8401a04:	b80f883a 	mov	r7,r23
 8401a08:	d9002415 	stw	r4,144(sp)
 8401a0c:	d9002317 	ldw	r4,140(sp)
 8401a10:	1021883a 	mov	r16,r2
 8401a14:	1823883a 	mov	r17,r3
 8401a18:	dd802115 	stw	r22,132(sp)
 8401a1c:	ddc02215 	stw	r23,136(sp)
 8401a20:	84037bc0 	call	84037bc <__adddf3>
 8401a24:	180b883a 	mov	r5,r3
 8401a28:	1009883a 	mov	r4,r2
 8401a2c:	a00d883a 	mov	r6,r20
 8401a30:	a80f883a 	mov	r7,r21
 8401a34:	84037bc0 	call	84037bc <__adddf3>
 8401a38:	180f883a 	mov	r7,r3
 8401a3c:	8009883a 	mov	r4,r16
 8401a40:	880b883a 	mov	r5,r17
 8401a44:	100d883a 	mov	r6,r2
 8401a48:	84037bc0 	call	84037bc <__adddf3>
 8401a4c:	180b883a 	mov	r5,r3
 8401a50:	0009883a 	mov	r4,zero
 8401a54:	800d883a 	mov	r6,r16
 8401a58:	880f883a 	mov	r7,r17
 8401a5c:	d9001b15 	stw	r4,108(sp)
 8401a60:	d8c01c15 	stw	r3,112(sp)
 8401a64:	840373c0 	call	840373c <__subdf3>
 8401a68:	180b883a 	mov	r5,r3
 8401a6c:	a80f883a 	mov	r7,r21
 8401a70:	1009883a 	mov	r4,r2
 8401a74:	a00d883a 	mov	r6,r20
 8401a78:	840373c0 	call	840373c <__subdf3>
 8401a7c:	d9802317 	ldw	r6,140(sp)
 8401a80:	d9c03817 	ldw	r7,224(sp)
 8401a84:	180b883a 	mov	r5,r3
 8401a88:	1009883a 	mov	r4,r2
 8401a8c:	840373c0 	call	840373c <__subdf3>
 8401a90:	d9002117 	ldw	r4,132(sp)
 8401a94:	1011883a 	mov	r8,r2
 8401a98:	1813883a 	mov	r9,r3
 8401a9c:	b80b883a 	mov	r5,r23
 8401aa0:	480f883a 	mov	r7,r9
 8401aa4:	400d883a 	mov	r6,r8
 8401aa8:	840373c0 	call	840373c <__subdf3>
 8401aac:	1823883a 	mov	r17,r3
 8401ab0:	d8c02517 	ldw	r3,148(sp)
 8401ab4:	1021883a 	mov	r16,r2
 8401ab8:	e0bfffc4 	addi	r2,fp,-1
 8401abc:	1884b03a 	or	r2,r3,r2
 8401ac0:	1000731e 	bne	r2,zero,8401c90 <__ieee754_pow+0xb88>
 8401ac4:	0009883a 	mov	r4,zero
 8401ac8:	016ffc34 	movhi	r5,49136
 8401acc:	d9001915 	stw	r4,100(sp)
 8401ad0:	d9401a15 	stw	r5,104(sp)
 8401ad4:	d9402917 	ldw	r5,164(sp)
 8401ad8:	d9002817 	ldw	r4,160(sp)
 8401adc:	0029883a 	mov	r20,zero
 8401ae0:	a00d883a 	mov	r6,r20
 8401ae4:	280f883a 	mov	r7,r5
 8401ae8:	2827883a 	mov	r19,r5
 8401aec:	840373c0 	call	840373c <__subdf3>
 8401af0:	d9001b17 	ldw	r4,108(sp)
 8401af4:	d9401c17 	ldw	r5,112(sp)
 8401af8:	180f883a 	mov	r7,r3
 8401afc:	100d883a 	mov	r6,r2
 8401b00:	84038300 	call	8403830 <__muldf3>
 8401b04:	d9c02917 	ldw	r7,164(sp)
 8401b08:	d9802817 	ldw	r6,160(sp)
 8401b0c:	880b883a 	mov	r5,r17
 8401b10:	8009883a 	mov	r4,r16
 8401b14:	1823883a 	mov	r17,r3
 8401b18:	1021883a 	mov	r16,r2
 8401b1c:	84038300 	call	8403830 <__muldf3>
 8401b20:	180f883a 	mov	r7,r3
 8401b24:	880b883a 	mov	r5,r17
 8401b28:	8009883a 	mov	r4,r16
 8401b2c:	100d883a 	mov	r6,r2
 8401b30:	84037bc0 	call	84037bc <__adddf3>
 8401b34:	d9401c17 	ldw	r5,112(sp)
 8401b38:	d9001b17 	ldw	r4,108(sp)
 8401b3c:	a00d883a 	mov	r6,r20
 8401b40:	980f883a 	mov	r7,r19
 8401b44:	1029883a 	mov	r20,r2
 8401b48:	182b883a 	mov	r21,r3
 8401b4c:	84038300 	call	8403830 <__muldf3>
 8401b50:	1025883a 	mov	r18,r2
 8401b54:	1827883a 	mov	r19,r3
 8401b58:	a009883a 	mov	r4,r20
 8401b5c:	a80b883a 	mov	r5,r21
 8401b60:	900d883a 	mov	r6,r18
 8401b64:	980f883a 	mov	r7,r19
 8401b68:	dd001d15 	stw	r20,116(sp)
 8401b6c:	dc801f15 	stw	r18,124(sp)
 8401b70:	dd401e15 	stw	r21,120(sp)
 8401b74:	dcc02015 	stw	r19,128(sp)
 8401b78:	84037bc0 	call	84037bc <__adddf3>
 8401b7c:	1823883a 	mov	r17,r3
 8401b80:	01102434 	movhi	r4,16528
 8401b84:	213fffc4 	addi	r4,r4,-1
 8401b88:	1021883a 	mov	r16,r2
 8401b8c:	182f883a 	mov	r23,r3
 8401b90:	dc401815 	stw	r17,96(sp)
 8401b94:	100b883a 	mov	r5,r2
 8401b98:	20c02c0e 	bge	r4,r3,8401c4c <__ieee754_pow+0xb44>
 8401b9c:	00afdc34 	movhi	r2,49008
 8401ba0:	1885883a 	add	r2,r3,r2
 8401ba4:	2884b03a 	or	r2,r5,r2
 8401ba8:	1001a626 	beq	r2,zero,8402244 <__ieee754_pow+0x113c>
 8401bac:	04220034 	movhi	r16,34816
 8401bb0:	841d6704 	addi	r16,r16,30108
 8401bb4:	045f8e34 	movhi	r17,32312
 8401bb8:	8c790f04 	addi	r17,r17,-7108
 8401bbc:	d9401a17 	ldw	r5,104(sp)
 8401bc0:	d9001917 	ldw	r4,100(sp)
 8401bc4:	800d883a 	mov	r6,r16
 8401bc8:	880f883a 	mov	r7,r17
 8401bcc:	84038300 	call	8403830 <__muldf3>
 8401bd0:	180b883a 	mov	r5,r3
 8401bd4:	800d883a 	mov	r6,r16
 8401bd8:	880f883a 	mov	r7,r17
 8401bdc:	1009883a 	mov	r4,r2
 8401be0:	84038300 	call	8403830 <__muldf3>
 8401be4:	003dc306 	br	84012f4 <__ieee754_pow+0x1ec>
 8401be8:	00b00434 	movhi	r2,49168
 8401bec:	9085883a 	add	r2,r18,r2
 8401bf0:	e084b03a 	or	r2,fp,r2
 8401bf4:	1000af1e 	bne	r2,zero,8401eb4 <__ieee754_pow+0xdac>
 8401bf8:	480f883a 	mov	r7,r9
 8401bfc:	4009883a 	mov	r4,r8
 8401c00:	480b883a 	mov	r5,r9
 8401c04:	400d883a 	mov	r6,r8
 8401c08:	003db406 	br	84012dc <__ieee754_pow+0x1d4>
 8401c0c:	00bffc34 	movhi	r2,65520
 8401c10:	18ff0084 	addi	r3,r3,-1022
 8401c14:	a0a9883a 	add	r20,r20,r2
 8401c18:	d8c00015 	stw	r3,0(sp)
 8401c1c:	0009883a 	mov	r4,zero
 8401c20:	04000234 	movhi	r16,8
 8401c24:	003e1406 	br	8401478 <__ieee754_pow+0x370>
 8401c28:	a80f883a 	mov	r7,r21
 8401c2c:	a009883a 	mov	r4,r20
 8401c30:	a80b883a 	mov	r5,r21
 8401c34:	a00d883a 	mov	r6,r20
 8401c38:	84038300 	call	8403830 <__muldf3>
 8401c3c:	180b883a 	mov	r5,r3
 8401c40:	d8802815 	stw	r2,160(sp)
 8401c44:	d9402915 	stw	r5,164(sp)
 8401c48:	003d5606 	br	84011a4 <__ieee754_pow+0x9c>
 8401c4c:	d9001817 	ldw	r4,96(sp)
 8401c50:	00a00034 	movhi	r2,32768
 8401c54:	10bfffc4 	addi	r2,r2,-1
 8401c58:	00d02474 	movhi	r3,16529
 8401c5c:	18f2ffc4 	addi	r3,r3,-13313
 8401c60:	20b8703a 	and	fp,r4,r2
 8401c64:	1f009d0e 	bge	r3,fp,8401edc <__ieee754_pow+0xdd4>
 8401c68:	008fdbf4 	movhi	r2,16239
 8401c6c:	108d0004 	addi	r2,r2,13312
 8401c70:	2085883a 	add	r2,r4,r2
 8401c74:	1144b03a 	or	r2,r2,r5
 8401c78:	1001c626 	beq	r2,zero,8402394 <__ieee754_pow+0x128c>
 8401c7c:	0430be74 	movhi	r16,49913
 8401c80:	843cd644 	addi	r16,r16,-3239
 8401c84:	04406974 	movhi	r17,421
 8401c88:	8c5b87c4 	addi	r17,r17,28191
 8401c8c:	003fcb06 	br	8401bbc <__ieee754_pow+0xab4>
 8401c90:	0005883a 	mov	r2,zero
 8401c94:	00cffc34 	movhi	r3,16368
 8401c98:	d8801915 	stw	r2,100(sp)
 8401c9c:	d8c01a15 	stw	r3,104(sp)
 8401ca0:	003f8c06 	br	8401ad4 <__ieee754_pow+0x9cc>
 8401ca4:	0005883a 	mov	r2,zero
 8401ca8:	00cffc34 	movhi	r3,16368
 8401cac:	180b883a 	mov	r5,r3
 8401cb0:	580f883a 	mov	r7,r11
 8401cb4:	1009883a 	mov	r4,r2
 8401cb8:	500d883a 	mov	r6,r10
 8401cbc:	8403bf40 	call	8403bf4 <__divdf3>
 8401cc0:	1011883a 	mov	r8,r2
 8401cc4:	1813883a 	mov	r9,r3
 8401cc8:	003d9506 	br	8401320 <__ieee754_pow+0x218>
 8401ccc:	008ffc34 	movhi	r2,16368
 8401cd0:	10bfff84 	addi	r2,r2,-2
 8401cd4:	14bdbb0e 	bge	r2,r18,84013c4 <__ieee754_pow+0x2bc>
 8401cd8:	008ffc34 	movhi	r2,16368
 8401cdc:	14bdae16 	blt	r2,r18,8401398 <__ieee754_pow+0x290>
 8401ce0:	580b883a 	mov	r5,r11
 8401ce4:	5009883a 	mov	r4,r10
 8401ce8:	000d883a 	mov	r6,zero
 8401cec:	100f883a 	mov	r7,r2
 8401cf0:	840373c0 	call	840373c <__subdf3>
 8401cf4:	1021883a 	mov	r16,r2
 8401cf8:	1823883a 	mov	r17,r3
 8401cfc:	00980034 	movhi	r2,24576
 8401d00:	00cffdf4 	movhi	r3,16375
 8401d04:	18c551c4 	addi	r3,r3,5447
 8401d08:	8009883a 	mov	r4,r16
 8401d0c:	880b883a 	mov	r5,r17
 8401d10:	180f883a 	mov	r7,r3
 8401d14:	100d883a 	mov	r6,r2
 8401d18:	84038300 	call	8403830 <__muldf3>
 8401d1c:	023e17b4 	movhi	r8,63582
 8401d20:	4237d104 	addi	r8,r8,-8380
 8401d24:	024f9574 	movhi	r9,15957
 8401d28:	4a6b82c4 	addi	r9,r9,-20981
 8401d2c:	480f883a 	mov	r7,r9
 8401d30:	400d883a 	mov	r6,r8
 8401d34:	8009883a 	mov	r4,r16
 8401d38:	880b883a 	mov	r5,r17
 8401d3c:	102d883a 	mov	r22,r2
 8401d40:	182f883a 	mov	r23,r3
 8401d44:	84038300 	call	8403830 <__muldf3>
 8401d48:	8009883a 	mov	r4,r16
 8401d4c:	880b883a 	mov	r5,r17
 8401d50:	800d883a 	mov	r6,r16
 8401d54:	880f883a 	mov	r7,r17
 8401d58:	d8802a15 	stw	r2,168(sp)
 8401d5c:	d8c02b15 	stw	r3,172(sp)
 8401d60:	84038300 	call	8403830 <__muldf3>
 8401d64:	0011883a 	mov	r8,zero
 8401d68:	026ff434 	movhi	r9,49104
 8401d6c:	480f883a 	mov	r7,r9
 8401d70:	8009883a 	mov	r4,r16
 8401d74:	880b883a 	mov	r5,r17
 8401d78:	400d883a 	mov	r6,r8
 8401d7c:	1029883a 	mov	r20,r2
 8401d80:	182b883a 	mov	r21,r3
 8401d84:	84038300 	call	8403830 <__muldf3>
 8401d88:	02155574 	movhi	r8,21845
 8401d8c:	42155544 	addi	r8,r8,21845
 8401d90:	024ff574 	movhi	r9,16341
 8401d94:	4a555544 	addi	r9,r9,21845
 8401d98:	480f883a 	mov	r7,r9
 8401d9c:	400d883a 	mov	r6,r8
 8401da0:	180b883a 	mov	r5,r3
 8401da4:	1009883a 	mov	r4,r2
 8401da8:	84037bc0 	call	84037bc <__adddf3>
 8401dac:	180f883a 	mov	r7,r3
 8401db0:	8009883a 	mov	r4,r16
 8401db4:	880b883a 	mov	r5,r17
 8401db8:	100d883a 	mov	r6,r2
 8401dbc:	84038300 	call	8403830 <__muldf3>
 8401dc0:	0011883a 	mov	r8,zero
 8401dc4:	024ff834 	movhi	r9,16352
 8401dc8:	480b883a 	mov	r5,r9
 8401dcc:	4009883a 	mov	r4,r8
 8401dd0:	180f883a 	mov	r7,r3
 8401dd4:	100d883a 	mov	r6,r2
 8401dd8:	840373c0 	call	840373c <__subdf3>
 8401ddc:	180f883a 	mov	r7,r3
 8401de0:	a80b883a 	mov	r5,r21
 8401de4:	a009883a 	mov	r4,r20
 8401de8:	100d883a 	mov	r6,r2
 8401dec:	84038300 	call	8403830 <__muldf3>
 8401df0:	02194b34 	movhi	r8,25900
 8401df4:	4220bf84 	addi	r8,r8,-32002
 8401df8:	026ffdf4 	movhi	r9,49143
 8401dfc:	4a4551c4 	addi	r9,r9,5447
 8401e00:	480f883a 	mov	r7,r9
 8401e04:	400d883a 	mov	r6,r8
 8401e08:	180b883a 	mov	r5,r3
 8401e0c:	1009883a 	mov	r4,r2
 8401e10:	84038300 	call	8403830 <__muldf3>
 8401e14:	d9402b17 	ldw	r5,172(sp)
 8401e18:	d9002a17 	ldw	r4,168(sp)
 8401e1c:	180f883a 	mov	r7,r3
 8401e20:	100d883a 	mov	r6,r2
 8401e24:	84037bc0 	call	84037bc <__adddf3>
 8401e28:	100d883a 	mov	r6,r2
 8401e2c:	b009883a 	mov	r4,r22
 8401e30:	b80b883a 	mov	r5,r23
 8401e34:	180f883a 	mov	r7,r3
 8401e38:	1021883a 	mov	r16,r2
 8401e3c:	1823883a 	mov	r17,r3
 8401e40:	84037bc0 	call	84037bc <__adddf3>
 8401e44:	180b883a 	mov	r5,r3
 8401e48:	0009883a 	mov	r4,zero
 8401e4c:	b00d883a 	mov	r6,r22
 8401e50:	b80f883a 	mov	r7,r23
 8401e54:	d9001b15 	stw	r4,108(sp)
 8401e58:	d8c01c15 	stw	r3,112(sp)
 8401e5c:	840373c0 	call	840373c <__subdf3>
 8401e60:	1011883a 	mov	r8,r2
 8401e64:	1813883a 	mov	r9,r3
 8401e68:	8009883a 	mov	r4,r16
 8401e6c:	880b883a 	mov	r5,r17
 8401e70:	003f0b06 	br	8401aa0 <__ieee754_pow+0x998>
 8401e74:	0005883a 	mov	r2,zero
 8401e78:	00d0d034 	movhi	r3,17216
 8401e7c:	580b883a 	mov	r5,r11
 8401e80:	5009883a 	mov	r4,r10
 8401e84:	180f883a 	mov	r7,r3
 8401e88:	100d883a 	mov	r6,r2
 8401e8c:	84038300 	call	8403830 <__muldf3>
 8401e90:	1015883a 	mov	r10,r2
 8401e94:	1825883a 	mov	r18,r3
 8401e98:	017ff2c4 	movi	r5,-53
 8401e9c:	003d6606 	br	8401438 <__ieee754_pow+0x330>
 8401ea0:	b03d300e 	bge	r22,zero,8401364 <__ieee754_pow+0x25c>
 8401ea4:	d9402917 	ldw	r5,164(sp)
 8401ea8:	28e0003c 	xorhi	r3,r5,32768
 8401eac:	d8c02915 	stw	r3,164(sp)
 8401eb0:	003cbc06 	br	84011a4 <__ieee754_pow+0x9c>
 8401eb4:	00800044 	movi	r2,1
 8401eb8:	e0bd1a1e 	bne	fp,r2,8401324 <__ieee754_pow+0x21c>
 8401ebc:	48e0003c 	xorhi	r3,r9,32768
 8401ec0:	da002815 	stw	r8,160(sp)
 8401ec4:	d8c02915 	stw	r3,164(sp)
 8401ec8:	003cb606 	br	84011a4 <__ieee754_pow+0x9c>
 8401ecc:	d9001817 	ldw	r4,96(sp)
 8401ed0:	00a00034 	movhi	r2,32768
 8401ed4:	10bfffc4 	addi	r2,r2,-1
 8401ed8:	20b8703a 	and	fp,r4,r2
 8401edc:	008ff834 	movhi	r2,16352
 8401ee0:	1700fc16 	blt	r2,fp,84022d4 <__ieee754_pow+0x11cc>
 8401ee4:	0039883a 	mov	fp,zero
 8401ee8:	d8001315 	stw	zero,76(sp)
 8401eec:	0025883a 	mov	r18,zero
 8401ef0:	0005883a 	mov	r2,zero
 8401ef4:	00cff9b4 	movhi	r3,16358
 8401ef8:	18cb90c4 	addi	r3,r3,11843
 8401efc:	9009883a 	mov	r4,r18
 8401f00:	b80b883a 	mov	r5,r23
 8401f04:	180f883a 	mov	r7,r3
 8401f08:	100d883a 	mov	r6,r2
 8401f0c:	84038300 	call	8403830 <__muldf3>
 8401f10:	d9c02017 	ldw	r7,128(sp)
 8401f14:	d9801f17 	ldw	r6,124(sp)
 8401f18:	9009883a 	mov	r4,r18
 8401f1c:	b80b883a 	mov	r5,r23
 8401f20:	b823883a 	mov	r17,r23
 8401f24:	102d883a 	mov	r22,r2
 8401f28:	182f883a 	mov	r23,r3
 8401f2c:	840373c0 	call	840373c <__subdf3>
 8401f30:	d9401e17 	ldw	r5,120(sp)
 8401f34:	d9001d17 	ldw	r4,116(sp)
 8401f38:	180f883a 	mov	r7,r3
 8401f3c:	100d883a 	mov	r6,r2
 8401f40:	840373c0 	call	840373c <__subdf3>
 8401f44:	023fbeb4 	movhi	r8,65274
 8401f48:	420e7bc4 	addi	r8,r8,14831
 8401f4c:	024ff9b4 	movhi	r9,16358
 8401f50:	4a4b9084 	addi	r9,r9,11842
 8401f54:	480f883a 	mov	r7,r9
 8401f58:	400d883a 	mov	r6,r8
 8401f5c:	180b883a 	mov	r5,r3
 8401f60:	1009883a 	mov	r4,r2
 8401f64:	84038300 	call	8403830 <__muldf3>
 8401f68:	02032a34 	movhi	r8,3240
 8401f6c:	421b0e44 	addi	r8,r8,27705
 8401f70:	026f8834 	movhi	r9,48672
 8401f74:	4a571844 	addi	r9,r9,23649
 8401f78:	480f883a 	mov	r7,r9
 8401f7c:	400d883a 	mov	r6,r8
 8401f80:	9009883a 	mov	r4,r18
 8401f84:	880b883a 	mov	r5,r17
 8401f88:	1021883a 	mov	r16,r2
 8401f8c:	1823883a 	mov	r17,r3
 8401f90:	84038300 	call	8403830 <__muldf3>
 8401f94:	180f883a 	mov	r7,r3
 8401f98:	880b883a 	mov	r5,r17
 8401f9c:	8009883a 	mov	r4,r16
 8401fa0:	100d883a 	mov	r6,r2
 8401fa4:	84037bc0 	call	84037bc <__adddf3>
 8401fa8:	100d883a 	mov	r6,r2
 8401fac:	b009883a 	mov	r4,r22
 8401fb0:	b80b883a 	mov	r5,r23
 8401fb4:	180f883a 	mov	r7,r3
 8401fb8:	1021883a 	mov	r16,r2
 8401fbc:	1823883a 	mov	r17,r3
 8401fc0:	84037bc0 	call	84037bc <__adddf3>
 8401fc4:	1009883a 	mov	r4,r2
 8401fc8:	180b883a 	mov	r5,r3
 8401fcc:	b00d883a 	mov	r6,r22
 8401fd0:	b80f883a 	mov	r7,r23
 8401fd4:	d8803915 	stw	r2,228(sp)
 8401fd8:	d8c03a15 	stw	r3,232(sp)
 8401fdc:	d8801115 	stw	r2,68(sp)
 8401fe0:	d8c01215 	stw	r3,72(sp)
 8401fe4:	840373c0 	call	840373c <__subdf3>
 8401fe8:	180f883a 	mov	r7,r3
 8401fec:	8009883a 	mov	r4,r16
 8401ff0:	880b883a 	mov	r5,r17
 8401ff4:	100d883a 	mov	r6,r2
 8401ff8:	840373c0 	call	840373c <__subdf3>
 8401ffc:	d9001117 	ldw	r4,68(sp)
 8402000:	d9403a17 	ldw	r5,232(sp)
 8402004:	1029883a 	mov	r20,r2
 8402008:	200d883a 	mov	r6,r4
 840200c:	280f883a 	mov	r7,r5
 8402010:	182b883a 	mov	r21,r3
 8402014:	84038300 	call	8403830 <__muldf3>
 8402018:	1021883a 	mov	r16,r2
 840201c:	1823883a 	mov	r17,r3
 8402020:	009caff4 	movhi	r2,29375
 8402024:	10a93404 	addi	r2,r2,-23344
 8402028:	00cf99b4 	movhi	r3,15974
 840202c:	18cdda44 	addi	r3,r3,14185
 8402030:	8009883a 	mov	r4,r16
 8402034:	880b883a 	mov	r5,r17
 8402038:	180f883a 	mov	r7,r3
 840203c:	100d883a 	mov	r6,r2
 8402040:	84038300 	call	8403830 <__muldf3>
 8402044:	023174b4 	movhi	r8,50642
 8402048:	421afc44 	addi	r8,r8,27633
 840204c:	024faf34 	movhi	r9,16060
 8402050:	4a6f5044 	addi	r9,r9,-17087
 8402054:	480f883a 	mov	r7,r9
 8402058:	400d883a 	mov	r6,r8
 840205c:	180b883a 	mov	r5,r3
 8402060:	1009883a 	mov	r4,r2
 8402064:	840373c0 	call	840373c <__subdf3>
 8402068:	180f883a 	mov	r7,r3
 840206c:	8009883a 	mov	r4,r16
 8402070:	880b883a 	mov	r5,r17
 8402074:	100d883a 	mov	r6,r2
 8402078:	84038300 	call	8403830 <__muldf3>
 840207c:	022bc9b4 	movhi	r8,44838
 8402080:	42378b04 	addi	r8,r8,-8660
 8402084:	024fc474 	movhi	r9,16145
 8402088:	4a559a84 	addi	r9,r9,22122
 840208c:	480f883a 	mov	r7,r9
 8402090:	400d883a 	mov	r6,r8
 8402094:	180b883a 	mov	r5,r3
 8402098:	1009883a 	mov	r4,r2
 840209c:	84037bc0 	call	84037bc <__adddf3>
 84020a0:	180f883a 	mov	r7,r3
 84020a4:	8009883a 	mov	r4,r16
 84020a8:	880b883a 	mov	r5,r17
 84020ac:	100d883a 	mov	r6,r2
 84020b0:	84038300 	call	8403830 <__muldf3>
 84020b4:	0205aff4 	movhi	r8,5823
 84020b8:	422f64c4 	addi	r8,r8,-17005
 84020bc:	024fd9f4 	movhi	r9,16231
 84020c0:	4a705b04 	addi	r9,r9,-16020
 84020c4:	480f883a 	mov	r7,r9
 84020c8:	400d883a 	mov	r6,r8
 84020cc:	180b883a 	mov	r5,r3
 84020d0:	1009883a 	mov	r4,r2
 84020d4:	840373c0 	call	840373c <__subdf3>
 84020d8:	180f883a 	mov	r7,r3
 84020dc:	8009883a 	mov	r4,r16
 84020e0:	880b883a 	mov	r5,r17
 84020e4:	100d883a 	mov	r6,r2
 84020e8:	84038300 	call	8403830 <__muldf3>
 84020ec:	02155574 	movhi	r8,21845
 84020f0:	42154f84 	addi	r8,r8,21822
 84020f4:	024ff174 	movhi	r9,16325
 84020f8:	4a555544 	addi	r9,r9,21845
 84020fc:	480f883a 	mov	r7,r9
 8402100:	400d883a 	mov	r6,r8
 8402104:	180b883a 	mov	r5,r3
 8402108:	1009883a 	mov	r4,r2
 840210c:	84037bc0 	call	84037bc <__adddf3>
 8402110:	180f883a 	mov	r7,r3
 8402114:	8009883a 	mov	r4,r16
 8402118:	880b883a 	mov	r5,r17
 840211c:	100d883a 	mov	r6,r2
 8402120:	84038300 	call	8403830 <__muldf3>
 8402124:	d9001117 	ldw	r4,68(sp)
 8402128:	d9403a17 	ldw	r5,232(sp)
 840212c:	180f883a 	mov	r7,r3
 8402130:	100d883a 	mov	r6,r2
 8402134:	840373c0 	call	840373c <__subdf3>
 8402138:	d9001117 	ldw	r4,68(sp)
 840213c:	d9403a17 	ldw	r5,232(sp)
 8402140:	100d883a 	mov	r6,r2
 8402144:	180f883a 	mov	r7,r3
 8402148:	1021883a 	mov	r16,r2
 840214c:	1823883a 	mov	r17,r3
 8402150:	84038300 	call	8403830 <__muldf3>
 8402154:	0011883a 	mov	r8,zero
 8402158:	02500034 	movhi	r9,16384
 840215c:	480f883a 	mov	r7,r9
 8402160:	400d883a 	mov	r6,r8
 8402164:	8009883a 	mov	r4,r16
 8402168:	880b883a 	mov	r5,r17
 840216c:	1021883a 	mov	r16,r2
 8402170:	1823883a 	mov	r17,r3
 8402174:	840373c0 	call	840373c <__subdf3>
 8402178:	180f883a 	mov	r7,r3
 840217c:	880b883a 	mov	r5,r17
 8402180:	8009883a 	mov	r4,r16
 8402184:	100d883a 	mov	r6,r2
 8402188:	8403bf40 	call	8403bf4 <__divdf3>
 840218c:	d9001117 	ldw	r4,68(sp)
 8402190:	d9403a17 	ldw	r5,232(sp)
 8402194:	a00d883a 	mov	r6,r20
 8402198:	a80f883a 	mov	r7,r21
 840219c:	1025883a 	mov	r18,r2
 84021a0:	1827883a 	mov	r19,r3
 84021a4:	84038300 	call	8403830 <__muldf3>
 84021a8:	180f883a 	mov	r7,r3
 84021ac:	a009883a 	mov	r4,r20
 84021b0:	a80b883a 	mov	r5,r21
 84021b4:	100d883a 	mov	r6,r2
 84021b8:	84037bc0 	call	84037bc <__adddf3>
 84021bc:	180f883a 	mov	r7,r3
 84021c0:	980b883a 	mov	r5,r19
 84021c4:	9009883a 	mov	r4,r18
 84021c8:	100d883a 	mov	r6,r2
 84021cc:	840373c0 	call	840373c <__subdf3>
 84021d0:	d9801117 	ldw	r6,68(sp)
 84021d4:	d9c03a17 	ldw	r7,232(sp)
 84021d8:	180b883a 	mov	r5,r3
 84021dc:	1009883a 	mov	r4,r2
 84021e0:	840373c0 	call	840373c <__subdf3>
 84021e4:	0011883a 	mov	r8,zero
 84021e8:	024ffc34 	movhi	r9,16368
 84021ec:	480b883a 	mov	r5,r9
 84021f0:	180f883a 	mov	r7,r3
 84021f4:	4009883a 	mov	r4,r8
 84021f8:	100d883a 	mov	r6,r2
 84021fc:	840373c0 	call	840373c <__subdf3>
 8402200:	100b883a 	mov	r5,r2
 8402204:	d8801317 	ldw	r2,76(sp)
 8402208:	10d5883a 	add	r10,r2,r3
 840220c:	5005d53a 	srai	r2,r10,20
 8402210:	0080720e 	bge	zero,r2,84023dc <__ieee754_pow+0x12d4>
 8402214:	2811883a 	mov	r8,r5
 8402218:	5013883a 	mov	r9,r10
 840221c:	d9c01a17 	ldw	r7,104(sp)
 8402220:	d9801917 	ldw	r6,100(sp)
 8402224:	480b883a 	mov	r5,r9
 8402228:	4009883a 	mov	r4,r8
 840222c:	003e8206 	br	8401c38 <__ieee754_pow+0xb30>
 8402230:	0009883a 	mov	r4,zero
 8402234:	800b883a 	mov	r5,r16
 8402238:	a80f883a 	mov	r7,r21
 840223c:	a00d883a 	mov	r6,r20
 8402240:	003c2b06 	br	84012f0 <__ieee754_pow+0x1e8>
 8402244:	d9001d17 	ldw	r4,116(sp)
 8402248:	00994b34 	movhi	r2,25900
 840224c:	10a0bf84 	addi	r2,r2,-32002
 8402250:	00cf25f4 	movhi	r3,15511
 8402254:	18c551c4 	addi	r3,r3,5447
 8402258:	a80b883a 	mov	r5,r21
 840225c:	180f883a 	mov	r7,r3
 8402260:	100d883a 	mov	r6,r2
 8402264:	84037bc0 	call	84037bc <__adddf3>
 8402268:	d9801f17 	ldw	r6,124(sp)
 840226c:	880b883a 	mov	r5,r17
 8402270:	8009883a 	mov	r4,r16
 8402274:	980f883a 	mov	r7,r19
 8402278:	1021883a 	mov	r16,r2
 840227c:	1823883a 	mov	r17,r3
 8402280:	840373c0 	call	840373c <__subdf3>
 8402284:	180f883a 	mov	r7,r3
 8402288:	880b883a 	mov	r5,r17
 840228c:	8009883a 	mov	r4,r16
 8402290:	100d883a 	mov	r6,r2
 8402294:	8403f5c0 	call	8403f5c <__gtdf2>
 8402298:	00bf0c0e 	bge	zero,r2,8401ecc <__ieee754_pow+0xdc4>
 840229c:	04220034 	movhi	r16,34816
 84022a0:	841d6704 	addi	r16,r16,30108
 84022a4:	045f8e34 	movhi	r17,32312
 84022a8:	8c790f04 	addi	r17,r17,-7108
 84022ac:	d9401a17 	ldw	r5,104(sp)
 84022b0:	d9001917 	ldw	r4,100(sp)
 84022b4:	800d883a 	mov	r6,r16
 84022b8:	880f883a 	mov	r7,r17
 84022bc:	84038300 	call	8403830 <__muldf3>
 84022c0:	180b883a 	mov	r5,r3
 84022c4:	800d883a 	mov	r6,r16
 84022c8:	880f883a 	mov	r7,r17
 84022cc:	1009883a 	mov	r4,r2
 84022d0:	003e5906 	br	8401c38 <__ieee754_pow+0xb30>
 84022d4:	e005d53a 	srai	r2,fp,20
 84022d8:	01800434 	movhi	r6,16
 84022dc:	d9401817 	ldw	r5,96(sp)
 84022e0:	10bf0084 	addi	r2,r2,-1022
 84022e4:	308dd83a 	sra	r6,r6,r2
 84022e8:	02000434 	movhi	r8,16
 84022ec:	423fffc4 	addi	r8,r8,-1
 84022f0:	0005883a 	mov	r2,zero
 84022f4:	298d883a 	add	r6,r5,r6
 84022f8:	318b883a 	add	r5,r6,r6
 84022fc:	320e703a 	and	r7,r6,r8
 8402300:	1013883a 	mov	r9,r2
 8402304:	280ad57a 	srli	r5,r5,21
 8402308:	d8801817 	ldw	r2,96(sp)
 840230c:	01000504 	movi	r4,20
 8402310:	297f0044 	addi	r5,r5,-1023
 8402314:	4151d83a 	sra	r8,r8,r5
 8402318:	39c00434 	orhi	r7,r7,16
 840231c:	2149c83a 	sub	r4,r4,r5
 8402320:	0210303a 	nor	r8,zero,r8
 8402324:	3939d83a 	sra	fp,r7,r4
 8402328:	320e703a 	and	r7,r6,r8
 840232c:	10002916 	blt	r2,zero,84023d4 <__ieee754_pow+0x12cc>
 8402330:	d9402017 	ldw	r5,128(sp)
 8402334:	d9001f17 	ldw	r4,124(sp)
 8402338:	480d883a 	mov	r6,r9
 840233c:	840373c0 	call	840373c <__subdf3>
 8402340:	180b883a 	mov	r5,r3
 8402344:	d9402015 	stw	r5,128(sp)
 8402348:	280f883a 	mov	r7,r5
 840234c:	d9001d17 	ldw	r4,116(sp)
 8402350:	d9401e17 	ldw	r5,120(sp)
 8402354:	1007883a 	mov	r3,r2
 8402358:	180d883a 	mov	r6,r3
 840235c:	d8801f15 	stw	r2,124(sp)
 8402360:	84037bc0 	call	84037bc <__adddf3>
 8402364:	180b883a 	mov	r5,r3
 8402368:	e006953a 	slli	r3,fp,20
 840236c:	282f883a 	mov	r23,r5
 8402370:	d8c01315 	stw	r3,76(sp)
 8402374:	003edd06 	br	8401eec <__ieee754_pow+0xde4>
 8402378:	383bc81e 	bne	r7,zero,840129c <__ieee754_pow+0x194>
 840237c:	28c5c83a 	sub	r2,r5,r3
 8402380:	8087d83a 	sra	r3,r16,r2
 8402384:	1884983a 	sll	r2,r3,r2
 8402388:	80801b26 	beq	r16,r2,84023f8 <__ieee754_pow+0x12f0>
 840238c:	0039883a 	mov	fp,zero
 8402390:	003b9d06 	br	8401208 <__ieee754_pow+0x100>
 8402394:	d9801f17 	ldw	r6,124(sp)
 8402398:	8009883a 	mov	r4,r16
 840239c:	880b883a 	mov	r5,r17
 84023a0:	980f883a 	mov	r7,r19
 84023a4:	840373c0 	call	840373c <__subdf3>
 84023a8:	d9001d17 	ldw	r4,116(sp)
 84023ac:	a80b883a 	mov	r5,r21
 84023b0:	180f883a 	mov	r7,r3
 84023b4:	100d883a 	mov	r6,r2
 84023b8:	840406c0 	call	840406c <__ledf2>
 84023bc:	00bfc516 	blt	zero,r2,84022d4 <__ieee754_pow+0x11cc>
 84023c0:	0430be74 	movhi	r16,49913
 84023c4:	843cd644 	addi	r16,r16,-3239
 84023c8:	04406974 	movhi	r17,421
 84023cc:	8c5b87c4 	addi	r17,r17,28191
 84023d0:	003fb606 	br	84022ac <__ieee754_pow+0x11a4>
 84023d4:	0739c83a 	sub	fp,zero,fp
 84023d8:	003fd506 	br	8402330 <__ieee754_pow+0x1228>
 84023dc:	2809883a 	mov	r4,r5
 84023e0:	e00d883a 	mov	r6,fp
 84023e4:	180b883a 	mov	r5,r3
 84023e8:	840295c0 	call	840295c <scalbn>
 84023ec:	1011883a 	mov	r8,r2
 84023f0:	1813883a 	mov	r9,r3
 84023f4:	003f8906 	br	840221c <__ieee754_pow+0x1114>
 84023f8:	18c0004c 	andi	r3,r3,1
 84023fc:	00800084 	movi	r2,2
 8402400:	10f9c83a 	sub	fp,r2,r3
 8402404:	003b8006 	br	8401208 <__ieee754_pow+0x100>

08402408 <__ieee754_sqrt>:
 8402408:	defffd04 	addi	sp,sp,-12
 840240c:	dc000015 	stw	r16,0(sp)
 8402410:	009ffc34 	movhi	r2,32752
 8402414:	2021883a 	mov	r16,r4
 8402418:	291ffc2c 	andhi	r4,r5,32752
 840241c:	dc400115 	stw	r17,4(sp)
 8402420:	dfc00215 	stw	ra,8(sp)
 8402424:	2823883a 	mov	r17,r5
 8402428:	280f883a 	mov	r7,r5
 840242c:	2807883a 	mov	r3,r5
 8402430:	8011883a 	mov	r8,r16
 8402434:	20807d26 	beq	r4,r2,840262c <__ieee754_sqrt+0x224>
 8402438:	01408d0e 	bge	zero,r5,8402670 <__ieee754_sqrt+0x268>
 840243c:	380dd53a 	srai	r6,r7,20
 8402440:	3000131e 	bne	r6,zero,8402490 <__ieee754_sqrt+0x88>
 8402444:	1800041e 	bne	r3,zero,8402458 <__ieee754_sqrt+0x50>
 8402448:	400ed2fa 	srli	r7,r8,11
 840244c:	31bffac4 	addi	r6,r6,-21
 8402450:	4010957a 	slli	r8,r8,21
 8402454:	383ffc26 	beq	r7,zero,8402448 <__ieee754_sqrt+0x40>
 8402458:	3880042c 	andhi	r2,r7,16
 840245c:	1000991e 	bne	r2,zero,84026c4 <__ieee754_sqrt+0x2bc>
 8402460:	0009883a 	mov	r4,zero
 8402464:	39cf883a 	add	r7,r7,r7
 8402468:	3880042c 	andhi	r2,r7,16
 840246c:	21000044 	addi	r4,r4,1
 8402470:	103ffc26 	beq	r2,zero,8402464 <__ieee754_sqrt+0x5c>
 8402474:	00800804 	movi	r2,32
 8402478:	1105c83a 	sub	r2,r2,r4
 840247c:	4086d83a 	srl	r3,r8,r2
 8402480:	4110983a 	sll	r8,r8,r4
 8402484:	3105c83a 	sub	r2,r6,r4
 8402488:	38ceb03a 	or	r7,r7,r3
 840248c:	11800044 	addi	r6,r2,1
 8402490:	31bf0044 	addi	r6,r6,-1023
 8402494:	30c0004c 	andi	r3,r6,1
 8402498:	00800434 	movhi	r2,16
 840249c:	10bfffc4 	addi	r2,r2,-1
 84024a0:	3884703a 	and	r2,r7,r2
 84024a4:	1807003a 	cmpeq	r3,r3,zero
 84024a8:	11000434 	orhi	r4,r2,16
 84024ac:	18005426 	beq	r3,zero,8402600 <__ieee754_sqrt+0x1f8>
 84024b0:	4004d7fa 	srli	r2,r8,31
 84024b4:	4207883a 	add	r3,r8,r8
 84024b8:	02800834 	movhi	r10,32
 84024bc:	1105883a 	add	r2,r2,r4
 84024c0:	2089883a 	add	r4,r4,r2
 84024c4:	0011883a 	mov	r8,zero
 84024c8:	000b883a 	mov	r5,zero
 84024cc:	0013883a 	mov	r9,zero
 84024d0:	02c00584 	movi	r11,22
 84024d4:	520f883a 	add	r7,r10,r8
 84024d8:	1804d7fa 	srli	r2,r3,31
 84024dc:	4a400044 	addi	r9,r9,1
 84024e0:	18c7883a 	add	r3,r3,r3
 84024e4:	21c00316 	blt	r4,r7,84024f4 <__ieee754_sqrt+0xec>
 84024e8:	21c9c83a 	sub	r4,r4,r7
 84024ec:	2a8b883a 	add	r5,r5,r10
 84024f0:	51d1883a 	add	r8,r10,r7
 84024f4:	1105883a 	add	r2,r2,r4
 84024f8:	5014d07a 	srli	r10,r10,1
 84024fc:	2089883a 	add	r4,r4,r2
 8402500:	4afff41e 	bne	r9,r11,84024d4 <__ieee754_sqrt+0xcc>
 8402504:	02600034 	movhi	r9,32768
 8402508:	0017883a 	mov	r11,zero
 840250c:	0019883a 	mov	r12,zero
 8402510:	0015883a 	mov	r10,zero
 8402514:	4821883a 	mov	r16,r9
 8402518:	03c00804 	movi	r15,32
 840251c:	00000806 	br	8402540 <__ieee754_sqrt+0x138>
 8402520:	22003426 	beq	r4,r8,84025f4 <__ieee754_sqrt+0x1ec>
 8402524:	1804d7fa 	srli	r2,r3,31
 8402528:	52800044 	addi	r10,r10,1
 840252c:	18c7883a 	add	r3,r3,r3
 8402530:	1105883a 	add	r2,r2,r4
 8402534:	2089883a 	add	r4,r4,r2
 8402538:	4812d07a 	srli	r9,r9,1
 840253c:	53c01326 	beq	r10,r15,840258c <__ieee754_sqrt+0x184>
 8402540:	4acf883a 	add	r7,r9,r11
 8402544:	413ff60e 	bge	r8,r4,8402520 <__ieee754_sqrt+0x118>
 8402548:	38a0002c 	andhi	r2,r7,32768
 840254c:	3a57883a 	add	r11,r7,r9
 8402550:	14002426 	beq	r2,r16,84025e4 <__ieee754_sqrt+0x1dc>
 8402554:	4005883a 	mov	r2,r8
 8402558:	2209c83a 	sub	r4,r4,r8
 840255c:	19c0012e 	bgeu	r3,r7,8402564 <__ieee754_sqrt+0x15c>
 8402560:	213fffc4 	addi	r4,r4,-1
 8402564:	19c7c83a 	sub	r3,r3,r7
 8402568:	1011883a 	mov	r8,r2
 840256c:	1804d7fa 	srli	r2,r3,31
 8402570:	52800044 	addi	r10,r10,1
 8402574:	6259883a 	add	r12,r12,r9
 8402578:	1105883a 	add	r2,r2,r4
 840257c:	18c7883a 	add	r3,r3,r3
 8402580:	2089883a 	add	r4,r4,r2
 8402584:	4812d07a 	srli	r9,r9,1
 8402588:	53ffed1e 	bne	r10,r15,8402540 <__ieee754_sqrt+0x138>
 840258c:	20c4b03a 	or	r2,r4,r3
 8402590:	1000201e 	bne	r2,zero,8402614 <__ieee754_sqrt+0x20c>
 8402594:	600ed07a 	srli	r7,r12,1
 8402598:	2880004c 	andi	r2,r5,1
 840259c:	1005003a 	cmpeq	r2,r2,zero
 84025a0:	1000011e 	bne	r2,zero,84025a8 <__ieee754_sqrt+0x1a0>
 84025a4:	39e00034 	orhi	r7,r7,32768
 84025a8:	300dd07a 	srai	r6,r6,1
 84025ac:	280bd07a 	srai	r5,r5,1
 84025b0:	010ff834 	movhi	r4,16352
 84025b4:	300c953a 	slli	r6,r6,20
 84025b8:	290b883a 	add	r5,r5,r4
 84025bc:	3821883a 	mov	r16,r7
 84025c0:	299d883a 	add	r14,r5,r6
 84025c4:	7023883a 	mov	r17,r14
 84025c8:	8005883a 	mov	r2,r16
 84025cc:	8807883a 	mov	r3,r17
 84025d0:	dfc00217 	ldw	ra,8(sp)
 84025d4:	dc400117 	ldw	r17,4(sp)
 84025d8:	dc000017 	ldw	r16,0(sp)
 84025dc:	dec00304 	addi	sp,sp,12
 84025e0:	f800283a 	ret
 84025e4:	5884703a 	and	r2,r11,r2
 84025e8:	103fda1e 	bne	r2,zero,8402554 <__ieee754_sqrt+0x14c>
 84025ec:	40800044 	addi	r2,r8,1
 84025f0:	003fd906 	br	8402558 <__ieee754_sqrt+0x150>
 84025f4:	19ffd42e 	bgeu	r3,r7,8402548 <__ieee754_sqrt+0x140>
 84025f8:	2011883a 	mov	r8,r4
 84025fc:	003fc906 	br	8402524 <__ieee754_sqrt+0x11c>
 8402600:	4004d7fa 	srli	r2,r8,31
 8402604:	4211883a 	add	r8,r8,r8
 8402608:	1105883a 	add	r2,r2,r4
 840260c:	2089883a 	add	r4,r4,r2
 8402610:	003fa706 	br	84024b0 <__ieee754_sqrt+0xa8>
 8402614:	00bfffc4 	movi	r2,-1
 8402618:	60802726 	beq	r12,r2,84026b8 <__ieee754_sqrt+0x2b0>
 840261c:	6080004c 	andi	r2,r12,1
 8402620:	6085883a 	add	r2,r12,r2
 8402624:	100ed07a 	srli	r7,r2,1
 8402628:	003fdb06 	br	8402598 <__ieee754_sqrt+0x190>
 840262c:	8009883a 	mov	r4,r16
 8402630:	800d883a 	mov	r6,r16
 8402634:	84038300 	call	8403830 <__muldf3>
 8402638:	180f883a 	mov	r7,r3
 840263c:	880b883a 	mov	r5,r17
 8402640:	8009883a 	mov	r4,r16
 8402644:	100d883a 	mov	r6,r2
 8402648:	84037bc0 	call	84037bc <__adddf3>
 840264c:	1021883a 	mov	r16,r2
 8402650:	1823883a 	mov	r17,r3
 8402654:	8005883a 	mov	r2,r16
 8402658:	8807883a 	mov	r3,r17
 840265c:	dfc00217 	ldw	ra,8(sp)
 8402660:	dc400117 	ldw	r17,4(sp)
 8402664:	dc000017 	ldw	r16,0(sp)
 8402668:	dec00304 	addi	sp,sp,12
 840266c:	f800283a 	ret
 8402670:	00a00034 	movhi	r2,32768
 8402674:	10bfffc4 	addi	r2,r2,-1
 8402678:	2884703a 	and	r2,r5,r2
 840267c:	8084b03a 	or	r2,r16,r2
 8402680:	103fd126 	beq	r2,zero,84025c8 <__ieee754_sqrt+0x1c0>
 8402684:	283f6d26 	beq	r5,zero,840243c <__ieee754_sqrt+0x34>
 8402688:	280f883a 	mov	r7,r5
 840268c:	8009883a 	mov	r4,r16
 8402690:	800d883a 	mov	r6,r16
 8402694:	840373c0 	call	840373c <__subdf3>
 8402698:	1009883a 	mov	r4,r2
 840269c:	180b883a 	mov	r5,r3
 84026a0:	100d883a 	mov	r6,r2
 84026a4:	180f883a 	mov	r7,r3
 84026a8:	8403bf40 	call	8403bf4 <__divdf3>
 84026ac:	1021883a 	mov	r16,r2
 84026b0:	1823883a 	mov	r17,r3
 84026b4:	003fc406 	br	84025c8 <__ieee754_sqrt+0x1c0>
 84026b8:	29400044 	addi	r5,r5,1
 84026bc:	000f883a 	mov	r7,zero
 84026c0:	003fb506 	br	8402598 <__ieee754_sqrt+0x190>
 84026c4:	0009883a 	mov	r4,zero
 84026c8:	00800804 	movi	r2,32
 84026cc:	003f6b06 	br	840247c <__ieee754_sqrt+0x74>

084026d0 <fabs>:
 84026d0:	01e00034 	movhi	r7,32768
 84026d4:	39ffffc4 	addi	r7,r7,-1
 84026d8:	394e703a 	and	r7,r7,r5
 84026dc:	2005883a 	mov	r2,r4
 84026e0:	3807883a 	mov	r3,r7
 84026e4:	f800283a 	ret

084026e8 <finite>:
 84026e8:	00a00034 	movhi	r2,32768
 84026ec:	10bfffc4 	addi	r2,r2,-1
 84026f0:	2884703a 	and	r2,r5,r2
 84026f4:	01600434 	movhi	r5,32784
 84026f8:	1145883a 	add	r2,r2,r5
 84026fc:	1004d7fa 	srli	r2,r2,31
 8402700:	f800283a 	ret

08402704 <__isnand>:
 8402704:	200d883a 	mov	r6,r4
 8402708:	0109c83a 	sub	r4,zero,r4
 840270c:	2188b03a 	or	r4,r4,r6
 8402710:	2008d7fa 	srli	r4,r4,31
 8402714:	00a00034 	movhi	r2,32768
 8402718:	10bfffc4 	addi	r2,r2,-1
 840271c:	1144703a 	and	r2,r2,r5
 8402720:	2088b03a 	or	r4,r4,r2
 8402724:	009ffc34 	movhi	r2,32752
 8402728:	1105c83a 	sub	r2,r2,r4
 840272c:	1004d7fa 	srli	r2,r2,31
 8402730:	f800283a 	ret

08402734 <matherr>:
 8402734:	0005883a 	mov	r2,zero
 8402738:	f800283a 	ret

0840273c <nan>:
 840273c:	015ffe34 	movhi	r5,32760
 8402740:	0005883a 	mov	r2,zero
 8402744:	2807883a 	mov	r3,r5
 8402748:	f800283a 	ret

0840274c <rint>:
 840274c:	2015883a 	mov	r10,r4
 8402750:	2809d53a 	srai	r4,r5,20
 8402754:	defff904 	addi	sp,sp,-28
 8402758:	034004c4 	movi	r13,19
 840275c:	2101ffcc 	andi	r4,r4,2047
 8402760:	227f0044 	addi	r9,r4,-1023
 8402764:	dc800415 	stw	r18,16(sp)
 8402768:	dfc00615 	stw	ra,24(sp)
 840276c:	dcc00515 	stw	r19,20(sp)
 8402770:	dc400315 	stw	r17,12(sp)
 8402774:	dc000215 	stw	r16,8(sp)
 8402778:	2817883a 	mov	r11,r5
 840277c:	500d883a 	mov	r6,r10
 8402780:	2824d7fa 	srli	r18,r5,31
 8402784:	6a403016 	blt	r13,r9,8402848 <rint+0xfc>
 8402788:	48004916 	blt	r9,zero,84028b0 <rint+0x164>
 840278c:	00800434 	movhi	r2,16
 8402790:	10bfffc4 	addi	r2,r2,-1
 8402794:	1247d83a 	sra	r3,r2,r9
 8402798:	2809883a 	mov	r4,r5
 840279c:	1944703a 	and	r2,r3,r5
 84027a0:	5084b03a 	or	r2,r10,r2
 84027a4:	10001f26 	beq	r2,zero,8402824 <rint+0xd8>
 84027a8:	180ad07a 	srli	r5,r3,1
 84027ac:	5944703a 	and	r2,r11,r5
 84027b0:	5084b03a 	or	r2,r10,r2
 84027b4:	10000626 	beq	r2,zero,84027d0 <rint+0x84>
 84027b8:	4b406626 	beq	r9,r13,8402954 <rint+0x208>
 84027bc:	00c000b4 	movhi	r3,2
 84027c0:	1a47d83a 	sra	r3,r3,r9
 84027c4:	0144303a 	nor	r2,zero,r5
 84027c8:	5884703a 	and	r2,r11,r2
 84027cc:	10c8b03a 	or	r4,r2,r3
 84027d0:	900690fa 	slli	r3,r18,3
 84027d4:	00821074 	movhi	r2,2113
 84027d8:	10865504 	addi	r2,r2,6484
 84027dc:	200f883a 	mov	r7,r4
 84027e0:	1887883a 	add	r3,r3,r2
 84027e4:	1c000017 	ldw	r16,0(r3)
 84027e8:	1c400117 	ldw	r17,4(r3)
 84027ec:	8009883a 	mov	r4,r16
 84027f0:	880b883a 	mov	r5,r17
 84027f4:	84037bc0 	call	84037bc <__adddf3>
 84027f8:	d8800015 	stw	r2,0(sp)
 84027fc:	d8c00115 	stw	r3,4(sp)
 8402800:	d8800017 	ldw	r2,0(sp)
 8402804:	d8c00117 	ldw	r3,4(sp)
 8402808:	880f883a 	mov	r7,r17
 840280c:	800d883a 	mov	r6,r16
 8402810:	180b883a 	mov	r5,r3
 8402814:	1009883a 	mov	r4,r2
 8402818:	840373c0 	call	840373c <__subdf3>
 840281c:	1015883a 	mov	r10,r2
 8402820:	1817883a 	mov	r11,r3
 8402824:	5005883a 	mov	r2,r10
 8402828:	5807883a 	mov	r3,r11
 840282c:	dfc00617 	ldw	ra,24(sp)
 8402830:	dcc00517 	ldw	r19,20(sp)
 8402834:	dc800417 	ldw	r18,16(sp)
 8402838:	dc400317 	ldw	r17,12(sp)
 840283c:	dc000217 	ldw	r16,8(sp)
 8402840:	dec00704 	addi	sp,sp,28
 8402844:	f800283a 	ret
 8402848:	00800cc4 	movi	r2,51
 840284c:	12400f16 	blt	r2,r9,840288c <rint+0x140>
 8402850:	213efb44 	addi	r4,r4,-1043
 8402854:	00bfffc4 	movi	r2,-1
 8402858:	1104d83a 	srl	r2,r2,r4
 840285c:	5086703a 	and	r3,r10,r2
 8402860:	183ff026 	beq	r3,zero,8402824 <rint+0xd8>
 8402864:	100ad07a 	srli	r5,r2,1
 8402868:	5144703a 	and	r2,r10,r5
 840286c:	10000526 	beq	r2,zero,8402884 <rint+0x138>
 8402870:	00d00034 	movhi	r3,16384
 8402874:	1907d83a 	sra	r3,r3,r4
 8402878:	0144303a 	nor	r2,zero,r5
 840287c:	5084703a 	and	r2,r10,r2
 8402880:	10ccb03a 	or	r6,r2,r3
 8402884:	5809883a 	mov	r4,r11
 8402888:	003fd106 	br	84027d0 <rint+0x84>
 840288c:	00810004 	movi	r2,1024
 8402890:	48bfe41e 	bne	r9,r2,8402824 <rint+0xd8>
 8402894:	5009883a 	mov	r4,r10
 8402898:	500d883a 	mov	r6,r10
 840289c:	280f883a 	mov	r7,r5
 84028a0:	84037bc0 	call	84037bc <__adddf3>
 84028a4:	1015883a 	mov	r10,r2
 84028a8:	1817883a 	mov	r11,r3
 84028ac:	003fdd06 	br	8402824 <rint+0xd8>
 84028b0:	04e00034 	movhi	r19,32768
 84028b4:	9cffffc4 	addi	r19,r19,-1
 84028b8:	2cc4703a 	and	r2,r5,r19
 84028bc:	5084b03a 	or	r2,r10,r2
 84028c0:	103fd826 	beq	r2,zero,8402824 <rint+0xd8>
 84028c4:	00c00434 	movhi	r3,16
 84028c8:	18ffffc4 	addi	r3,r3,-1
 84028cc:	28c6703a 	and	r3,r5,r3
 84028d0:	50c6b03a 	or	r3,r10,r3
 84028d4:	00cdc83a 	sub	r6,zero,r3
 84028d8:	900a90fa 	slli	r5,r18,3
 84028dc:	1986b03a 	or	r3,r3,r6
 84028e0:	01021074 	movhi	r4,2113
 84028e4:	21065504 	addi	r4,r4,6484
 84028e8:	1806d33a 	srli	r3,r3,12
 84028ec:	290b883a 	add	r5,r5,r4
 84028f0:	2c000017 	ldw	r16,0(r5)
 84028f4:	2c400117 	ldw	r17,4(r5)
 84028f8:	593fffac 	andhi	r4,r11,65534
 84028fc:	18c0022c 	andhi	r3,r3,8
 8402900:	1906b03a 	or	r3,r3,r4
 8402904:	500d883a 	mov	r6,r10
 8402908:	180f883a 	mov	r7,r3
 840290c:	8009883a 	mov	r4,r16
 8402910:	880b883a 	mov	r5,r17
 8402914:	84037bc0 	call	84037bc <__adddf3>
 8402918:	d8800015 	stw	r2,0(sp)
 840291c:	d8c00115 	stw	r3,4(sp)
 8402920:	d8800017 	ldw	r2,0(sp)
 8402924:	d8c00117 	ldw	r3,4(sp)
 8402928:	880f883a 	mov	r7,r17
 840292c:	800d883a 	mov	r6,r16
 8402930:	180b883a 	mov	r5,r3
 8402934:	1009883a 	mov	r4,r2
 8402938:	840373c0 	call	840373c <__subdf3>
 840293c:	901297fa 	slli	r9,r18,31
 8402940:	98d0703a 	and	r8,r19,r3
 8402944:	1015883a 	mov	r10,r2
 8402948:	4250b03a 	or	r8,r8,r9
 840294c:	4017883a 	mov	r11,r8
 8402950:	003fb406 	br	8402824 <rint+0xd8>
 8402954:	01900034 	movhi	r6,16384
 8402958:	003f9d06 	br	84027d0 <rint+0x84>

0840295c <scalbn>:
 840295c:	2011883a 	mov	r8,r4
 8402960:	291ffc2c 	andhi	r4,r5,32752
 8402964:	2009d53a 	srai	r4,r4,20
 8402968:	defffd04 	addi	sp,sp,-12
 840296c:	dc000015 	stw	r16,0(sp)
 8402970:	dfc00215 	stw	ra,8(sp)
 8402974:	dc400115 	stw	r17,4(sp)
 8402978:	2813883a 	mov	r9,r5
 840297c:	2815883a 	mov	r10,r5
 8402980:	3021883a 	mov	r16,r6
 8402984:	2000281e 	bne	r4,zero,8402a28 <scalbn+0xcc>
 8402988:	00a00034 	movhi	r2,32768
 840298c:	10bfffc4 	addi	r2,r2,-1
 8402990:	2884703a 	and	r2,r5,r2
 8402994:	4084b03a 	or	r2,r8,r2
 8402998:	10001826 	beq	r2,zero,84029fc <scalbn+0xa0>
 840299c:	0005883a 	mov	r2,zero
 84029a0:	00d0d434 	movhi	r3,17232
 84029a4:	4009883a 	mov	r4,r8
 84029a8:	100d883a 	mov	r6,r2
 84029ac:	180f883a 	mov	r7,r3
 84029b0:	84038300 	call	8403830 <__muldf3>
 84029b4:	100b883a 	mov	r5,r2
 84029b8:	1011883a 	mov	r8,r2
 84029bc:	00bffff4 	movhi	r2,65535
 84029c0:	108f2c04 	addi	r2,r2,15536
 84029c4:	180d883a 	mov	r6,r3
 84029c8:	1813883a 	mov	r9,r3
 84029cc:	8080120e 	bge	r16,r2,8402a18 <scalbn+0xbc>
 84029d0:	00b0be74 	movhi	r2,49913
 84029d4:	10bcd644 	addi	r2,r2,-3239
 84029d8:	00c06974 	movhi	r3,421
 84029dc:	18db87c4 	addi	r3,r3,28191
 84029e0:	2809883a 	mov	r4,r5
 84029e4:	180f883a 	mov	r7,r3
 84029e8:	300b883a 	mov	r5,r6
 84029ec:	100d883a 	mov	r6,r2
 84029f0:	84038300 	call	8403830 <__muldf3>
 84029f4:	1011883a 	mov	r8,r2
 84029f8:	1813883a 	mov	r9,r3
 84029fc:	4005883a 	mov	r2,r8
 8402a00:	4807883a 	mov	r3,r9
 8402a04:	dfc00217 	ldw	ra,8(sp)
 8402a08:	dc400117 	ldw	r17,4(sp)
 8402a0c:	dc000017 	ldw	r16,0(sp)
 8402a10:	dec00304 	addi	sp,sp,12
 8402a14:	f800283a 	ret
 8402a18:	189ffc2c 	andhi	r2,r3,32752
 8402a1c:	1005d53a 	srai	r2,r2,20
 8402a20:	1815883a 	mov	r10,r3
 8402a24:	113ff284 	addi	r4,r2,-54
 8402a28:	0081ffc4 	movi	r2,2047
 8402a2c:	20801126 	beq	r4,r2,8402a74 <scalbn+0x118>
 8402a30:	2409883a 	add	r4,r4,r16
 8402a34:	0081ff84 	movi	r2,2046
 8402a38:	11001c16 	blt	r2,r4,8402aac <scalbn+0x150>
 8402a3c:	0100290e 	bge	zero,r4,8402ae4 <scalbn+0x188>
 8402a40:	200a953a 	slli	r5,r4,20
 8402a44:	01200434 	movhi	r4,32784
 8402a48:	213fffc4 	addi	r4,r4,-1
 8402a4c:	5108703a 	and	r4,r10,r4
 8402a50:	2148b03a 	or	r4,r4,r5
 8402a54:	2013883a 	mov	r9,r4
 8402a58:	4005883a 	mov	r2,r8
 8402a5c:	4807883a 	mov	r3,r9
 8402a60:	dfc00217 	ldw	ra,8(sp)
 8402a64:	dc400117 	ldw	r17,4(sp)
 8402a68:	dc000017 	ldw	r16,0(sp)
 8402a6c:	dec00304 	addi	sp,sp,12
 8402a70:	f800283a 	ret
 8402a74:	480f883a 	mov	r7,r9
 8402a78:	4009883a 	mov	r4,r8
 8402a7c:	480b883a 	mov	r5,r9
 8402a80:	400d883a 	mov	r6,r8
 8402a84:	84037bc0 	call	84037bc <__adddf3>
 8402a88:	1011883a 	mov	r8,r2
 8402a8c:	1813883a 	mov	r9,r3
 8402a90:	4005883a 	mov	r2,r8
 8402a94:	4807883a 	mov	r3,r9
 8402a98:	dfc00217 	ldw	ra,8(sp)
 8402a9c:	dc400117 	ldw	r17,4(sp)
 8402aa0:	dc000017 	ldw	r16,0(sp)
 8402aa4:	dec00304 	addi	sp,sp,12
 8402aa8:	f800283a 	ret
 8402aac:	04220034 	movhi	r16,34816
 8402ab0:	841d6704 	addi	r16,r16,30108
 8402ab4:	045f8e34 	movhi	r17,32312
 8402ab8:	8c790f04 	addi	r17,r17,-7108
 8402abc:	480f883a 	mov	r7,r9
 8402ac0:	400d883a 	mov	r6,r8
 8402ac4:	8009883a 	mov	r4,r16
 8402ac8:	880b883a 	mov	r5,r17
 8402acc:	8402b3c0 	call	8402b3c <copysign>
 8402ad0:	180b883a 	mov	r5,r3
 8402ad4:	800d883a 	mov	r6,r16
 8402ad8:	880f883a 	mov	r7,r17
 8402adc:	1009883a 	mov	r4,r2
 8402ae0:	003fc306 	br	84029f0 <scalbn+0x94>
 8402ae4:	00bff284 	movi	r2,-54
 8402ae8:	11000716 	blt	r2,r4,8402b08 <scalbn+0x1ac>
 8402aec:	00b0d414 	movui	r2,50000
 8402af0:	143fee16 	blt	r2,r16,8402aac <scalbn+0x150>
 8402af4:	0430be74 	movhi	r16,49913
 8402af8:	843cd644 	addi	r16,r16,-3239
 8402afc:	04406974 	movhi	r17,421
 8402b00:	8c5b87c4 	addi	r17,r17,28191
 8402b04:	003fed06 	br	8402abc <scalbn+0x160>
 8402b08:	21000d84 	addi	r4,r4,54
 8402b0c:	2008953a 	slli	r4,r4,20
 8402b10:	01e00434 	movhi	r7,32784
 8402b14:	39ffffc4 	addi	r7,r7,-1
 8402b18:	51ce703a 	and	r7,r10,r7
 8402b1c:	390eb03a 	or	r7,r7,r4
 8402b20:	024f2434 	movhi	r9,15504
 8402b24:	4009883a 	mov	r4,r8
 8402b28:	0011883a 	mov	r8,zero
 8402b2c:	380b883a 	mov	r5,r7
 8402b30:	400d883a 	mov	r6,r8
 8402b34:	480f883a 	mov	r7,r9
 8402b38:	003fad06 	br	84029f0 <scalbn+0x94>

08402b3c <copysign>:
 8402b3c:	3813883a 	mov	r9,r7
 8402b40:	01e00034 	movhi	r7,32768
 8402b44:	39ffffc4 	addi	r7,r7,-1
 8402b48:	394e703a 	and	r7,r7,r5
 8402b4c:	4aa0002c 	andhi	r10,r9,32768
 8402b50:	3a8eb03a 	or	r7,r7,r10
 8402b54:	2005883a 	mov	r2,r4
 8402b58:	3807883a 	mov	r3,r7
 8402b5c:	f800283a 	ret

08402b60 <__fixunssfsi>:
 8402b60:	defffd04 	addi	sp,sp,-12
 8402b64:	dc000015 	stw	r16,0(sp)
 8402b68:	0413c034 	movhi	r16,20224
 8402b6c:	800b883a 	mov	r5,r16
 8402b70:	dc400115 	stw	r17,4(sp)
 8402b74:	dfc00215 	stw	ra,8(sp)
 8402b78:	2023883a 	mov	r17,r4
 8402b7c:	8402ffc0 	call	8402ffc <__gesf2>
 8402b80:	800b883a 	mov	r5,r16
 8402b84:	8809883a 	mov	r4,r17
 8402b88:	10000a16 	blt	r2,zero,8402bb4 <__fixunssfsi+0x54>
 8402b8c:	8402db40 	call	8402db4 <__subsf3>
 8402b90:	1009883a 	mov	r4,r2
 8402b94:	84031840 	call	8403184 <__fixsfsi>
 8402b98:	00e00034 	movhi	r3,32768
 8402b9c:	10c5883a 	add	r2,r2,r3
 8402ba0:	dfc00217 	ldw	ra,8(sp)
 8402ba4:	dc400117 	ldw	r17,4(sp)
 8402ba8:	dc000017 	ldw	r16,0(sp)
 8402bac:	dec00304 	addi	sp,sp,12
 8402bb0:	f800283a 	ret
 8402bb4:	8809883a 	mov	r4,r17
 8402bb8:	84031840 	call	8403184 <__fixsfsi>
 8402bbc:	dfc00217 	ldw	ra,8(sp)
 8402bc0:	dc400117 	ldw	r17,4(sp)
 8402bc4:	dc000017 	ldw	r16,0(sp)
 8402bc8:	dec00304 	addi	sp,sp,12
 8402bcc:	f800283a 	ret

08402bd0 <_fpadd_parts>:
 8402bd0:	21c00017 	ldw	r7,0(r4)
 8402bd4:	02000044 	movi	r8,1
 8402bd8:	41c0332e 	bgeu	r8,r7,8402ca8 <_fpadd_parts+0xd8>
 8402bdc:	28800017 	ldw	r2,0(r5)
 8402be0:	4080462e 	bgeu	r8,r2,8402cfc <_fpadd_parts+0x12c>
 8402be4:	00c00104 	movi	r3,4
 8402be8:	38c06b26 	beq	r7,r3,8402d98 <_fpadd_parts+0x1c8>
 8402bec:	10c04326 	beq	r2,r3,8402cfc <_fpadd_parts+0x12c>
 8402bf0:	00c00084 	movi	r3,2
 8402bf4:	10c02e26 	beq	r2,r3,8402cb0 <_fpadd_parts+0xe0>
 8402bf8:	38c04026 	beq	r7,r3,8402cfc <_fpadd_parts+0x12c>
 8402bfc:	22800217 	ldw	r10,8(r4)
 8402c00:	28c00217 	ldw	r3,8(r5)
 8402c04:	23000317 	ldw	r12,12(r4)
 8402c08:	2a400317 	ldw	r9,12(r5)
 8402c0c:	50cfc83a 	sub	r7,r10,r3
 8402c10:	3817883a 	mov	r11,r7
 8402c14:	38004f16 	blt	r7,zero,8402d54 <_fpadd_parts+0x184>
 8402c18:	008007c4 	movi	r2,31
 8402c1c:	11c03316 	blt	r2,r7,8402cec <_fpadd_parts+0x11c>
 8402c20:	02c0540e 	bge	zero,r11,8402d74 <_fpadd_parts+0x1a4>
 8402c24:	41c4983a 	sll	r2,r8,r7
 8402c28:	49c6d83a 	srl	r3,r9,r7
 8402c2c:	10bfffc4 	addi	r2,r2,-1
 8402c30:	4884703a 	and	r2,r9,r2
 8402c34:	1004c03a 	cmpne	r2,r2,zero
 8402c38:	1892b03a 	or	r9,r3,r2
 8402c3c:	20c00117 	ldw	r3,4(r4)
 8402c40:	28800117 	ldw	r2,4(r5)
 8402c44:	18803c26 	beq	r3,r2,8402d38 <_fpadd_parts+0x168>
 8402c48:	18002f26 	beq	r3,zero,8402d08 <_fpadd_parts+0x138>
 8402c4c:	4b05c83a 	sub	r2,r9,r12
 8402c50:	10004216 	blt	r2,zero,8402d5c <_fpadd_parts+0x18c>
 8402c54:	32800215 	stw	r10,8(r6)
 8402c58:	30800315 	stw	r2,12(r6)
 8402c5c:	30000115 	stw	zero,4(r6)
 8402c60:	31000317 	ldw	r4,12(r6)
 8402c64:	01d00034 	movhi	r7,16384
 8402c68:	39ffff84 	addi	r7,r7,-2
 8402c6c:	20bfffc4 	addi	r2,r4,-1
 8402c70:	2007883a 	mov	r3,r4
 8402c74:	38800836 	bltu	r7,r2,8402c98 <_fpadd_parts+0xc8>
 8402c78:	31400217 	ldw	r5,8(r6)
 8402c7c:	18c9883a 	add	r4,r3,r3
 8402c80:	20bfffc4 	addi	r2,r4,-1
 8402c84:	297fffc4 	addi	r5,r5,-1
 8402c88:	2007883a 	mov	r3,r4
 8402c8c:	38bffb2e 	bgeu	r7,r2,8402c7c <_fpadd_parts+0xac>
 8402c90:	31400215 	stw	r5,8(r6)
 8402c94:	31000315 	stw	r4,12(r6)
 8402c98:	008000c4 	movi	r2,3
 8402c9c:	30800015 	stw	r2,0(r6)
 8402ca0:	20001b16 	blt	r4,zero,8402d10 <_fpadd_parts+0x140>
 8402ca4:	3009883a 	mov	r4,r6
 8402ca8:	2005883a 	mov	r2,r4
 8402cac:	f800283a 	ret
 8402cb0:	38fffd1e 	bne	r7,r3,8402ca8 <_fpadd_parts+0xd8>
 8402cb4:	31c00015 	stw	r7,0(r6)
 8402cb8:	20800117 	ldw	r2,4(r4)
 8402cbc:	30800115 	stw	r2,4(r6)
 8402cc0:	20c00217 	ldw	r3,8(r4)
 8402cc4:	30c00215 	stw	r3,8(r6)
 8402cc8:	20800317 	ldw	r2,12(r4)
 8402ccc:	30800315 	stw	r2,12(r6)
 8402cd0:	20c00117 	ldw	r3,4(r4)
 8402cd4:	28800117 	ldw	r2,4(r5)
 8402cd8:	3009883a 	mov	r4,r6
 8402cdc:	1886703a 	and	r3,r3,r2
 8402ce0:	2005883a 	mov	r2,r4
 8402ce4:	30c00115 	stw	r3,4(r6)
 8402ce8:	f800283a 	ret
 8402cec:	1a801716 	blt	r3,r10,8402d4c <_fpadd_parts+0x17c>
 8402cf0:	1815883a 	mov	r10,r3
 8402cf4:	0019883a 	mov	r12,zero
 8402cf8:	003fd006 	br	8402c3c <_fpadd_parts+0x6c>
 8402cfc:	2809883a 	mov	r4,r5
 8402d00:	2005883a 	mov	r2,r4
 8402d04:	f800283a 	ret
 8402d08:	6245c83a 	sub	r2,r12,r9
 8402d0c:	003fd006 	br	8402c50 <_fpadd_parts+0x80>
 8402d10:	30800217 	ldw	r2,8(r6)
 8402d14:	2006d07a 	srli	r3,r4,1
 8402d18:	2100004c 	andi	r4,r4,1
 8402d1c:	10800044 	addi	r2,r2,1
 8402d20:	1906b03a 	or	r3,r3,r4
 8402d24:	3009883a 	mov	r4,r6
 8402d28:	30800215 	stw	r2,8(r6)
 8402d2c:	2005883a 	mov	r2,r4
 8402d30:	30c00315 	stw	r3,12(r6)
 8402d34:	f800283a 	ret
 8402d38:	4b09883a 	add	r4,r9,r12
 8402d3c:	30c00115 	stw	r3,4(r6)
 8402d40:	32800215 	stw	r10,8(r6)
 8402d44:	31000315 	stw	r4,12(r6)
 8402d48:	003fd306 	br	8402c98 <_fpadd_parts+0xc8>
 8402d4c:	0013883a 	mov	r9,zero
 8402d50:	003fba06 	br	8402c3c <_fpadd_parts+0x6c>
 8402d54:	01cfc83a 	sub	r7,zero,r7
 8402d58:	003faf06 	br	8402c18 <_fpadd_parts+0x48>
 8402d5c:	0089c83a 	sub	r4,zero,r2
 8402d60:	00800044 	movi	r2,1
 8402d64:	30800115 	stw	r2,4(r6)
 8402d68:	32800215 	stw	r10,8(r6)
 8402d6c:	31000315 	stw	r4,12(r6)
 8402d70:	003fbb06 	br	8402c60 <_fpadd_parts+0x90>
 8402d74:	583fb126 	beq	r11,zero,8402c3c <_fpadd_parts+0x6c>
 8402d78:	41c4983a 	sll	r2,r8,r7
 8402d7c:	61c6d83a 	srl	r3,r12,r7
 8402d80:	51d5883a 	add	r10,r10,r7
 8402d84:	10bfffc4 	addi	r2,r2,-1
 8402d88:	6084703a 	and	r2,r12,r2
 8402d8c:	1004c03a 	cmpne	r2,r2,zero
 8402d90:	1898b03a 	or	r12,r3,r2
 8402d94:	003fa906 	br	8402c3c <_fpadd_parts+0x6c>
 8402d98:	11ffc31e 	bne	r2,r7,8402ca8 <_fpadd_parts+0xd8>
 8402d9c:	28c00117 	ldw	r3,4(r5)
 8402da0:	20800117 	ldw	r2,4(r4)
 8402da4:	10ffc026 	beq	r2,r3,8402ca8 <_fpadd_parts+0xd8>
 8402da8:	01021074 	movhi	r4,2113
 8402dac:	21065904 	addi	r4,r4,6500
 8402db0:	003fbd06 	br	8402ca8 <_fpadd_parts+0xd8>

08402db4 <__subsf3>:
 8402db4:	deffef04 	addi	sp,sp,-68
 8402db8:	dcc00f15 	stw	r19,60(sp)
 8402dbc:	dcc00204 	addi	r19,sp,8
 8402dc0:	dc400e15 	stw	r17,56(sp)
 8402dc4:	d9000015 	stw	r4,0(sp)
 8402dc8:	d9400115 	stw	r5,4(sp)
 8402dcc:	d809883a 	mov	r4,sp
 8402dd0:	980b883a 	mov	r5,r19
 8402dd4:	dc400604 	addi	r17,sp,24
 8402dd8:	dfc01015 	stw	ra,64(sp)
 8402ddc:	840465c0 	call	840465c <__unpack_f>
 8402de0:	d9000104 	addi	r4,sp,4
 8402de4:	880b883a 	mov	r5,r17
 8402de8:	840465c0 	call	840465c <__unpack_f>
 8402dec:	d8800717 	ldw	r2,28(sp)
 8402df0:	9809883a 	mov	r4,r19
 8402df4:	880b883a 	mov	r5,r17
 8402df8:	d9800a04 	addi	r6,sp,40
 8402dfc:	1080005c 	xori	r2,r2,1
 8402e00:	d8800715 	stw	r2,28(sp)
 8402e04:	8402bd00 	call	8402bd0 <_fpadd_parts>
 8402e08:	1009883a 	mov	r4,r2
 8402e0c:	84044fc0 	call	84044fc <__pack_f>
 8402e10:	dfc01017 	ldw	ra,64(sp)
 8402e14:	dcc00f17 	ldw	r19,60(sp)
 8402e18:	dc400e17 	ldw	r17,56(sp)
 8402e1c:	dec01104 	addi	sp,sp,68
 8402e20:	f800283a 	ret

08402e24 <__addsf3>:
 8402e24:	deffef04 	addi	sp,sp,-68
 8402e28:	dcc00f15 	stw	r19,60(sp)
 8402e2c:	dcc00204 	addi	r19,sp,8
 8402e30:	dc400e15 	stw	r17,56(sp)
 8402e34:	d9000015 	stw	r4,0(sp)
 8402e38:	d9400115 	stw	r5,4(sp)
 8402e3c:	d809883a 	mov	r4,sp
 8402e40:	980b883a 	mov	r5,r19
 8402e44:	dc400604 	addi	r17,sp,24
 8402e48:	dfc01015 	stw	ra,64(sp)
 8402e4c:	840465c0 	call	840465c <__unpack_f>
 8402e50:	d9000104 	addi	r4,sp,4
 8402e54:	880b883a 	mov	r5,r17
 8402e58:	840465c0 	call	840465c <__unpack_f>
 8402e5c:	d9800a04 	addi	r6,sp,40
 8402e60:	9809883a 	mov	r4,r19
 8402e64:	880b883a 	mov	r5,r17
 8402e68:	8402bd00 	call	8402bd0 <_fpadd_parts>
 8402e6c:	1009883a 	mov	r4,r2
 8402e70:	84044fc0 	call	84044fc <__pack_f>
 8402e74:	dfc01017 	ldw	ra,64(sp)
 8402e78:	dcc00f17 	ldw	r19,60(sp)
 8402e7c:	dc400e17 	ldw	r17,56(sp)
 8402e80:	dec01104 	addi	sp,sp,68
 8402e84:	f800283a 	ret

08402e88 <__divsf3>:
 8402e88:	defff304 	addi	sp,sp,-52
 8402e8c:	dc400b15 	stw	r17,44(sp)
 8402e90:	dc400204 	addi	r17,sp,8
 8402e94:	dc000a15 	stw	r16,40(sp)
 8402e98:	d9000015 	stw	r4,0(sp)
 8402e9c:	d9400115 	stw	r5,4(sp)
 8402ea0:	d809883a 	mov	r4,sp
 8402ea4:	880b883a 	mov	r5,r17
 8402ea8:	dc000604 	addi	r16,sp,24
 8402eac:	dfc00c15 	stw	ra,48(sp)
 8402eb0:	840465c0 	call	840465c <__unpack_f>
 8402eb4:	d9000104 	addi	r4,sp,4
 8402eb8:	800b883a 	mov	r5,r16
 8402ebc:	840465c0 	call	840465c <__unpack_f>
 8402ec0:	d9000217 	ldw	r4,8(sp)
 8402ec4:	00800044 	movi	r2,1
 8402ec8:	01800104 	movi	r6,4
 8402ecc:	11000a2e 	bgeu	r2,r4,8402ef8 <__divsf3+0x70>
 8402ed0:	d9400617 	ldw	r5,24(sp)
 8402ed4:	1140432e 	bgeu	r2,r5,8402fe4 <__divsf3+0x15c>
 8402ed8:	d8800317 	ldw	r2,12(sp)
 8402edc:	d8c00717 	ldw	r3,28(sp)
 8402ee0:	10c4f03a 	xor	r2,r2,r3
 8402ee4:	d8800315 	stw	r2,12(sp)
 8402ee8:	21800226 	beq	r4,r6,8402ef4 <__divsf3+0x6c>
 8402eec:	00800084 	movi	r2,2
 8402ef0:	2080101e 	bne	r4,r2,8402f34 <__divsf3+0xac>
 8402ef4:	29000726 	beq	r5,r4,8402f14 <__divsf3+0x8c>
 8402ef8:	8809883a 	mov	r4,r17
 8402efc:	84044fc0 	call	84044fc <__pack_f>
 8402f00:	dfc00c17 	ldw	ra,48(sp)
 8402f04:	dc400b17 	ldw	r17,44(sp)
 8402f08:	dc000a17 	ldw	r16,40(sp)
 8402f0c:	dec00d04 	addi	sp,sp,52
 8402f10:	f800283a 	ret
 8402f14:	01021074 	movhi	r4,2113
 8402f18:	21065904 	addi	r4,r4,6500
 8402f1c:	84044fc0 	call	84044fc <__pack_f>
 8402f20:	dfc00c17 	ldw	ra,48(sp)
 8402f24:	dc400b17 	ldw	r17,44(sp)
 8402f28:	dc000a17 	ldw	r16,40(sp)
 8402f2c:	dec00d04 	addi	sp,sp,52
 8402f30:	f800283a 	ret
 8402f34:	29802d26 	beq	r5,r6,8402fec <__divsf3+0x164>
 8402f38:	28801a26 	beq	r5,r2,8402fa4 <__divsf3+0x11c>
 8402f3c:	d8c00417 	ldw	r3,16(sp)
 8402f40:	d8800817 	ldw	r2,32(sp)
 8402f44:	d9000517 	ldw	r4,20(sp)
 8402f48:	d9800917 	ldw	r6,36(sp)
 8402f4c:	1885c83a 	sub	r2,r3,r2
 8402f50:	d8800415 	stw	r2,16(sp)
 8402f54:	2180032e 	bgeu	r4,r6,8402f64 <__divsf3+0xdc>
 8402f58:	10bfffc4 	addi	r2,r2,-1
 8402f5c:	d8800415 	stw	r2,16(sp)
 8402f60:	2109883a 	add	r4,r4,r4
 8402f64:	01500034 	movhi	r5,16384
 8402f68:	0007883a 	mov	r3,zero
 8402f6c:	0005883a 	mov	r2,zero
 8402f70:	01c007c4 	movi	r7,31
 8402f74:	10800044 	addi	r2,r2,1
 8402f78:	21800236 	bltu	r4,r6,8402f84 <__divsf3+0xfc>
 8402f7c:	1946b03a 	or	r3,r3,r5
 8402f80:	2189c83a 	sub	r4,r4,r6
 8402f84:	280ad07a 	srli	r5,r5,1
 8402f88:	2109883a 	add	r4,r4,r4
 8402f8c:	11fff91e 	bne	r2,r7,8402f74 <__divsf3+0xec>
 8402f90:	19401fcc 	andi	r5,r3,127
 8402f94:	00801004 	movi	r2,64
 8402f98:	28800a26 	beq	r5,r2,8402fc4 <__divsf3+0x13c>
 8402f9c:	d8c00515 	stw	r3,20(sp)
 8402fa0:	003fd506 	br	8402ef8 <__divsf3+0x70>
 8402fa4:	8809883a 	mov	r4,r17
 8402fa8:	d9800215 	stw	r6,8(sp)
 8402fac:	84044fc0 	call	84044fc <__pack_f>
 8402fb0:	dfc00c17 	ldw	ra,48(sp)
 8402fb4:	dc400b17 	ldw	r17,44(sp)
 8402fb8:	dc000a17 	ldw	r16,40(sp)
 8402fbc:	dec00d04 	addi	sp,sp,52
 8402fc0:	f800283a 	ret
 8402fc4:	1880200c 	andi	r2,r3,128
 8402fc8:	103ff41e 	bne	r2,zero,8402f9c <__divsf3+0x114>
 8402fcc:	203ff326 	beq	r4,zero,8402f9c <__divsf3+0x114>
 8402fd0:	1947883a 	add	r3,r3,r5
 8402fd4:	00bfe004 	movi	r2,-128
 8402fd8:	1886703a 	and	r3,r3,r2
 8402fdc:	d8c00515 	stw	r3,20(sp)
 8402fe0:	003fc506 	br	8402ef8 <__divsf3+0x70>
 8402fe4:	8009883a 	mov	r4,r16
 8402fe8:	003fc406 	br	8402efc <__divsf3+0x74>
 8402fec:	8809883a 	mov	r4,r17
 8402ff0:	d8000515 	stw	zero,20(sp)
 8402ff4:	d8000415 	stw	zero,16(sp)
 8402ff8:	003fc006 	br	8402efc <__divsf3+0x74>

08402ffc <__gesf2>:
 8402ffc:	defff304 	addi	sp,sp,-52
 8403000:	dc400b15 	stw	r17,44(sp)
 8403004:	dc400204 	addi	r17,sp,8
 8403008:	dc000a15 	stw	r16,40(sp)
 840300c:	d9000015 	stw	r4,0(sp)
 8403010:	d9400115 	stw	r5,4(sp)
 8403014:	d809883a 	mov	r4,sp
 8403018:	880b883a 	mov	r5,r17
 840301c:	dc000604 	addi	r16,sp,24
 8403020:	dfc00c15 	stw	ra,48(sp)
 8403024:	840465c0 	call	840465c <__unpack_f>
 8403028:	d9000104 	addi	r4,sp,4
 840302c:	800b883a 	mov	r5,r16
 8403030:	840465c0 	call	840465c <__unpack_f>
 8403034:	d8800217 	ldw	r2,8(sp)
 8403038:	00c00044 	movi	r3,1
 840303c:	01bfffc4 	movi	r6,-1
 8403040:	1880062e 	bgeu	r3,r2,840305c <__gesf2+0x60>
 8403044:	d8800617 	ldw	r2,24(sp)
 8403048:	8809883a 	mov	r4,r17
 840304c:	800b883a 	mov	r5,r16
 8403050:	1880022e 	bgeu	r3,r2,840305c <__gesf2+0x60>
 8403054:	84047240 	call	8404724 <__fpcmp_parts_f>
 8403058:	100d883a 	mov	r6,r2
 840305c:	3005883a 	mov	r2,r6
 8403060:	dfc00c17 	ldw	ra,48(sp)
 8403064:	dc400b17 	ldw	r17,44(sp)
 8403068:	dc000a17 	ldw	r16,40(sp)
 840306c:	dec00d04 	addi	sp,sp,52
 8403070:	f800283a 	ret

08403074 <__lesf2>:
 8403074:	defff304 	addi	sp,sp,-52
 8403078:	dc400b15 	stw	r17,44(sp)
 840307c:	dc400204 	addi	r17,sp,8
 8403080:	dc000a15 	stw	r16,40(sp)
 8403084:	d9000015 	stw	r4,0(sp)
 8403088:	d9400115 	stw	r5,4(sp)
 840308c:	d809883a 	mov	r4,sp
 8403090:	880b883a 	mov	r5,r17
 8403094:	dc000604 	addi	r16,sp,24
 8403098:	dfc00c15 	stw	ra,48(sp)
 840309c:	840465c0 	call	840465c <__unpack_f>
 84030a0:	d9000104 	addi	r4,sp,4
 84030a4:	800b883a 	mov	r5,r16
 84030a8:	840465c0 	call	840465c <__unpack_f>
 84030ac:	d8800217 	ldw	r2,8(sp)
 84030b0:	00c00044 	movi	r3,1
 84030b4:	180d883a 	mov	r6,r3
 84030b8:	1880062e 	bgeu	r3,r2,84030d4 <__lesf2+0x60>
 84030bc:	d8800617 	ldw	r2,24(sp)
 84030c0:	8809883a 	mov	r4,r17
 84030c4:	800b883a 	mov	r5,r16
 84030c8:	1880022e 	bgeu	r3,r2,84030d4 <__lesf2+0x60>
 84030cc:	84047240 	call	8404724 <__fpcmp_parts_f>
 84030d0:	100d883a 	mov	r6,r2
 84030d4:	3005883a 	mov	r2,r6
 84030d8:	dfc00c17 	ldw	ra,48(sp)
 84030dc:	dc400b17 	ldw	r17,44(sp)
 84030e0:	dc000a17 	ldw	r16,40(sp)
 84030e4:	dec00d04 	addi	sp,sp,52
 84030e8:	f800283a 	ret

084030ec <__floatsisf>:
 84030ec:	2006d7fa 	srli	r3,r4,31
 84030f0:	defffa04 	addi	sp,sp,-24
 84030f4:	008000c4 	movi	r2,3
 84030f8:	dfc00515 	stw	ra,20(sp)
 84030fc:	dc000415 	stw	r16,16(sp)
 8403100:	d8800015 	stw	r2,0(sp)
 8403104:	d8c00115 	stw	r3,4(sp)
 8403108:	2000081e 	bne	r4,zero,840312c <__floatsisf+0x40>
 840310c:	00800084 	movi	r2,2
 8403110:	d8800015 	stw	r2,0(sp)
 8403114:	d809883a 	mov	r4,sp
 8403118:	84044fc0 	call	84044fc <__pack_f>
 840311c:	dfc00517 	ldw	ra,20(sp)
 8403120:	dc000417 	ldw	r16,16(sp)
 8403124:	dec00604 	addi	sp,sp,24
 8403128:	f800283a 	ret
 840312c:	00800784 	movi	r2,30
 8403130:	1807003a 	cmpeq	r3,r3,zero
 8403134:	d8800215 	stw	r2,8(sp)
 8403138:	18000e1e 	bne	r3,zero,8403174 <__floatsisf+0x88>
 840313c:	00a00034 	movhi	r2,32768
 8403140:	20800e26 	beq	r4,r2,840317c <__floatsisf+0x90>
 8403144:	0121c83a 	sub	r16,zero,r4
 8403148:	8009883a 	mov	r4,r16
 840314c:	dc000315 	stw	r16,12(sp)
 8403150:	840447c0 	call	840447c <__clzsi2>
 8403154:	117fffc4 	addi	r5,r2,-1
 8403158:	017fee0e 	bge	zero,r5,8403114 <__floatsisf+0x28>
 840315c:	d8800217 	ldw	r2,8(sp)
 8403160:	8146983a 	sll	r3,r16,r5
 8403164:	1145c83a 	sub	r2,r2,r5
 8403168:	d8c00315 	stw	r3,12(sp)
 840316c:	d8800215 	stw	r2,8(sp)
 8403170:	003fe806 	br	8403114 <__floatsisf+0x28>
 8403174:	2021883a 	mov	r16,r4
 8403178:	003ff306 	br	8403148 <__floatsisf+0x5c>
 840317c:	00b3c034 	movhi	r2,52992
 8403180:	003fe606 	br	840311c <__floatsisf+0x30>

08403184 <__fixsfsi>:
 8403184:	defffa04 	addi	sp,sp,-24
 8403188:	d9000015 	stw	r4,0(sp)
 840318c:	d9400104 	addi	r5,sp,4
 8403190:	d809883a 	mov	r4,sp
 8403194:	dfc00515 	stw	ra,20(sp)
 8403198:	840465c0 	call	840465c <__unpack_f>
 840319c:	d8c00117 	ldw	r3,4(sp)
 84031a0:	00800084 	movi	r2,2
 84031a4:	1880041e 	bne	r3,r2,84031b8 <__fixsfsi+0x34>
 84031a8:	0005883a 	mov	r2,zero
 84031ac:	dfc00517 	ldw	ra,20(sp)
 84031b0:	dec00604 	addi	sp,sp,24
 84031b4:	f800283a 	ret
 84031b8:	00800044 	movi	r2,1
 84031bc:	10fffa2e 	bgeu	r2,r3,84031a8 <__fixsfsi+0x24>
 84031c0:	00800104 	movi	r2,4
 84031c4:	18800426 	beq	r3,r2,84031d8 <__fixsfsi+0x54>
 84031c8:	d8800317 	ldw	r2,12(sp)
 84031cc:	103ff616 	blt	r2,zero,84031a8 <__fixsfsi+0x24>
 84031d0:	00c00784 	movi	r3,30
 84031d4:	1880070e 	bge	r3,r2,84031f4 <__fixsfsi+0x70>
 84031d8:	d8800217 	ldw	r2,8(sp)
 84031dc:	10000c1e 	bne	r2,zero,8403210 <__fixsfsi+0x8c>
 84031e0:	00a00034 	movhi	r2,32768
 84031e4:	10bfffc4 	addi	r2,r2,-1
 84031e8:	dfc00517 	ldw	ra,20(sp)
 84031ec:	dec00604 	addi	sp,sp,24
 84031f0:	f800283a 	ret
 84031f4:	1885c83a 	sub	r2,r3,r2
 84031f8:	d9000217 	ldw	r4,8(sp)
 84031fc:	d8c00417 	ldw	r3,16(sp)
 8403200:	1884d83a 	srl	r2,r3,r2
 8403204:	203fe926 	beq	r4,zero,84031ac <__fixsfsi+0x28>
 8403208:	0085c83a 	sub	r2,zero,r2
 840320c:	003fe706 	br	84031ac <__fixsfsi+0x28>
 8403210:	00a00034 	movhi	r2,32768
 8403214:	003fe506 	br	84031ac <__fixsfsi+0x28>

08403218 <__extendsfdf2>:
 8403218:	defff904 	addi	sp,sp,-28
 840321c:	d9000115 	stw	r4,4(sp)
 8403220:	d9400204 	addi	r5,sp,8
 8403224:	d9000104 	addi	r4,sp,4
 8403228:	dfc00615 	stw	ra,24(sp)
 840322c:	840465c0 	call	840465c <__unpack_f>
 8403230:	d9c00517 	ldw	r7,20(sp)
 8403234:	0011883a 	mov	r8,zero
 8403238:	400697ba 	slli	r3,r8,30
 840323c:	3812d0ba 	srli	r9,r7,2
 8403240:	380497ba 	slli	r2,r7,30
 8403244:	d9000217 	ldw	r4,8(sp)
 8403248:	d9400317 	ldw	r5,12(sp)
 840324c:	d9800417 	ldw	r6,16(sp)
 8403250:	48c6b03a 	or	r3,r9,r3
 8403254:	100f883a 	mov	r7,r2
 8403258:	d8c00015 	stw	r3,0(sp)
 840325c:	84041ec0 	call	84041ec <__make_dp>
 8403260:	dfc00617 	ldw	ra,24(sp)
 8403264:	dec00704 	addi	sp,sp,28
 8403268:	f800283a 	ret

0840326c <__floatunsisf>:
 840326c:	defff904 	addi	sp,sp,-28
 8403270:	dc400515 	stw	r17,20(sp)
 8403274:	dc000415 	stw	r16,16(sp)
 8403278:	dfc00615 	stw	ra,24(sp)
 840327c:	04400784 	movi	r17,30
 8403280:	2021883a 	mov	r16,r4
 8403284:	d8000115 	stw	zero,4(sp)
 8403288:	2000091e 	bne	r4,zero,84032b0 <__floatunsisf+0x44>
 840328c:	00800084 	movi	r2,2
 8403290:	d8800015 	stw	r2,0(sp)
 8403294:	d809883a 	mov	r4,sp
 8403298:	84044fc0 	call	84044fc <__pack_f>
 840329c:	dfc00617 	ldw	ra,24(sp)
 84032a0:	dc400517 	ldw	r17,20(sp)
 84032a4:	dc000417 	ldw	r16,16(sp)
 84032a8:	dec00704 	addi	sp,sp,28
 84032ac:	f800283a 	ret
 84032b0:	008000c4 	movi	r2,3
 84032b4:	d9000315 	stw	r4,12(sp)
 84032b8:	d8800015 	stw	r2,0(sp)
 84032bc:	dc400215 	stw	r17,8(sp)
 84032c0:	840447c0 	call	840447c <__clzsi2>
 84032c4:	117fffc4 	addi	r5,r2,-1
 84032c8:	0147c83a 	sub	r3,zero,r5
 84032cc:	00800044 	movi	r2,1
 84032d0:	10c4983a 	sll	r2,r2,r3
 84032d4:	80c6d83a 	srl	r3,r16,r3
 84032d8:	8949c83a 	sub	r4,r17,r5
 84032dc:	10bfffc4 	addi	r2,r2,-1
 84032e0:	8084703a 	and	r2,r16,r2
 84032e4:	1004c03a 	cmpne	r2,r2,zero
 84032e8:	1886b03a 	or	r3,r3,r2
 84032ec:	28000c16 	blt	r5,zero,8403320 <__floatunsisf+0xb4>
 84032f0:	8144983a 	sll	r2,r16,r5
 84032f4:	8947c83a 	sub	r3,r17,r5
 84032f8:	283fe626 	beq	r5,zero,8403294 <__floatunsisf+0x28>
 84032fc:	d809883a 	mov	r4,sp
 8403300:	d8800315 	stw	r2,12(sp)
 8403304:	d8c00215 	stw	r3,8(sp)
 8403308:	84044fc0 	call	84044fc <__pack_f>
 840330c:	dfc00617 	ldw	ra,24(sp)
 8403310:	dc400517 	ldw	r17,20(sp)
 8403314:	dc000417 	ldw	r16,16(sp)
 8403318:	dec00704 	addi	sp,sp,28
 840331c:	f800283a 	ret
 8403320:	d8c00315 	stw	r3,12(sp)
 8403324:	d9000215 	stw	r4,8(sp)
 8403328:	003fda06 	br	8403294 <__floatunsisf+0x28>

0840332c <_fpadd_parts>:
 840332c:	defff804 	addi	sp,sp,-32
 8403330:	dcc00315 	stw	r19,12(sp)
 8403334:	2027883a 	mov	r19,r4
 8403338:	21000017 	ldw	r4,0(r4)
 840333c:	00c00044 	movi	r3,1
 8403340:	dd400515 	stw	r21,20(sp)
 8403344:	dd000415 	stw	r20,16(sp)
 8403348:	ddc00715 	stw	r23,28(sp)
 840334c:	dd800615 	stw	r22,24(sp)
 8403350:	dc800215 	stw	r18,8(sp)
 8403354:	dc400115 	stw	r17,4(sp)
 8403358:	dc000015 	stw	r16,0(sp)
 840335c:	282b883a 	mov	r21,r5
 8403360:	3029883a 	mov	r20,r6
 8403364:	1900632e 	bgeu	r3,r4,84034f4 <_fpadd_parts+0x1c8>
 8403368:	28800017 	ldw	r2,0(r5)
 840336c:	1880812e 	bgeu	r3,r2,8403574 <_fpadd_parts+0x248>
 8403370:	00c00104 	movi	r3,4
 8403374:	20c0dc26 	beq	r4,r3,84036e8 <_fpadd_parts+0x3bc>
 8403378:	10c07e26 	beq	r2,r3,8403574 <_fpadd_parts+0x248>
 840337c:	00c00084 	movi	r3,2
 8403380:	10c06726 	beq	r2,r3,8403520 <_fpadd_parts+0x1f4>
 8403384:	20c07b26 	beq	r4,r3,8403574 <_fpadd_parts+0x248>
 8403388:	9dc00217 	ldw	r23,8(r19)
 840338c:	28c00217 	ldw	r3,8(r5)
 8403390:	9c400317 	ldw	r17,12(r19)
 8403394:	2bc00317 	ldw	r15,12(r5)
 8403398:	b8cdc83a 	sub	r6,r23,r3
 840339c:	9c800417 	ldw	r18,16(r19)
 84033a0:	2c000417 	ldw	r16,16(r5)
 84033a4:	3009883a 	mov	r4,r6
 84033a8:	30009716 	blt	r6,zero,8403608 <_fpadd_parts+0x2dc>
 84033ac:	00800fc4 	movi	r2,63
 84033b0:	11806b16 	blt	r2,r6,8403560 <_fpadd_parts+0x234>
 84033b4:	0100a40e 	bge	zero,r4,8403648 <_fpadd_parts+0x31c>
 84033b8:	35bff804 	addi	r22,r6,-32
 84033bc:	b000bc16 	blt	r22,zero,84036b0 <_fpadd_parts+0x384>
 84033c0:	8596d83a 	srl	r11,r16,r22
 84033c4:	0019883a 	mov	r12,zero
 84033c8:	0013883a 	mov	r9,zero
 84033cc:	01000044 	movi	r4,1
 84033d0:	0015883a 	mov	r10,zero
 84033d4:	b000be16 	blt	r22,zero,84036d0 <_fpadd_parts+0x3a4>
 84033d8:	2590983a 	sll	r8,r4,r22
 84033dc:	000f883a 	mov	r7,zero
 84033e0:	00bfffc4 	movi	r2,-1
 84033e4:	3889883a 	add	r4,r7,r2
 84033e8:	408b883a 	add	r5,r8,r2
 84033ec:	21cd803a 	cmpltu	r6,r4,r7
 84033f0:	314b883a 	add	r5,r6,r5
 84033f4:	7904703a 	and	r2,r15,r4
 84033f8:	8146703a 	and	r3,r16,r5
 84033fc:	10c4b03a 	or	r2,r2,r3
 8403400:	10000226 	beq	r2,zero,840340c <_fpadd_parts+0xe0>
 8403404:	02400044 	movi	r9,1
 8403408:	0015883a 	mov	r10,zero
 840340c:	5a5eb03a 	or	r15,r11,r9
 8403410:	62a0b03a 	or	r16,r12,r10
 8403414:	99400117 	ldw	r5,4(r19)
 8403418:	a8800117 	ldw	r2,4(r21)
 840341c:	28806e26 	beq	r5,r2,84035d8 <_fpadd_parts+0x2ac>
 8403420:	28006626 	beq	r5,zero,84035bc <_fpadd_parts+0x290>
 8403424:	7c45c83a 	sub	r2,r15,r17
 8403428:	7889803a 	cmpltu	r4,r15,r2
 840342c:	8487c83a 	sub	r3,r16,r18
 8403430:	1909c83a 	sub	r4,r3,r4
 8403434:	100d883a 	mov	r6,r2
 8403438:	200f883a 	mov	r7,r4
 840343c:	38007716 	blt	r7,zero,840361c <_fpadd_parts+0x2f0>
 8403440:	a5c00215 	stw	r23,8(r20)
 8403444:	a1c00415 	stw	r7,16(r20)
 8403448:	a0000115 	stw	zero,4(r20)
 840344c:	a1800315 	stw	r6,12(r20)
 8403450:	a2000317 	ldw	r8,12(r20)
 8403454:	a2400417 	ldw	r9,16(r20)
 8403458:	00bfffc4 	movi	r2,-1
 840345c:	408b883a 	add	r5,r8,r2
 8403460:	2a09803a 	cmpltu	r4,r5,r8
 8403464:	488d883a 	add	r6,r9,r2
 8403468:	01c40034 	movhi	r7,4096
 840346c:	39ffffc4 	addi	r7,r7,-1
 8403470:	218d883a 	add	r6,r4,r6
 8403474:	39801736 	bltu	r7,r6,84034d4 <_fpadd_parts+0x1a8>
 8403478:	31c06526 	beq	r6,r7,8403610 <_fpadd_parts+0x2e4>
 840347c:	a3000217 	ldw	r12,8(r20)
 8403480:	4209883a 	add	r4,r8,r8
 8403484:	00bfffc4 	movi	r2,-1
 8403488:	220f803a 	cmpltu	r7,r4,r8
 840348c:	4a4b883a 	add	r5,r9,r9
 8403490:	394f883a 	add	r7,r7,r5
 8403494:	2095883a 	add	r10,r4,r2
 8403498:	3897883a 	add	r11,r7,r2
 840349c:	510d803a 	cmpltu	r6,r10,r4
 84034a0:	6099883a 	add	r12,r12,r2
 84034a4:	32d7883a 	add	r11,r6,r11
 84034a8:	00840034 	movhi	r2,4096
 84034ac:	10bfffc4 	addi	r2,r2,-1
 84034b0:	2011883a 	mov	r8,r4
 84034b4:	3813883a 	mov	r9,r7
 84034b8:	a1000315 	stw	r4,12(r20)
 84034bc:	a1c00415 	stw	r7,16(r20)
 84034c0:	a3000215 	stw	r12,8(r20)
 84034c4:	12c00336 	bltu	r2,r11,84034d4 <_fpadd_parts+0x1a8>
 84034c8:	58bfed1e 	bne	r11,r2,8403480 <_fpadd_parts+0x154>
 84034cc:	00bfff84 	movi	r2,-2
 84034d0:	12bfeb2e 	bgeu	r2,r10,8403480 <_fpadd_parts+0x154>
 84034d4:	a2800417 	ldw	r10,16(r20)
 84034d8:	008000c4 	movi	r2,3
 84034dc:	00c80034 	movhi	r3,8192
 84034e0:	18ffffc4 	addi	r3,r3,-1
 84034e4:	a2400317 	ldw	r9,12(r20)
 84034e8:	a0800015 	stw	r2,0(r20)
 84034ec:	1a802336 	bltu	r3,r10,840357c <_fpadd_parts+0x250>
 84034f0:	a027883a 	mov	r19,r20
 84034f4:	9805883a 	mov	r2,r19
 84034f8:	ddc00717 	ldw	r23,28(sp)
 84034fc:	dd800617 	ldw	r22,24(sp)
 8403500:	dd400517 	ldw	r21,20(sp)
 8403504:	dd000417 	ldw	r20,16(sp)
 8403508:	dcc00317 	ldw	r19,12(sp)
 840350c:	dc800217 	ldw	r18,8(sp)
 8403510:	dc400117 	ldw	r17,4(sp)
 8403514:	dc000017 	ldw	r16,0(sp)
 8403518:	dec00804 	addi	sp,sp,32
 840351c:	f800283a 	ret
 8403520:	20fff41e 	bne	r4,r3,84034f4 <_fpadd_parts+0x1c8>
 8403524:	31000015 	stw	r4,0(r6)
 8403528:	98800117 	ldw	r2,4(r19)
 840352c:	30800115 	stw	r2,4(r6)
 8403530:	98c00217 	ldw	r3,8(r19)
 8403534:	30c00215 	stw	r3,8(r6)
 8403538:	98800317 	ldw	r2,12(r19)
 840353c:	30800315 	stw	r2,12(r6)
 8403540:	98c00417 	ldw	r3,16(r19)
 8403544:	30c00415 	stw	r3,16(r6)
 8403548:	98800117 	ldw	r2,4(r19)
 840354c:	28c00117 	ldw	r3,4(r5)
 8403550:	3027883a 	mov	r19,r6
 8403554:	10c4703a 	and	r2,r2,r3
 8403558:	30800115 	stw	r2,4(r6)
 840355c:	003fe506 	br	84034f4 <_fpadd_parts+0x1c8>
 8403560:	1dc02616 	blt	r3,r23,84035fc <_fpadd_parts+0x2d0>
 8403564:	0023883a 	mov	r17,zero
 8403568:	182f883a 	mov	r23,r3
 840356c:	0025883a 	mov	r18,zero
 8403570:	003fa806 	br	8403414 <_fpadd_parts+0xe8>
 8403574:	a827883a 	mov	r19,r21
 8403578:	003fde06 	br	84034f4 <_fpadd_parts+0x1c8>
 840357c:	01800044 	movi	r6,1
 8403580:	500497fa 	slli	r2,r10,31
 8403584:	4808d07a 	srli	r4,r9,1
 8403588:	518ad83a 	srl	r5,r10,r6
 840358c:	a2000217 	ldw	r8,8(r20)
 8403590:	1108b03a 	or	r4,r2,r4
 8403594:	0007883a 	mov	r3,zero
 8403598:	4984703a 	and	r2,r9,r6
 840359c:	208cb03a 	or	r6,r4,r2
 84035a0:	28ceb03a 	or	r7,r5,r3
 84035a4:	42000044 	addi	r8,r8,1
 84035a8:	a027883a 	mov	r19,r20
 84035ac:	a1c00415 	stw	r7,16(r20)
 84035b0:	a2000215 	stw	r8,8(r20)
 84035b4:	a1800315 	stw	r6,12(r20)
 84035b8:	003fce06 	br	84034f4 <_fpadd_parts+0x1c8>
 84035bc:	8bc5c83a 	sub	r2,r17,r15
 84035c0:	8889803a 	cmpltu	r4,r17,r2
 84035c4:	9407c83a 	sub	r3,r18,r16
 84035c8:	1909c83a 	sub	r4,r3,r4
 84035cc:	100d883a 	mov	r6,r2
 84035d0:	200f883a 	mov	r7,r4
 84035d4:	003f9906 	br	840343c <_fpadd_parts+0x110>
 84035d8:	7c45883a 	add	r2,r15,r17
 84035dc:	13c9803a 	cmpltu	r4,r2,r15
 84035e0:	8487883a 	add	r3,r16,r18
 84035e4:	20c9883a 	add	r4,r4,r3
 84035e8:	a1400115 	stw	r5,4(r20)
 84035ec:	a5c00215 	stw	r23,8(r20)
 84035f0:	a0800315 	stw	r2,12(r20)
 84035f4:	a1000415 	stw	r4,16(r20)
 84035f8:	003fb606 	br	84034d4 <_fpadd_parts+0x1a8>
 84035fc:	001f883a 	mov	r15,zero
 8403600:	0021883a 	mov	r16,zero
 8403604:	003f8306 	br	8403414 <_fpadd_parts+0xe8>
 8403608:	018dc83a 	sub	r6,zero,r6
 840360c:	003f6706 	br	84033ac <_fpadd_parts+0x80>
 8403610:	00bfff84 	movi	r2,-2
 8403614:	117faf36 	bltu	r2,r5,84034d4 <_fpadd_parts+0x1a8>
 8403618:	003f9806 	br	840347c <_fpadd_parts+0x150>
 840361c:	0005883a 	mov	r2,zero
 8403620:	1189c83a 	sub	r4,r2,r6
 8403624:	1105803a 	cmpltu	r2,r2,r4
 8403628:	01cbc83a 	sub	r5,zero,r7
 840362c:	2885c83a 	sub	r2,r5,r2
 8403630:	01800044 	movi	r6,1
 8403634:	a1800115 	stw	r6,4(r20)
 8403638:	a5c00215 	stw	r23,8(r20)
 840363c:	a1000315 	stw	r4,12(r20)
 8403640:	a0800415 	stw	r2,16(r20)
 8403644:	003f8206 	br	8403450 <_fpadd_parts+0x124>
 8403648:	203f7226 	beq	r4,zero,8403414 <_fpadd_parts+0xe8>
 840364c:	35bff804 	addi	r22,r6,-32
 8403650:	b9af883a 	add	r23,r23,r6
 8403654:	b0003116 	blt	r22,zero,840371c <_fpadd_parts+0x3f0>
 8403658:	959ad83a 	srl	r13,r18,r22
 840365c:	001d883a 	mov	r14,zero
 8403660:	000f883a 	mov	r7,zero
 8403664:	01000044 	movi	r4,1
 8403668:	0011883a 	mov	r8,zero
 840366c:	b0002516 	blt	r22,zero,8403704 <_fpadd_parts+0x3d8>
 8403670:	2594983a 	sll	r10,r4,r22
 8403674:	0013883a 	mov	r9,zero
 8403678:	00bfffc4 	movi	r2,-1
 840367c:	4889883a 	add	r4,r9,r2
 8403680:	508b883a 	add	r5,r10,r2
 8403684:	224d803a 	cmpltu	r6,r4,r9
 8403688:	314b883a 	add	r5,r6,r5
 840368c:	8904703a 	and	r2,r17,r4
 8403690:	9146703a 	and	r3,r18,r5
 8403694:	10c4b03a 	or	r2,r2,r3
 8403698:	10000226 	beq	r2,zero,84036a4 <_fpadd_parts+0x378>
 840369c:	01c00044 	movi	r7,1
 84036a0:	0011883a 	mov	r8,zero
 84036a4:	69e2b03a 	or	r17,r13,r7
 84036a8:	7224b03a 	or	r18,r14,r8
 84036ac:	003f5906 	br	8403414 <_fpadd_parts+0xe8>
 84036b0:	8407883a 	add	r3,r16,r16
 84036b4:	008007c4 	movi	r2,31
 84036b8:	1185c83a 	sub	r2,r2,r6
 84036bc:	1886983a 	sll	r3,r3,r2
 84036c0:	7996d83a 	srl	r11,r15,r6
 84036c4:	8198d83a 	srl	r12,r16,r6
 84036c8:	1ad6b03a 	or	r11,r3,r11
 84036cc:	003f3e06 	br	84033c8 <_fpadd_parts+0x9c>
 84036d0:	2006d07a 	srli	r3,r4,1
 84036d4:	008007c4 	movi	r2,31
 84036d8:	1185c83a 	sub	r2,r2,r6
 84036dc:	1890d83a 	srl	r8,r3,r2
 84036e0:	218e983a 	sll	r7,r4,r6
 84036e4:	003f3e06 	br	84033e0 <_fpadd_parts+0xb4>
 84036e8:	113f821e 	bne	r2,r4,84034f4 <_fpadd_parts+0x1c8>
 84036ec:	28c00117 	ldw	r3,4(r5)
 84036f0:	98800117 	ldw	r2,4(r19)
 84036f4:	10ff7f26 	beq	r2,r3,84034f4 <_fpadd_parts+0x1c8>
 84036f8:	04c21074 	movhi	r19,2113
 84036fc:	9cc65d04 	addi	r19,r19,6516
 8403700:	003f7c06 	br	84034f4 <_fpadd_parts+0x1c8>
 8403704:	2006d07a 	srli	r3,r4,1
 8403708:	008007c4 	movi	r2,31
 840370c:	1185c83a 	sub	r2,r2,r6
 8403710:	1894d83a 	srl	r10,r3,r2
 8403714:	2192983a 	sll	r9,r4,r6
 8403718:	003fd706 	br	8403678 <_fpadd_parts+0x34c>
 840371c:	9487883a 	add	r3,r18,r18
 8403720:	008007c4 	movi	r2,31
 8403724:	1185c83a 	sub	r2,r2,r6
 8403728:	1886983a 	sll	r3,r3,r2
 840372c:	899ad83a 	srl	r13,r17,r6
 8403730:	919cd83a 	srl	r14,r18,r6
 8403734:	1b5ab03a 	or	r13,r3,r13
 8403738:	003fc906 	br	8403660 <_fpadd_parts+0x334>

0840373c <__subdf3>:
 840373c:	deffea04 	addi	sp,sp,-88
 8403740:	dcc01415 	stw	r19,80(sp)
 8403744:	dcc00404 	addi	r19,sp,16
 8403748:	2011883a 	mov	r8,r4
 840374c:	2813883a 	mov	r9,r5
 8403750:	dc401315 	stw	r17,76(sp)
 8403754:	d809883a 	mov	r4,sp
 8403758:	980b883a 	mov	r5,r19
 840375c:	dc400904 	addi	r17,sp,36
 8403760:	dfc01515 	stw	ra,84(sp)
 8403764:	da400115 	stw	r9,4(sp)
 8403768:	d9c00315 	stw	r7,12(sp)
 840376c:	da000015 	stw	r8,0(sp)
 8403770:	d9800215 	stw	r6,8(sp)
 8403774:	8404b0c0 	call	8404b0c <__unpack_d>
 8403778:	d9000204 	addi	r4,sp,8
 840377c:	880b883a 	mov	r5,r17
 8403780:	8404b0c0 	call	8404b0c <__unpack_d>
 8403784:	d8800a17 	ldw	r2,40(sp)
 8403788:	880b883a 	mov	r5,r17
 840378c:	9809883a 	mov	r4,r19
 8403790:	d9800e04 	addi	r6,sp,56
 8403794:	1080005c 	xori	r2,r2,1
 8403798:	d8800a15 	stw	r2,40(sp)
 840379c:	840332c0 	call	840332c <_fpadd_parts>
 84037a0:	1009883a 	mov	r4,r2
 84037a4:	84047f80 	call	84047f8 <__pack_d>
 84037a8:	dfc01517 	ldw	ra,84(sp)
 84037ac:	dcc01417 	ldw	r19,80(sp)
 84037b0:	dc401317 	ldw	r17,76(sp)
 84037b4:	dec01604 	addi	sp,sp,88
 84037b8:	f800283a 	ret

084037bc <__adddf3>:
 84037bc:	deffea04 	addi	sp,sp,-88
 84037c0:	dcc01415 	stw	r19,80(sp)
 84037c4:	dcc00404 	addi	r19,sp,16
 84037c8:	2011883a 	mov	r8,r4
 84037cc:	2813883a 	mov	r9,r5
 84037d0:	dc401315 	stw	r17,76(sp)
 84037d4:	d809883a 	mov	r4,sp
 84037d8:	980b883a 	mov	r5,r19
 84037dc:	dc400904 	addi	r17,sp,36
 84037e0:	dfc01515 	stw	ra,84(sp)
 84037e4:	da400115 	stw	r9,4(sp)
 84037e8:	d9c00315 	stw	r7,12(sp)
 84037ec:	da000015 	stw	r8,0(sp)
 84037f0:	d9800215 	stw	r6,8(sp)
 84037f4:	8404b0c0 	call	8404b0c <__unpack_d>
 84037f8:	d9000204 	addi	r4,sp,8
 84037fc:	880b883a 	mov	r5,r17
 8403800:	8404b0c0 	call	8404b0c <__unpack_d>
 8403804:	d9800e04 	addi	r6,sp,56
 8403808:	9809883a 	mov	r4,r19
 840380c:	880b883a 	mov	r5,r17
 8403810:	840332c0 	call	840332c <_fpadd_parts>
 8403814:	1009883a 	mov	r4,r2
 8403818:	84047f80 	call	84047f8 <__pack_d>
 840381c:	dfc01517 	ldw	ra,84(sp)
 8403820:	dcc01417 	ldw	r19,80(sp)
 8403824:	dc401317 	ldw	r17,76(sp)
 8403828:	dec01604 	addi	sp,sp,88
 840382c:	f800283a 	ret

08403830 <__muldf3>:
 8403830:	deffe004 	addi	sp,sp,-128
 8403834:	dc401815 	stw	r17,96(sp)
 8403838:	dc400404 	addi	r17,sp,16
 840383c:	2011883a 	mov	r8,r4
 8403840:	2813883a 	mov	r9,r5
 8403844:	dc001715 	stw	r16,92(sp)
 8403848:	d809883a 	mov	r4,sp
 840384c:	880b883a 	mov	r5,r17
 8403850:	dc000904 	addi	r16,sp,36
 8403854:	dfc01f15 	stw	ra,124(sp)
 8403858:	da400115 	stw	r9,4(sp)
 840385c:	d9c00315 	stw	r7,12(sp)
 8403860:	da000015 	stw	r8,0(sp)
 8403864:	d9800215 	stw	r6,8(sp)
 8403868:	ddc01e15 	stw	r23,120(sp)
 840386c:	dd801d15 	stw	r22,116(sp)
 8403870:	dd401c15 	stw	r21,112(sp)
 8403874:	dd001b15 	stw	r20,108(sp)
 8403878:	dcc01a15 	stw	r19,104(sp)
 840387c:	dc801915 	stw	r18,100(sp)
 8403880:	8404b0c0 	call	8404b0c <__unpack_d>
 8403884:	d9000204 	addi	r4,sp,8
 8403888:	800b883a 	mov	r5,r16
 840388c:	8404b0c0 	call	8404b0c <__unpack_d>
 8403890:	d9000417 	ldw	r4,16(sp)
 8403894:	00800044 	movi	r2,1
 8403898:	1100102e 	bgeu	r2,r4,84038dc <__muldf3+0xac>
 840389c:	d8c00917 	ldw	r3,36(sp)
 84038a0:	10c0062e 	bgeu	r2,r3,84038bc <__muldf3+0x8c>
 84038a4:	00800104 	movi	r2,4
 84038a8:	20800a26 	beq	r4,r2,84038d4 <__muldf3+0xa4>
 84038ac:	1880cc26 	beq	r3,r2,8403be0 <__muldf3+0x3b0>
 84038b0:	00800084 	movi	r2,2
 84038b4:	20800926 	beq	r4,r2,84038dc <__muldf3+0xac>
 84038b8:	1880191e 	bne	r3,r2,8403920 <__muldf3+0xf0>
 84038bc:	d8c00a17 	ldw	r3,40(sp)
 84038c0:	d8800517 	ldw	r2,20(sp)
 84038c4:	8009883a 	mov	r4,r16
 84038c8:	10c4c03a 	cmpne	r2,r2,r3
 84038cc:	d8800a15 	stw	r2,40(sp)
 84038d0:	00000706 	br	84038f0 <__muldf3+0xc0>
 84038d4:	00800084 	movi	r2,2
 84038d8:	1880c326 	beq	r3,r2,8403be8 <__muldf3+0x3b8>
 84038dc:	d8800517 	ldw	r2,20(sp)
 84038e0:	d8c00a17 	ldw	r3,40(sp)
 84038e4:	8809883a 	mov	r4,r17
 84038e8:	10c4c03a 	cmpne	r2,r2,r3
 84038ec:	d8800515 	stw	r2,20(sp)
 84038f0:	84047f80 	call	84047f8 <__pack_d>
 84038f4:	dfc01f17 	ldw	ra,124(sp)
 84038f8:	ddc01e17 	ldw	r23,120(sp)
 84038fc:	dd801d17 	ldw	r22,116(sp)
 8403900:	dd401c17 	ldw	r21,112(sp)
 8403904:	dd001b17 	ldw	r20,108(sp)
 8403908:	dcc01a17 	ldw	r19,104(sp)
 840390c:	dc801917 	ldw	r18,100(sp)
 8403910:	dc401817 	ldw	r17,96(sp)
 8403914:	dc001717 	ldw	r16,92(sp)
 8403918:	dec02004 	addi	sp,sp,128
 840391c:	f800283a 	ret
 8403920:	dd800717 	ldw	r22,28(sp)
 8403924:	dc800c17 	ldw	r18,48(sp)
 8403928:	002b883a 	mov	r21,zero
 840392c:	0023883a 	mov	r17,zero
 8403930:	a80b883a 	mov	r5,r21
 8403934:	b00d883a 	mov	r6,r22
 8403938:	880f883a 	mov	r7,r17
 840393c:	ddc00817 	ldw	r23,32(sp)
 8403940:	dcc00d17 	ldw	r19,52(sp)
 8403944:	9009883a 	mov	r4,r18
 8403948:	84043e40 	call	84043e4 <__muldi3>
 840394c:	001b883a 	mov	r13,zero
 8403950:	680f883a 	mov	r7,r13
 8403954:	b009883a 	mov	r4,r22
 8403958:	000b883a 	mov	r5,zero
 840395c:	980d883a 	mov	r6,r19
 8403960:	b82d883a 	mov	r22,r23
 8403964:	002f883a 	mov	r23,zero
 8403968:	db401615 	stw	r13,88(sp)
 840396c:	d8801315 	stw	r2,76(sp)
 8403970:	d8c01415 	stw	r3,80(sp)
 8403974:	dcc01515 	stw	r19,84(sp)
 8403978:	84043e40 	call	84043e4 <__muldi3>
 840397c:	b00d883a 	mov	r6,r22
 8403980:	000b883a 	mov	r5,zero
 8403984:	9009883a 	mov	r4,r18
 8403988:	b80f883a 	mov	r7,r23
 840398c:	1021883a 	mov	r16,r2
 8403990:	1823883a 	mov	r17,r3
 8403994:	84043e40 	call	84043e4 <__muldi3>
 8403998:	8085883a 	add	r2,r16,r2
 840399c:	140d803a 	cmpltu	r6,r2,r16
 84039a0:	88c7883a 	add	r3,r17,r3
 84039a4:	30cd883a 	add	r6,r6,r3
 84039a8:	1029883a 	mov	r20,r2
 84039ac:	302b883a 	mov	r21,r6
 84039b0:	da801317 	ldw	r10,76(sp)
 84039b4:	dac01417 	ldw	r11,80(sp)
 84039b8:	db001517 	ldw	r12,84(sp)
 84039bc:	db401617 	ldw	r13,88(sp)
 84039c0:	3440612e 	bgeu	r6,r17,8403b48 <__muldf3+0x318>
 84039c4:	0009883a 	mov	r4,zero
 84039c8:	5105883a 	add	r2,r10,r4
 84039cc:	128d803a 	cmpltu	r6,r2,r10
 84039d0:	5d07883a 	add	r3,r11,r20
 84039d4:	30cd883a 	add	r6,r6,r3
 84039d8:	0021883a 	mov	r16,zero
 84039dc:	04400044 	movi	r17,1
 84039e0:	1025883a 	mov	r18,r2
 84039e4:	3027883a 	mov	r19,r6
 84039e8:	32c06236 	bltu	r6,r11,8403b74 <__muldf3+0x344>
 84039ec:	59807a26 	beq	r11,r6,8403bd8 <__muldf3+0x3a8>
 84039f0:	680b883a 	mov	r5,r13
 84039f4:	b80f883a 	mov	r7,r23
 84039f8:	6009883a 	mov	r4,r12
 84039fc:	b00d883a 	mov	r6,r22
 8403a00:	84043e40 	call	84043e4 <__muldi3>
 8403a04:	1009883a 	mov	r4,r2
 8403a08:	000f883a 	mov	r7,zero
 8403a0c:	1545883a 	add	r2,r2,r21
 8403a10:	1111803a 	cmpltu	r8,r2,r4
 8403a14:	19c7883a 	add	r3,r3,r7
 8403a18:	40c7883a 	add	r3,r8,r3
 8403a1c:	88cb883a 	add	r5,r17,r3
 8403a20:	d8c00617 	ldw	r3,24(sp)
 8403a24:	8089883a 	add	r4,r16,r2
 8403a28:	d8800b17 	ldw	r2,44(sp)
 8403a2c:	18c00104 	addi	r3,r3,4
 8403a30:	240d803a 	cmpltu	r6,r4,r16
 8403a34:	10c7883a 	add	r3,r2,r3
 8403a38:	2013883a 	mov	r9,r4
 8403a3c:	d8800a17 	ldw	r2,40(sp)
 8403a40:	d9000517 	ldw	r4,20(sp)
 8403a44:	314d883a 	add	r6,r6,r5
 8403a48:	3015883a 	mov	r10,r6
 8403a4c:	2088c03a 	cmpne	r4,r4,r2
 8403a50:	00880034 	movhi	r2,8192
 8403a54:	10bfffc4 	addi	r2,r2,-1
 8403a58:	d9000f15 	stw	r4,60(sp)
 8403a5c:	d8c01015 	stw	r3,64(sp)
 8403a60:	1180162e 	bgeu	r2,r6,8403abc <__muldf3+0x28c>
 8403a64:	1811883a 	mov	r8,r3
 8403a68:	101f883a 	mov	r15,r2
 8403a6c:	980497fa 	slli	r2,r19,31
 8403a70:	9016d07a 	srli	r11,r18,1
 8403a74:	500697fa 	slli	r3,r10,31
 8403a78:	480cd07a 	srli	r6,r9,1
 8403a7c:	500ed07a 	srli	r7,r10,1
 8403a80:	12d6b03a 	or	r11,r2,r11
 8403a84:	00800044 	movi	r2,1
 8403a88:	198cb03a 	or	r6,r3,r6
 8403a8c:	4888703a 	and	r4,r9,r2
 8403a90:	9818d07a 	srli	r12,r19,1
 8403a94:	001b883a 	mov	r13,zero
 8403a98:	03a00034 	movhi	r14,32768
 8403a9c:	3013883a 	mov	r9,r6
 8403aa0:	3815883a 	mov	r10,r7
 8403aa4:	4091883a 	add	r8,r8,r2
 8403aa8:	20000226 	beq	r4,zero,8403ab4 <__muldf3+0x284>
 8403aac:	5b64b03a 	or	r18,r11,r13
 8403ab0:	63a6b03a 	or	r19,r12,r14
 8403ab4:	7abfed36 	bltu	r15,r10,8403a6c <__muldf3+0x23c>
 8403ab8:	da001015 	stw	r8,64(sp)
 8403abc:	00840034 	movhi	r2,4096
 8403ac0:	10bfffc4 	addi	r2,r2,-1
 8403ac4:	12801436 	bltu	r2,r10,8403b18 <__muldf3+0x2e8>
 8403ac8:	da001017 	ldw	r8,64(sp)
 8403acc:	101f883a 	mov	r15,r2
 8403ad0:	4a45883a 	add	r2,r9,r9
 8403ad4:	124d803a 	cmpltu	r6,r2,r9
 8403ad8:	5287883a 	add	r3,r10,r10
 8403adc:	9497883a 	add	r11,r18,r18
 8403ae0:	5c8f803a 	cmpltu	r7,r11,r18
 8403ae4:	9cd9883a 	add	r12,r19,r19
 8403ae8:	01000044 	movi	r4,1
 8403aec:	30cd883a 	add	r6,r6,r3
 8403af0:	3b0f883a 	add	r7,r7,r12
 8403af4:	423fffc4 	addi	r8,r8,-1
 8403af8:	1013883a 	mov	r9,r2
 8403afc:	3015883a 	mov	r10,r6
 8403b00:	111ab03a 	or	r13,r2,r4
 8403b04:	98003016 	blt	r19,zero,8403bc8 <__muldf3+0x398>
 8403b08:	5825883a 	mov	r18,r11
 8403b0c:	3827883a 	mov	r19,r7
 8403b10:	7abfef2e 	bgeu	r15,r10,8403ad0 <__muldf3+0x2a0>
 8403b14:	da001015 	stw	r8,64(sp)
 8403b18:	00803fc4 	movi	r2,255
 8403b1c:	488e703a 	and	r7,r9,r2
 8403b20:	00802004 	movi	r2,128
 8403b24:	0007883a 	mov	r3,zero
 8403b28:	0011883a 	mov	r8,zero
 8403b2c:	38801826 	beq	r7,r2,8403b90 <__muldf3+0x360>
 8403b30:	008000c4 	movi	r2,3
 8403b34:	d9000e04 	addi	r4,sp,56
 8403b38:	da801215 	stw	r10,72(sp)
 8403b3c:	d8800e15 	stw	r2,56(sp)
 8403b40:	da401115 	stw	r9,68(sp)
 8403b44:	003f6a06 	br	84038f0 <__muldf3+0xc0>
 8403b48:	89802126 	beq	r17,r6,8403bd0 <__muldf3+0x3a0>
 8403b4c:	0009883a 	mov	r4,zero
 8403b50:	5105883a 	add	r2,r10,r4
 8403b54:	128d803a 	cmpltu	r6,r2,r10
 8403b58:	5d07883a 	add	r3,r11,r20
 8403b5c:	30cd883a 	add	r6,r6,r3
 8403b60:	0021883a 	mov	r16,zero
 8403b64:	0023883a 	mov	r17,zero
 8403b68:	1025883a 	mov	r18,r2
 8403b6c:	3027883a 	mov	r19,r6
 8403b70:	32ff9e2e 	bgeu	r6,r11,84039ec <__muldf3+0x1bc>
 8403b74:	00800044 	movi	r2,1
 8403b78:	8089883a 	add	r4,r16,r2
 8403b7c:	240d803a 	cmpltu	r6,r4,r16
 8403b80:	344d883a 	add	r6,r6,r17
 8403b84:	2021883a 	mov	r16,r4
 8403b88:	3023883a 	mov	r17,r6
 8403b8c:	003f9806 	br	84039f0 <__muldf3+0x1c0>
 8403b90:	403fe71e 	bne	r8,zero,8403b30 <__muldf3+0x300>
 8403b94:	01004004 	movi	r4,256
 8403b98:	4904703a 	and	r2,r9,r4
 8403b9c:	10c4b03a 	or	r2,r2,r3
 8403ba0:	103fe31e 	bne	r2,zero,8403b30 <__muldf3+0x300>
 8403ba4:	94c4b03a 	or	r2,r18,r19
 8403ba8:	103fe126 	beq	r2,zero,8403b30 <__muldf3+0x300>
 8403bac:	49c5883a 	add	r2,r9,r7
 8403bb0:	1251803a 	cmpltu	r8,r2,r9
 8403bb4:	4291883a 	add	r8,r8,r10
 8403bb8:	013fc004 	movi	r4,-256
 8403bbc:	1112703a 	and	r9,r2,r4
 8403bc0:	4015883a 	mov	r10,r8
 8403bc4:	003fda06 	br	8403b30 <__muldf3+0x300>
 8403bc8:	6813883a 	mov	r9,r13
 8403bcc:	003fce06 	br	8403b08 <__muldf3+0x2d8>
 8403bd0:	143f7c36 	bltu	r2,r16,84039c4 <__muldf3+0x194>
 8403bd4:	003fdd06 	br	8403b4c <__muldf3+0x31c>
 8403bd8:	12bf852e 	bgeu	r2,r10,84039f0 <__muldf3+0x1c0>
 8403bdc:	003fe506 	br	8403b74 <__muldf3+0x344>
 8403be0:	00800084 	movi	r2,2
 8403be4:	20bf351e 	bne	r4,r2,84038bc <__muldf3+0x8c>
 8403be8:	01021074 	movhi	r4,2113
 8403bec:	21065d04 	addi	r4,r4,6516
 8403bf0:	003f3f06 	br	84038f0 <__muldf3+0xc0>

08403bf4 <__divdf3>:
 8403bf4:	deffed04 	addi	sp,sp,-76
 8403bf8:	dcc01115 	stw	r19,68(sp)
 8403bfc:	dcc00404 	addi	r19,sp,16
 8403c00:	2011883a 	mov	r8,r4
 8403c04:	2813883a 	mov	r9,r5
 8403c08:	dc000e15 	stw	r16,56(sp)
 8403c0c:	d809883a 	mov	r4,sp
 8403c10:	980b883a 	mov	r5,r19
 8403c14:	dc000904 	addi	r16,sp,36
 8403c18:	dfc01215 	stw	ra,72(sp)
 8403c1c:	da400115 	stw	r9,4(sp)
 8403c20:	d9c00315 	stw	r7,12(sp)
 8403c24:	da000015 	stw	r8,0(sp)
 8403c28:	d9800215 	stw	r6,8(sp)
 8403c2c:	dc801015 	stw	r18,64(sp)
 8403c30:	dc400f15 	stw	r17,60(sp)
 8403c34:	8404b0c0 	call	8404b0c <__unpack_d>
 8403c38:	d9000204 	addi	r4,sp,8
 8403c3c:	800b883a 	mov	r5,r16
 8403c40:	8404b0c0 	call	8404b0c <__unpack_d>
 8403c44:	d9000417 	ldw	r4,16(sp)
 8403c48:	00800044 	movi	r2,1
 8403c4c:	11000b2e 	bgeu	r2,r4,8403c7c <__divdf3+0x88>
 8403c50:	d9400917 	ldw	r5,36(sp)
 8403c54:	1140762e 	bgeu	r2,r5,8403e30 <__divdf3+0x23c>
 8403c58:	d8800517 	ldw	r2,20(sp)
 8403c5c:	d8c00a17 	ldw	r3,40(sp)
 8403c60:	01800104 	movi	r6,4
 8403c64:	10c4f03a 	xor	r2,r2,r3
 8403c68:	d8800515 	stw	r2,20(sp)
 8403c6c:	21800226 	beq	r4,r6,8403c78 <__divdf3+0x84>
 8403c70:	00800084 	movi	r2,2
 8403c74:	2080141e 	bne	r4,r2,8403cc8 <__divdf3+0xd4>
 8403c78:	29000926 	beq	r5,r4,8403ca0 <__divdf3+0xac>
 8403c7c:	9809883a 	mov	r4,r19
 8403c80:	84047f80 	call	84047f8 <__pack_d>
 8403c84:	dfc01217 	ldw	ra,72(sp)
 8403c88:	dcc01117 	ldw	r19,68(sp)
 8403c8c:	dc801017 	ldw	r18,64(sp)
 8403c90:	dc400f17 	ldw	r17,60(sp)
 8403c94:	dc000e17 	ldw	r16,56(sp)
 8403c98:	dec01304 	addi	sp,sp,76
 8403c9c:	f800283a 	ret
 8403ca0:	01021074 	movhi	r4,2113
 8403ca4:	21065d04 	addi	r4,r4,6516
 8403ca8:	84047f80 	call	84047f8 <__pack_d>
 8403cac:	dfc01217 	ldw	ra,72(sp)
 8403cb0:	dcc01117 	ldw	r19,68(sp)
 8403cb4:	dc801017 	ldw	r18,64(sp)
 8403cb8:	dc400f17 	ldw	r17,60(sp)
 8403cbc:	dc000e17 	ldw	r16,56(sp)
 8403cc0:	dec01304 	addi	sp,sp,76
 8403cc4:	f800283a 	ret
 8403cc8:	29805b26 	beq	r5,r6,8403e38 <__divdf3+0x244>
 8403ccc:	28802d26 	beq	r5,r2,8403d84 <__divdf3+0x190>
 8403cd0:	d8c00617 	ldw	r3,24(sp)
 8403cd4:	d8800b17 	ldw	r2,44(sp)
 8403cd8:	d9c00817 	ldw	r7,32(sp)
 8403cdc:	dc400d17 	ldw	r17,52(sp)
 8403ce0:	188bc83a 	sub	r5,r3,r2
 8403ce4:	d9800717 	ldw	r6,28(sp)
 8403ce8:	dc000c17 	ldw	r16,48(sp)
 8403cec:	d9400615 	stw	r5,24(sp)
 8403cf0:	3c403836 	bltu	r7,r17,8403dd4 <__divdf3+0x1e0>
 8403cf4:	89c03626 	beq	r17,r7,8403dd0 <__divdf3+0x1dc>
 8403cf8:	0015883a 	mov	r10,zero
 8403cfc:	001d883a 	mov	r14,zero
 8403d00:	02c40034 	movhi	r11,4096
 8403d04:	001f883a 	mov	r15,zero
 8403d08:	003f883a 	mov	ra,zero
 8403d0c:	04800f44 	movi	r18,61
 8403d10:	00000f06 	br	8403d50 <__divdf3+0x15c>
 8403d14:	601d883a 	mov	r14,r12
 8403d18:	681f883a 	mov	r15,r13
 8403d1c:	400d883a 	mov	r6,r8
 8403d20:	100f883a 	mov	r7,r2
 8403d24:	3191883a 	add	r8,r6,r6
 8403d28:	5808d07a 	srli	r4,r11,1
 8403d2c:	4185803a 	cmpltu	r2,r8,r6
 8403d30:	39d3883a 	add	r9,r7,r7
 8403d34:	28c6b03a 	or	r3,r5,r3
 8403d38:	1245883a 	add	r2,r2,r9
 8403d3c:	1815883a 	mov	r10,r3
 8403d40:	2017883a 	mov	r11,r4
 8403d44:	400d883a 	mov	r6,r8
 8403d48:	100f883a 	mov	r7,r2
 8403d4c:	fc801726 	beq	ra,r18,8403dac <__divdf3+0x1b8>
 8403d50:	580a97fa 	slli	r5,r11,31
 8403d54:	5006d07a 	srli	r3,r10,1
 8403d58:	ffc00044 	addi	ra,ra,1
 8403d5c:	3c7ff136 	bltu	r7,r17,8403d24 <__divdf3+0x130>
 8403d60:	3411c83a 	sub	r8,r6,r16
 8403d64:	3205803a 	cmpltu	r2,r6,r8
 8403d68:	3c53c83a 	sub	r9,r7,r17
 8403d6c:	7298b03a 	or	r12,r14,r10
 8403d70:	7adab03a 	or	r13,r15,r11
 8403d74:	4885c83a 	sub	r2,r9,r2
 8403d78:	89ffe61e 	bne	r17,r7,8403d14 <__divdf3+0x120>
 8403d7c:	343fe936 	bltu	r6,r16,8403d24 <__divdf3+0x130>
 8403d80:	003fe406 	br	8403d14 <__divdf3+0x120>
 8403d84:	9809883a 	mov	r4,r19
 8403d88:	d9800415 	stw	r6,16(sp)
 8403d8c:	84047f80 	call	84047f8 <__pack_d>
 8403d90:	dfc01217 	ldw	ra,72(sp)
 8403d94:	dcc01117 	ldw	r19,68(sp)
 8403d98:	dc801017 	ldw	r18,64(sp)
 8403d9c:	dc400f17 	ldw	r17,60(sp)
 8403da0:	dc000e17 	ldw	r16,56(sp)
 8403da4:	dec01304 	addi	sp,sp,76
 8403da8:	f800283a 	ret
 8403dac:	00803fc4 	movi	r2,255
 8403db0:	7090703a 	and	r8,r14,r2
 8403db4:	00802004 	movi	r2,128
 8403db8:	0007883a 	mov	r3,zero
 8403dbc:	0013883a 	mov	r9,zero
 8403dc0:	40800d26 	beq	r8,r2,8403df8 <__divdf3+0x204>
 8403dc4:	dbc00815 	stw	r15,32(sp)
 8403dc8:	db800715 	stw	r14,28(sp)
 8403dcc:	003fab06 	br	8403c7c <__divdf3+0x88>
 8403dd0:	343fc92e 	bgeu	r6,r16,8403cf8 <__divdf3+0x104>
 8403dd4:	3185883a 	add	r2,r6,r6
 8403dd8:	1189803a 	cmpltu	r4,r2,r6
 8403ddc:	39c7883a 	add	r3,r7,r7
 8403de0:	20c9883a 	add	r4,r4,r3
 8403de4:	297fffc4 	addi	r5,r5,-1
 8403de8:	100d883a 	mov	r6,r2
 8403dec:	200f883a 	mov	r7,r4
 8403df0:	d9400615 	stw	r5,24(sp)
 8403df4:	003fc006 	br	8403cf8 <__divdf3+0x104>
 8403df8:	483ff21e 	bne	r9,zero,8403dc4 <__divdf3+0x1d0>
 8403dfc:	01004004 	movi	r4,256
 8403e00:	7104703a 	and	r2,r14,r4
 8403e04:	10c4b03a 	or	r2,r2,r3
 8403e08:	103fee1e 	bne	r2,zero,8403dc4 <__divdf3+0x1d0>
 8403e0c:	31c4b03a 	or	r2,r6,r7
 8403e10:	103fec26 	beq	r2,zero,8403dc4 <__divdf3+0x1d0>
 8403e14:	7205883a 	add	r2,r14,r8
 8403e18:	1391803a 	cmpltu	r8,r2,r14
 8403e1c:	43d1883a 	add	r8,r8,r15
 8403e20:	013fc004 	movi	r4,-256
 8403e24:	111c703a 	and	r14,r2,r4
 8403e28:	401f883a 	mov	r15,r8
 8403e2c:	003fe506 	br	8403dc4 <__divdf3+0x1d0>
 8403e30:	8009883a 	mov	r4,r16
 8403e34:	003f9206 	br	8403c80 <__divdf3+0x8c>
 8403e38:	9809883a 	mov	r4,r19
 8403e3c:	d8000715 	stw	zero,28(sp)
 8403e40:	d8000815 	stw	zero,32(sp)
 8403e44:	d8000615 	stw	zero,24(sp)
 8403e48:	003f8d06 	br	8403c80 <__divdf3+0x8c>

08403e4c <__eqdf2>:
 8403e4c:	deffef04 	addi	sp,sp,-68
 8403e50:	dc400f15 	stw	r17,60(sp)
 8403e54:	dc400404 	addi	r17,sp,16
 8403e58:	2005883a 	mov	r2,r4
 8403e5c:	2807883a 	mov	r3,r5
 8403e60:	dc000e15 	stw	r16,56(sp)
 8403e64:	d809883a 	mov	r4,sp
 8403e68:	880b883a 	mov	r5,r17
 8403e6c:	dc000904 	addi	r16,sp,36
 8403e70:	d8c00115 	stw	r3,4(sp)
 8403e74:	d8800015 	stw	r2,0(sp)
 8403e78:	d9800215 	stw	r6,8(sp)
 8403e7c:	dfc01015 	stw	ra,64(sp)
 8403e80:	d9c00315 	stw	r7,12(sp)
 8403e84:	8404b0c0 	call	8404b0c <__unpack_d>
 8403e88:	d9000204 	addi	r4,sp,8
 8403e8c:	800b883a 	mov	r5,r16
 8403e90:	8404b0c0 	call	8404b0c <__unpack_d>
 8403e94:	d8800417 	ldw	r2,16(sp)
 8403e98:	00c00044 	movi	r3,1
 8403e9c:	180d883a 	mov	r6,r3
 8403ea0:	1880062e 	bgeu	r3,r2,8403ebc <__eqdf2+0x70>
 8403ea4:	d8800917 	ldw	r2,36(sp)
 8403ea8:	8809883a 	mov	r4,r17
 8403eac:	800b883a 	mov	r5,r16
 8403eb0:	1880022e 	bgeu	r3,r2,8403ebc <__eqdf2+0x70>
 8403eb4:	8404c440 	call	8404c44 <__fpcmp_parts_d>
 8403eb8:	100d883a 	mov	r6,r2
 8403ebc:	3005883a 	mov	r2,r6
 8403ec0:	dfc01017 	ldw	ra,64(sp)
 8403ec4:	dc400f17 	ldw	r17,60(sp)
 8403ec8:	dc000e17 	ldw	r16,56(sp)
 8403ecc:	dec01104 	addi	sp,sp,68
 8403ed0:	f800283a 	ret

08403ed4 <__nedf2>:
 8403ed4:	deffef04 	addi	sp,sp,-68
 8403ed8:	dc400f15 	stw	r17,60(sp)
 8403edc:	dc400404 	addi	r17,sp,16
 8403ee0:	2005883a 	mov	r2,r4
 8403ee4:	2807883a 	mov	r3,r5
 8403ee8:	dc000e15 	stw	r16,56(sp)
 8403eec:	d809883a 	mov	r4,sp
 8403ef0:	880b883a 	mov	r5,r17
 8403ef4:	dc000904 	addi	r16,sp,36
 8403ef8:	d8c00115 	stw	r3,4(sp)
 8403efc:	d8800015 	stw	r2,0(sp)
 8403f00:	d9800215 	stw	r6,8(sp)
 8403f04:	dfc01015 	stw	ra,64(sp)
 8403f08:	d9c00315 	stw	r7,12(sp)
 8403f0c:	8404b0c0 	call	8404b0c <__unpack_d>
 8403f10:	d9000204 	addi	r4,sp,8
 8403f14:	800b883a 	mov	r5,r16
 8403f18:	8404b0c0 	call	8404b0c <__unpack_d>
 8403f1c:	d8800417 	ldw	r2,16(sp)
 8403f20:	00c00044 	movi	r3,1
 8403f24:	180d883a 	mov	r6,r3
 8403f28:	1880062e 	bgeu	r3,r2,8403f44 <__nedf2+0x70>
 8403f2c:	d8800917 	ldw	r2,36(sp)
 8403f30:	8809883a 	mov	r4,r17
 8403f34:	800b883a 	mov	r5,r16
 8403f38:	1880022e 	bgeu	r3,r2,8403f44 <__nedf2+0x70>
 8403f3c:	8404c440 	call	8404c44 <__fpcmp_parts_d>
 8403f40:	100d883a 	mov	r6,r2
 8403f44:	3005883a 	mov	r2,r6
 8403f48:	dfc01017 	ldw	ra,64(sp)
 8403f4c:	dc400f17 	ldw	r17,60(sp)
 8403f50:	dc000e17 	ldw	r16,56(sp)
 8403f54:	dec01104 	addi	sp,sp,68
 8403f58:	f800283a 	ret

08403f5c <__gtdf2>:
 8403f5c:	deffef04 	addi	sp,sp,-68
 8403f60:	dc400f15 	stw	r17,60(sp)
 8403f64:	dc400404 	addi	r17,sp,16
 8403f68:	2005883a 	mov	r2,r4
 8403f6c:	2807883a 	mov	r3,r5
 8403f70:	dc000e15 	stw	r16,56(sp)
 8403f74:	d809883a 	mov	r4,sp
 8403f78:	880b883a 	mov	r5,r17
 8403f7c:	dc000904 	addi	r16,sp,36
 8403f80:	d8c00115 	stw	r3,4(sp)
 8403f84:	d8800015 	stw	r2,0(sp)
 8403f88:	d9800215 	stw	r6,8(sp)
 8403f8c:	dfc01015 	stw	ra,64(sp)
 8403f90:	d9c00315 	stw	r7,12(sp)
 8403f94:	8404b0c0 	call	8404b0c <__unpack_d>
 8403f98:	d9000204 	addi	r4,sp,8
 8403f9c:	800b883a 	mov	r5,r16
 8403fa0:	8404b0c0 	call	8404b0c <__unpack_d>
 8403fa4:	d8800417 	ldw	r2,16(sp)
 8403fa8:	00c00044 	movi	r3,1
 8403fac:	01bfffc4 	movi	r6,-1
 8403fb0:	1880062e 	bgeu	r3,r2,8403fcc <__gtdf2+0x70>
 8403fb4:	d8800917 	ldw	r2,36(sp)
 8403fb8:	8809883a 	mov	r4,r17
 8403fbc:	800b883a 	mov	r5,r16
 8403fc0:	1880022e 	bgeu	r3,r2,8403fcc <__gtdf2+0x70>
 8403fc4:	8404c440 	call	8404c44 <__fpcmp_parts_d>
 8403fc8:	100d883a 	mov	r6,r2
 8403fcc:	3005883a 	mov	r2,r6
 8403fd0:	dfc01017 	ldw	ra,64(sp)
 8403fd4:	dc400f17 	ldw	r17,60(sp)
 8403fd8:	dc000e17 	ldw	r16,56(sp)
 8403fdc:	dec01104 	addi	sp,sp,68
 8403fe0:	f800283a 	ret

08403fe4 <__ltdf2>:
 8403fe4:	deffef04 	addi	sp,sp,-68
 8403fe8:	dc400f15 	stw	r17,60(sp)
 8403fec:	dc400404 	addi	r17,sp,16
 8403ff0:	2005883a 	mov	r2,r4
 8403ff4:	2807883a 	mov	r3,r5
 8403ff8:	dc000e15 	stw	r16,56(sp)
 8403ffc:	d809883a 	mov	r4,sp
 8404000:	880b883a 	mov	r5,r17
 8404004:	dc000904 	addi	r16,sp,36
 8404008:	d8c00115 	stw	r3,4(sp)
 840400c:	d8800015 	stw	r2,0(sp)
 8404010:	d9800215 	stw	r6,8(sp)
 8404014:	dfc01015 	stw	ra,64(sp)
 8404018:	d9c00315 	stw	r7,12(sp)
 840401c:	8404b0c0 	call	8404b0c <__unpack_d>
 8404020:	d9000204 	addi	r4,sp,8
 8404024:	800b883a 	mov	r5,r16
 8404028:	8404b0c0 	call	8404b0c <__unpack_d>
 840402c:	d8800417 	ldw	r2,16(sp)
 8404030:	00c00044 	movi	r3,1
 8404034:	180d883a 	mov	r6,r3
 8404038:	1880062e 	bgeu	r3,r2,8404054 <__ltdf2+0x70>
 840403c:	d8800917 	ldw	r2,36(sp)
 8404040:	8809883a 	mov	r4,r17
 8404044:	800b883a 	mov	r5,r16
 8404048:	1880022e 	bgeu	r3,r2,8404054 <__ltdf2+0x70>
 840404c:	8404c440 	call	8404c44 <__fpcmp_parts_d>
 8404050:	100d883a 	mov	r6,r2
 8404054:	3005883a 	mov	r2,r6
 8404058:	dfc01017 	ldw	ra,64(sp)
 840405c:	dc400f17 	ldw	r17,60(sp)
 8404060:	dc000e17 	ldw	r16,56(sp)
 8404064:	dec01104 	addi	sp,sp,68
 8404068:	f800283a 	ret

0840406c <__ledf2>:
 840406c:	deffef04 	addi	sp,sp,-68
 8404070:	dc400f15 	stw	r17,60(sp)
 8404074:	dc400404 	addi	r17,sp,16
 8404078:	2005883a 	mov	r2,r4
 840407c:	2807883a 	mov	r3,r5
 8404080:	dc000e15 	stw	r16,56(sp)
 8404084:	d809883a 	mov	r4,sp
 8404088:	880b883a 	mov	r5,r17
 840408c:	dc000904 	addi	r16,sp,36
 8404090:	d8c00115 	stw	r3,4(sp)
 8404094:	d8800015 	stw	r2,0(sp)
 8404098:	d9800215 	stw	r6,8(sp)
 840409c:	dfc01015 	stw	ra,64(sp)
 84040a0:	d9c00315 	stw	r7,12(sp)
 84040a4:	8404b0c0 	call	8404b0c <__unpack_d>
 84040a8:	d9000204 	addi	r4,sp,8
 84040ac:	800b883a 	mov	r5,r16
 84040b0:	8404b0c0 	call	8404b0c <__unpack_d>
 84040b4:	d8800417 	ldw	r2,16(sp)
 84040b8:	00c00044 	movi	r3,1
 84040bc:	180d883a 	mov	r6,r3
 84040c0:	1880062e 	bgeu	r3,r2,84040dc <__ledf2+0x70>
 84040c4:	d8800917 	ldw	r2,36(sp)
 84040c8:	8809883a 	mov	r4,r17
 84040cc:	800b883a 	mov	r5,r16
 84040d0:	1880022e 	bgeu	r3,r2,84040dc <__ledf2+0x70>
 84040d4:	8404c440 	call	8404c44 <__fpcmp_parts_d>
 84040d8:	100d883a 	mov	r6,r2
 84040dc:	3005883a 	mov	r2,r6
 84040e0:	dfc01017 	ldw	ra,64(sp)
 84040e4:	dc400f17 	ldw	r17,60(sp)
 84040e8:	dc000e17 	ldw	r16,56(sp)
 84040ec:	dec01104 	addi	sp,sp,68
 84040f0:	f800283a 	ret

084040f4 <__floatsidf>:
 84040f4:	2006d7fa 	srli	r3,r4,31
 84040f8:	defff604 	addi	sp,sp,-40
 84040fc:	008000c4 	movi	r2,3
 8404100:	dfc00915 	stw	ra,36(sp)
 8404104:	dcc00815 	stw	r19,32(sp)
 8404108:	dc800715 	stw	r18,28(sp)
 840410c:	dc400615 	stw	r17,24(sp)
 8404110:	dc000515 	stw	r16,20(sp)
 8404114:	d8800015 	stw	r2,0(sp)
 8404118:	d8c00115 	stw	r3,4(sp)
 840411c:	20000f1e 	bne	r4,zero,840415c <__floatsidf+0x68>
 8404120:	00800084 	movi	r2,2
 8404124:	d8800015 	stw	r2,0(sp)
 8404128:	d809883a 	mov	r4,sp
 840412c:	84047f80 	call	84047f8 <__pack_d>
 8404130:	1009883a 	mov	r4,r2
 8404134:	180b883a 	mov	r5,r3
 8404138:	2005883a 	mov	r2,r4
 840413c:	2807883a 	mov	r3,r5
 8404140:	dfc00917 	ldw	ra,36(sp)
 8404144:	dcc00817 	ldw	r19,32(sp)
 8404148:	dc800717 	ldw	r18,28(sp)
 840414c:	dc400617 	ldw	r17,24(sp)
 8404150:	dc000517 	ldw	r16,20(sp)
 8404154:	dec00a04 	addi	sp,sp,40
 8404158:	f800283a 	ret
 840415c:	00800f04 	movi	r2,60
 8404160:	1807003a 	cmpeq	r3,r3,zero
 8404164:	d8800215 	stw	r2,8(sp)
 8404168:	18001126 	beq	r3,zero,84041b0 <__floatsidf+0xbc>
 840416c:	0027883a 	mov	r19,zero
 8404170:	2025883a 	mov	r18,r4
 8404174:	d9000315 	stw	r4,12(sp)
 8404178:	dcc00415 	stw	r19,16(sp)
 840417c:	840447c0 	call	840447c <__clzsi2>
 8404180:	11000744 	addi	r4,r2,29
 8404184:	013fe80e 	bge	zero,r4,8404128 <__floatsidf+0x34>
 8404188:	10bfff44 	addi	r2,r2,-3
 840418c:	10000c16 	blt	r2,zero,84041c0 <__floatsidf+0xcc>
 8404190:	90a2983a 	sll	r17,r18,r2
 8404194:	0021883a 	mov	r16,zero
 8404198:	d8800217 	ldw	r2,8(sp)
 840419c:	dc400415 	stw	r17,16(sp)
 84041a0:	dc000315 	stw	r16,12(sp)
 84041a4:	1105c83a 	sub	r2,r2,r4
 84041a8:	d8800215 	stw	r2,8(sp)
 84041ac:	003fde06 	br	8404128 <__floatsidf+0x34>
 84041b0:	00a00034 	movhi	r2,32768
 84041b4:	20800a26 	beq	r4,r2,84041e0 <__floatsidf+0xec>
 84041b8:	0109c83a 	sub	r4,zero,r4
 84041bc:	003feb06 	br	840416c <__floatsidf+0x78>
 84041c0:	9006d07a 	srli	r3,r18,1
 84041c4:	008007c4 	movi	r2,31
 84041c8:	1105c83a 	sub	r2,r2,r4
 84041cc:	1886d83a 	srl	r3,r3,r2
 84041d0:	9922983a 	sll	r17,r19,r4
 84041d4:	9120983a 	sll	r16,r18,r4
 84041d8:	1c62b03a 	or	r17,r3,r17
 84041dc:	003fee06 	br	8404198 <__floatsidf+0xa4>
 84041e0:	0009883a 	mov	r4,zero
 84041e4:	01707834 	movhi	r5,49632
 84041e8:	003fd306 	br	8404138 <__floatsidf+0x44>

084041ec <__make_dp>:
 84041ec:	defff904 	addi	sp,sp,-28
 84041f0:	d8c00717 	ldw	r3,28(sp)
 84041f4:	d9000015 	stw	r4,0(sp)
 84041f8:	d809883a 	mov	r4,sp
 84041fc:	dfc00515 	stw	ra,20(sp)
 8404200:	d9c00615 	stw	r7,24(sp)
 8404204:	d9400115 	stw	r5,4(sp)
 8404208:	d9800215 	stw	r6,8(sp)
 840420c:	d8c00415 	stw	r3,16(sp)
 8404210:	d9c00315 	stw	r7,12(sp)
 8404214:	84047f80 	call	84047f8 <__pack_d>
 8404218:	dfc00517 	ldw	ra,20(sp)
 840421c:	dec00704 	addi	sp,sp,28
 8404220:	f800283a 	ret

08404224 <__truncdfsf2>:
 8404224:	defff804 	addi	sp,sp,-32
 8404228:	2005883a 	mov	r2,r4
 840422c:	2807883a 	mov	r3,r5
 8404230:	d809883a 	mov	r4,sp
 8404234:	d9400204 	addi	r5,sp,8
 8404238:	d8c00115 	stw	r3,4(sp)
 840423c:	d8800015 	stw	r2,0(sp)
 8404240:	dfc00715 	stw	ra,28(sp)
 8404244:	8404b0c0 	call	8404b0c <__unpack_d>
 8404248:	d9c00517 	ldw	r7,20(sp)
 840424c:	da000617 	ldw	r8,24(sp)
 8404250:	02d00034 	movhi	r11,16384
 8404254:	5affffc4 	addi	r11,r11,-1
 8404258:	3812d7ba 	srli	r9,r7,30
 840425c:	401a90ba 	slli	r13,r8,2
 8404260:	3ac4703a 	and	r2,r7,r11
 8404264:	0007883a 	mov	r3,zero
 8404268:	6a52b03a 	or	r9,r13,r9
 840426c:	10c4b03a 	or	r2,r2,r3
 8404270:	d9000217 	ldw	r4,8(sp)
 8404274:	d9400317 	ldw	r5,12(sp)
 8404278:	d9800417 	ldw	r6,16(sp)
 840427c:	480f883a 	mov	r7,r9
 8404280:	10000126 	beq	r2,zero,8404288 <__truncdfsf2+0x64>
 8404284:	49c00054 	ori	r7,r9,1
 8404288:	84047cc0 	call	84047cc <__make_fp>
 840428c:	dfc00717 	ldw	ra,28(sp)
 8404290:	dec00804 	addi	sp,sp,32
 8404294:	f800283a 	ret

08404298 <udivmodsi4>:
 8404298:	29001b2e 	bgeu	r5,r4,8404308 <udivmodsi4+0x70>
 840429c:	28001a16 	blt	r5,zero,8404308 <udivmodsi4+0x70>
 84042a0:	00800044 	movi	r2,1
 84042a4:	0007883a 	mov	r3,zero
 84042a8:	01c007c4 	movi	r7,31
 84042ac:	00000306 	br	84042bc <udivmodsi4+0x24>
 84042b0:	19c01326 	beq	r3,r7,8404300 <udivmodsi4+0x68>
 84042b4:	18c00044 	addi	r3,r3,1
 84042b8:	28000416 	blt	r5,zero,84042cc <udivmodsi4+0x34>
 84042bc:	294b883a 	add	r5,r5,r5
 84042c0:	1085883a 	add	r2,r2,r2
 84042c4:	293ffa36 	bltu	r5,r4,84042b0 <udivmodsi4+0x18>
 84042c8:	10000d26 	beq	r2,zero,8404300 <udivmodsi4+0x68>
 84042cc:	0007883a 	mov	r3,zero
 84042d0:	21400236 	bltu	r4,r5,84042dc <udivmodsi4+0x44>
 84042d4:	2149c83a 	sub	r4,r4,r5
 84042d8:	1886b03a 	or	r3,r3,r2
 84042dc:	1004d07a 	srli	r2,r2,1
 84042e0:	280ad07a 	srli	r5,r5,1
 84042e4:	103ffa1e 	bne	r2,zero,84042d0 <udivmodsi4+0x38>
 84042e8:	30000226 	beq	r6,zero,84042f4 <udivmodsi4+0x5c>
 84042ec:	2005883a 	mov	r2,r4
 84042f0:	f800283a 	ret
 84042f4:	1809883a 	mov	r4,r3
 84042f8:	2005883a 	mov	r2,r4
 84042fc:	f800283a 	ret
 8404300:	0007883a 	mov	r3,zero
 8404304:	003ff806 	br	84042e8 <udivmodsi4+0x50>
 8404308:	00800044 	movi	r2,1
 840430c:	0007883a 	mov	r3,zero
 8404310:	003fef06 	br	84042d0 <udivmodsi4+0x38>

08404314 <__divsi3>:
 8404314:	defffe04 	addi	sp,sp,-8
 8404318:	dc000015 	stw	r16,0(sp)
 840431c:	dfc00115 	stw	ra,4(sp)
 8404320:	0021883a 	mov	r16,zero
 8404324:	20000c16 	blt	r4,zero,8404358 <__divsi3+0x44>
 8404328:	000d883a 	mov	r6,zero
 840432c:	28000e16 	blt	r5,zero,8404368 <__divsi3+0x54>
 8404330:	84042980 	call	8404298 <udivmodsi4>
 8404334:	1007883a 	mov	r3,r2
 8404338:	8005003a 	cmpeq	r2,r16,zero
 840433c:	1000011e 	bne	r2,zero,8404344 <__divsi3+0x30>
 8404340:	00c7c83a 	sub	r3,zero,r3
 8404344:	1805883a 	mov	r2,r3
 8404348:	dfc00117 	ldw	ra,4(sp)
 840434c:	dc000017 	ldw	r16,0(sp)
 8404350:	dec00204 	addi	sp,sp,8
 8404354:	f800283a 	ret
 8404358:	0109c83a 	sub	r4,zero,r4
 840435c:	04000044 	movi	r16,1
 8404360:	000d883a 	mov	r6,zero
 8404364:	283ff20e 	bge	r5,zero,8404330 <__divsi3+0x1c>
 8404368:	014bc83a 	sub	r5,zero,r5
 840436c:	8021003a 	cmpeq	r16,r16,zero
 8404370:	003fef06 	br	8404330 <__divsi3+0x1c>

08404374 <__modsi3>:
 8404374:	deffff04 	addi	sp,sp,-4
 8404378:	dfc00015 	stw	ra,0(sp)
 840437c:	01800044 	movi	r6,1
 8404380:	2807883a 	mov	r3,r5
 8404384:	20000416 	blt	r4,zero,8404398 <__modsi3+0x24>
 8404388:	28000c16 	blt	r5,zero,84043bc <__modsi3+0x48>
 840438c:	dfc00017 	ldw	ra,0(sp)
 8404390:	dec00104 	addi	sp,sp,4
 8404394:	84042981 	jmpi	8404298 <udivmodsi4>
 8404398:	0109c83a 	sub	r4,zero,r4
 840439c:	28000b16 	blt	r5,zero,84043cc <__modsi3+0x58>
 84043a0:	180b883a 	mov	r5,r3
 84043a4:	01800044 	movi	r6,1
 84043a8:	84042980 	call	8404298 <udivmodsi4>
 84043ac:	0085c83a 	sub	r2,zero,r2
 84043b0:	dfc00017 	ldw	ra,0(sp)
 84043b4:	dec00104 	addi	sp,sp,4
 84043b8:	f800283a 	ret
 84043bc:	014bc83a 	sub	r5,zero,r5
 84043c0:	dfc00017 	ldw	ra,0(sp)
 84043c4:	dec00104 	addi	sp,sp,4
 84043c8:	84042981 	jmpi	8404298 <udivmodsi4>
 84043cc:	0147c83a 	sub	r3,zero,r5
 84043d0:	003ff306 	br	84043a0 <__modsi3+0x2c>

084043d4 <__udivsi3>:
 84043d4:	000d883a 	mov	r6,zero
 84043d8:	84042981 	jmpi	8404298 <udivmodsi4>

084043dc <__umodsi3>:
 84043dc:	01800044 	movi	r6,1
 84043e0:	84042981 	jmpi	8404298 <udivmodsi4>

084043e4 <__muldi3>:
 84043e4:	2011883a 	mov	r8,r4
 84043e8:	427fffcc 	andi	r9,r8,65535
 84043ec:	4018d43a 	srli	r12,r8,16
 84043f0:	32bfffcc 	andi	r10,r6,65535
 84043f4:	3016d43a 	srli	r11,r6,16
 84043f8:	4a85383a 	mul	r2,r9,r10
 84043fc:	6295383a 	mul	r10,r12,r10
 8404400:	4ad3383a 	mul	r9,r9,r11
 8404404:	113fffcc 	andi	r4,r2,65535
 8404408:	1004d43a 	srli	r2,r2,16
 840440c:	4a93883a 	add	r9,r9,r10
 8404410:	3807883a 	mov	r3,r7
 8404414:	1245883a 	add	r2,r2,r9
 8404418:	280f883a 	mov	r7,r5
 840441c:	180b883a 	mov	r5,r3
 8404420:	1006943a 	slli	r3,r2,16
 8404424:	defffd04 	addi	sp,sp,-12
 8404428:	dc800215 	stw	r18,8(sp)
 840442c:	1907883a 	add	r3,r3,r4
 8404430:	dc400115 	stw	r17,4(sp)
 8404434:	dc000015 	stw	r16,0(sp)
 8404438:	4165383a 	mul	r18,r8,r5
 840443c:	31e3383a 	mul	r17,r6,r7
 8404440:	1012d43a 	srli	r9,r2,16
 8404444:	62d9383a 	mul	r12,r12,r11
 8404448:	181f883a 	mov	r15,r3
 840444c:	1280022e 	bgeu	r2,r10,8404458 <__muldi3+0x74>
 8404450:	00800074 	movhi	r2,1
 8404454:	6099883a 	add	r12,r12,r2
 8404458:	624d883a 	add	r6,r12,r9
 840445c:	9187883a 	add	r3,r18,r6
 8404460:	88c7883a 	add	r3,r17,r3
 8404464:	7805883a 	mov	r2,r15
 8404468:	dc800217 	ldw	r18,8(sp)
 840446c:	dc400117 	ldw	r17,4(sp)
 8404470:	dc000017 	ldw	r16,0(sp)
 8404474:	dec00304 	addi	sp,sp,12
 8404478:	f800283a 	ret

0840447c <__clzsi2>:
 840447c:	00bfffd4 	movui	r2,65535
 8404480:	11000e36 	bltu	r2,r4,84044bc <__clzsi2+0x40>
 8404484:	00803fc4 	movi	r2,255
 8404488:	01400204 	movi	r5,8
 840448c:	0007883a 	mov	r3,zero
 8404490:	11001036 	bltu	r2,r4,84044d4 <__clzsi2+0x58>
 8404494:	000b883a 	mov	r5,zero
 8404498:	20c6d83a 	srl	r3,r4,r3
 840449c:	00821074 	movhi	r2,2113
 84044a0:	10866204 	addi	r2,r2,6536
 84044a4:	1887883a 	add	r3,r3,r2
 84044a8:	18800003 	ldbu	r2,0(r3)
 84044ac:	00c00804 	movi	r3,32
 84044b0:	2885883a 	add	r2,r5,r2
 84044b4:	1885c83a 	sub	r2,r3,r2
 84044b8:	f800283a 	ret
 84044bc:	01400404 	movi	r5,16
 84044c0:	00804034 	movhi	r2,256
 84044c4:	10bfffc4 	addi	r2,r2,-1
 84044c8:	2807883a 	mov	r3,r5
 84044cc:	113ff22e 	bgeu	r2,r4,8404498 <__clzsi2+0x1c>
 84044d0:	01400604 	movi	r5,24
 84044d4:	2807883a 	mov	r3,r5
 84044d8:	20c6d83a 	srl	r3,r4,r3
 84044dc:	00821074 	movhi	r2,2113
 84044e0:	10866204 	addi	r2,r2,6536
 84044e4:	1887883a 	add	r3,r3,r2
 84044e8:	18800003 	ldbu	r2,0(r3)
 84044ec:	00c00804 	movi	r3,32
 84044f0:	2885883a 	add	r2,r5,r2
 84044f4:	1885c83a 	sub	r2,r3,r2
 84044f8:	f800283a 	ret

084044fc <__pack_f>:
 84044fc:	20c00017 	ldw	r3,0(r4)
 8404500:	01c00044 	movi	r7,1
 8404504:	21800317 	ldw	r6,12(r4)
 8404508:	21400117 	ldw	r5,4(r4)
 840450c:	38c02d2e 	bgeu	r7,r3,84045c4 <__pack_f+0xc8>
 8404510:	00800104 	movi	r2,4
 8404514:	18802826 	beq	r3,r2,84045b8 <__pack_f+0xbc>
 8404518:	00800084 	movi	r2,2
 840451c:	18800126 	beq	r3,r2,8404524 <__pack_f+0x28>
 8404520:	3000101e 	bne	r6,zero,8404564 <__pack_f+0x68>
 8404524:	000d883a 	mov	r6,zero
 8404528:	0007883a 	mov	r3,zero
 840452c:	19003fcc 	andi	r4,r3,255
 8404530:	200895fa 	slli	r4,r4,23
 8404534:	00c02034 	movhi	r3,128
 8404538:	18ffffc4 	addi	r3,r3,-1
 840453c:	30c6703a 	and	r3,r6,r3
 8404540:	10a0002c 	andhi	r2,r2,32768
 8404544:	10c4b03a 	or	r2,r2,r3
 8404548:	280a97fa 	slli	r5,r5,31
 840454c:	1104b03a 	or	r2,r2,r4
 8404550:	00e00034 	movhi	r3,32768
 8404554:	18ffffc4 	addi	r3,r3,-1
 8404558:	10c4703a 	and	r2,r2,r3
 840455c:	1144b03a 	or	r2,r2,r5
 8404560:	f800283a 	ret
 8404564:	21000217 	ldw	r4,8(r4)
 8404568:	00bfe084 	movi	r2,-126
 840456c:	20801b16 	blt	r4,r2,84045dc <__pack_f+0xe0>
 8404570:	00801fc4 	movi	r2,127
 8404574:	11001016 	blt	r2,r4,84045b8 <__pack_f+0xbc>
 8404578:	308e703a 	and	r7,r6,r2
 840457c:	2087883a 	add	r3,r4,r2
 8404580:	00801004 	movi	r2,64
 8404584:	38800526 	beq	r7,r2,840459c <__pack_f+0xa0>
 8404588:	31800fc4 	addi	r6,r6,63
 840458c:	30000716 	blt	r6,zero,84045ac <__pack_f+0xb0>
 8404590:	300490ba 	slli	r2,r6,2
 8404594:	100cd27a 	srli	r6,r2,9
 8404598:	003fe406 	br	840452c <__pack_f+0x30>
 840459c:	3080200c 	andi	r2,r6,128
 84045a0:	103ffa26 	beq	r2,zero,840458c <__pack_f+0x90>
 84045a4:	31cd883a 	add	r6,r6,r7
 84045a8:	003ff806 	br	840458c <__pack_f+0x90>
 84045ac:	300cd07a 	srli	r6,r6,1
 84045b0:	18c00044 	addi	r3,r3,1
 84045b4:	003ff606 	br	8404590 <__pack_f+0x94>
 84045b8:	000d883a 	mov	r6,zero
 84045bc:	00ffffc4 	movi	r3,-1
 84045c0:	003fda06 	br	840452c <__pack_f+0x30>
 84045c4:	31800434 	orhi	r6,r6,16
 84045c8:	00802034 	movhi	r2,128
 84045cc:	10bfffc4 	addi	r2,r2,-1
 84045d0:	308c703a 	and	r6,r6,r2
 84045d4:	00ffffc4 	movi	r3,-1
 84045d8:	003fd406 	br	840452c <__pack_f+0x30>
 84045dc:	1109c83a 	sub	r4,r2,r4
 84045e0:	00800644 	movi	r2,25
 84045e4:	11001216 	blt	r2,r4,8404630 <__pack_f+0x134>
 84045e8:	3904983a 	sll	r2,r7,r4
 84045ec:	3106d83a 	srl	r3,r6,r4
 84045f0:	10bfffc4 	addi	r2,r2,-1
 84045f4:	3084703a 	and	r2,r6,r2
 84045f8:	1004c03a 	cmpne	r2,r2,zero
 84045fc:	1886b03a 	or	r3,r3,r2
 8404600:	19001fcc 	andi	r4,r3,127
 8404604:	00801004 	movi	r2,64
 8404608:	20800c26 	beq	r4,r2,840463c <__pack_f+0x140>
 840460c:	18c00fc4 	addi	r3,r3,63
 8404610:	00900034 	movhi	r2,16384
 8404614:	10bfffc4 	addi	r2,r2,-1
 8404618:	180cd1fa 	srli	r6,r3,7
 840461c:	10c7803a 	cmpltu	r3,r2,r3
 8404620:	00802034 	movhi	r2,128
 8404624:	10bfffc4 	addi	r2,r2,-1
 8404628:	308c703a 	and	r6,r6,r2
 840462c:	003fbf06 	br	840452c <__pack_f+0x30>
 8404630:	0007883a 	mov	r3,zero
 8404634:	000d883a 	mov	r6,zero
 8404638:	003ff906 	br	8404620 <__pack_f+0x124>
 840463c:	1880200c 	andi	r2,r3,128
 8404640:	10000126 	beq	r2,zero,8404648 <__pack_f+0x14c>
 8404644:	1907883a 	add	r3,r3,r4
 8404648:	180cd1fa 	srli	r6,r3,7
 840464c:	00900034 	movhi	r2,16384
 8404650:	10bfffc4 	addi	r2,r2,-1
 8404654:	10c7803a 	cmpltu	r3,r2,r3
 8404658:	003ff106 	br	8404620 <__pack_f+0x124>

0840465c <__unpack_f>:
 840465c:	21800017 	ldw	r6,0(r4)
 8404660:	00c02034 	movhi	r3,128
 8404664:	18ffffc4 	addi	r3,r3,-1
 8404668:	3004d5fa 	srli	r2,r6,23
 840466c:	3008d7fa 	srli	r4,r6,31
 8404670:	30ce703a 	and	r7,r6,r3
 8404674:	10c03fcc 	andi	r3,r2,255
 8404678:	29000115 	stw	r4,4(r5)
 840467c:	1800131e 	bne	r3,zero,84046cc <__unpack_f+0x70>
 8404680:	38000f26 	beq	r7,zero,84046c0 <__unpack_f+0x64>
 8404684:	380691fa 	slli	r3,r7,7
 8404688:	01bfe084 	movi	r6,-126
 840468c:	008000c4 	movi	r2,3
 8404690:	01100034 	movhi	r4,16384
 8404694:	213fffc4 	addi	r4,r4,-1
 8404698:	28800015 	stw	r2,0(r5)
 840469c:	29800215 	stw	r6,8(r5)
 84046a0:	20c00536 	bltu	r4,r3,84046b8 <__unpack_f+0x5c>
 84046a4:	3005883a 	mov	r2,r6
 84046a8:	18c7883a 	add	r3,r3,r3
 84046ac:	10bfffc4 	addi	r2,r2,-1
 84046b0:	20fffd2e 	bgeu	r4,r3,84046a8 <__unpack_f+0x4c>
 84046b4:	28800215 	stw	r2,8(r5)
 84046b8:	28c00315 	stw	r3,12(r5)
 84046bc:	f800283a 	ret
 84046c0:	00800084 	movi	r2,2
 84046c4:	28800015 	stw	r2,0(r5)
 84046c8:	f800283a 	ret
 84046cc:	00803fc4 	movi	r2,255
 84046d0:	18800826 	beq	r3,r2,84046f4 <__unpack_f+0x98>
 84046d4:	380491fa 	slli	r2,r7,7
 84046d8:	18ffe044 	addi	r3,r3,-127
 84046dc:	28c00215 	stw	r3,8(r5)
 84046e0:	10900034 	orhi	r2,r2,16384
 84046e4:	28800315 	stw	r2,12(r5)
 84046e8:	008000c4 	movi	r2,3
 84046ec:	28800015 	stw	r2,0(r5)
 84046f0:	f800283a 	ret
 84046f4:	3800031e 	bne	r7,zero,8404704 <__unpack_f+0xa8>
 84046f8:	00800104 	movi	r2,4
 84046fc:	28800015 	stw	r2,0(r5)
 8404700:	f800283a 	ret
 8404704:	3080042c 	andhi	r2,r6,16
 8404708:	10000426 	beq	r2,zero,840471c <__unpack_f+0xc0>
 840470c:	00800044 	movi	r2,1
 8404710:	28800015 	stw	r2,0(r5)
 8404714:	29c00315 	stw	r7,12(r5)
 8404718:	f800283a 	ret
 840471c:	28000015 	stw	zero,0(r5)
 8404720:	003ffc06 	br	8404714 <__unpack_f+0xb8>

08404724 <__fpcmp_parts_f>:
 8404724:	21800017 	ldw	r6,0(r4)
 8404728:	00c00044 	movi	r3,1
 840472c:	19800a2e 	bgeu	r3,r6,8404758 <__fpcmp_parts_f+0x34>
 8404730:	28800017 	ldw	r2,0(r5)
 8404734:	1880082e 	bgeu	r3,r2,8404758 <__fpcmp_parts_f+0x34>
 8404738:	00c00104 	movi	r3,4
 840473c:	30c01e26 	beq	r6,r3,84047b8 <__fpcmp_parts_f+0x94>
 8404740:	10c01a26 	beq	r2,r3,84047ac <__fpcmp_parts_f+0x88>
 8404744:	00c00084 	movi	r3,2
 8404748:	30c00526 	beq	r6,r3,8404760 <__fpcmp_parts_f+0x3c>
 840474c:	10c0071e 	bne	r2,r3,840476c <__fpcmp_parts_f+0x48>
 8404750:	20800117 	ldw	r2,4(r4)
 8404754:	1000091e 	bne	r2,zero,840477c <__fpcmp_parts_f+0x58>
 8404758:	00800044 	movi	r2,1
 840475c:	f800283a 	ret
 8404760:	10c0121e 	bne	r2,r3,84047ac <__fpcmp_parts_f+0x88>
 8404764:	0005883a 	mov	r2,zero
 8404768:	f800283a 	ret
 840476c:	20c00117 	ldw	r3,4(r4)
 8404770:	28800117 	ldw	r2,4(r5)
 8404774:	18800326 	beq	r3,r2,8404784 <__fpcmp_parts_f+0x60>
 8404778:	183ff726 	beq	r3,zero,8404758 <__fpcmp_parts_f+0x34>
 840477c:	00bfffc4 	movi	r2,-1
 8404780:	f800283a 	ret
 8404784:	21800217 	ldw	r6,8(r4)
 8404788:	28800217 	ldw	r2,8(r5)
 840478c:	11bffa16 	blt	r2,r6,8404778 <__fpcmp_parts_f+0x54>
 8404790:	30800416 	blt	r6,r2,84047a4 <__fpcmp_parts_f+0x80>
 8404794:	21000317 	ldw	r4,12(r4)
 8404798:	29400317 	ldw	r5,12(r5)
 840479c:	293ff636 	bltu	r5,r4,8404778 <__fpcmp_parts_f+0x54>
 84047a0:	217ff02e 	bgeu	r4,r5,8404764 <__fpcmp_parts_f+0x40>
 84047a4:	183fec1e 	bne	r3,zero,8404758 <__fpcmp_parts_f+0x34>
 84047a8:	003ff406 	br	840477c <__fpcmp_parts_f+0x58>
 84047ac:	28800117 	ldw	r2,4(r5)
 84047b0:	103fe91e 	bne	r2,zero,8404758 <__fpcmp_parts_f+0x34>
 84047b4:	003ff106 	br	840477c <__fpcmp_parts_f+0x58>
 84047b8:	11bfe51e 	bne	r2,r6,8404750 <__fpcmp_parts_f+0x2c>
 84047bc:	28c00117 	ldw	r3,4(r5)
 84047c0:	20800117 	ldw	r2,4(r4)
 84047c4:	1885c83a 	sub	r2,r3,r2
 84047c8:	f800283a 	ret

084047cc <__make_fp>:
 84047cc:	defffb04 	addi	sp,sp,-20
 84047d0:	d9000015 	stw	r4,0(sp)
 84047d4:	d809883a 	mov	r4,sp
 84047d8:	dfc00415 	stw	ra,16(sp)
 84047dc:	d9400115 	stw	r5,4(sp)
 84047e0:	d9800215 	stw	r6,8(sp)
 84047e4:	d9c00315 	stw	r7,12(sp)
 84047e8:	84044fc0 	call	84044fc <__pack_f>
 84047ec:	dfc00417 	ldw	ra,16(sp)
 84047f0:	dec00504 	addi	sp,sp,20
 84047f4:	f800283a 	ret

084047f8 <__pack_d>:
 84047f8:	20c00017 	ldw	r3,0(r4)
 84047fc:	defffd04 	addi	sp,sp,-12
 8404800:	dc000015 	stw	r16,0(sp)
 8404804:	dc800215 	stw	r18,8(sp)
 8404808:	dc400115 	stw	r17,4(sp)
 840480c:	00800044 	movi	r2,1
 8404810:	22000317 	ldw	r8,12(r4)
 8404814:	001f883a 	mov	r15,zero
 8404818:	22400417 	ldw	r9,16(r4)
 840481c:	24000117 	ldw	r16,4(r4)
 8404820:	10c0552e 	bgeu	r2,r3,8404978 <__pack_d+0x180>
 8404824:	00800104 	movi	r2,4
 8404828:	18804f26 	beq	r3,r2,8404968 <__pack_d+0x170>
 840482c:	00800084 	movi	r2,2
 8404830:	18800226 	beq	r3,r2,840483c <__pack_d+0x44>
 8404834:	4244b03a 	or	r2,r8,r9
 8404838:	10001a1e 	bne	r2,zero,84048a4 <__pack_d+0xac>
 840483c:	000d883a 	mov	r6,zero
 8404840:	000f883a 	mov	r7,zero
 8404844:	0011883a 	mov	r8,zero
 8404848:	00800434 	movhi	r2,16
 840484c:	10bfffc4 	addi	r2,r2,-1
 8404850:	301d883a 	mov	r14,r6
 8404854:	3884703a 	and	r2,r7,r2
 8404858:	400a953a 	slli	r5,r8,20
 840485c:	79bffc2c 	andhi	r6,r15,65520
 8404860:	308cb03a 	or	r6,r6,r2
 8404864:	00e00434 	movhi	r3,32784
 8404868:	18ffffc4 	addi	r3,r3,-1
 840486c:	800497fa 	slli	r2,r16,31
 8404870:	30c6703a 	and	r3,r6,r3
 8404874:	1946b03a 	or	r3,r3,r5
 8404878:	01600034 	movhi	r5,32768
 840487c:	297fffc4 	addi	r5,r5,-1
 8404880:	194a703a 	and	r5,r3,r5
 8404884:	288ab03a 	or	r5,r5,r2
 8404888:	2807883a 	mov	r3,r5
 840488c:	7005883a 	mov	r2,r14
 8404890:	dc800217 	ldw	r18,8(sp)
 8404894:	dc400117 	ldw	r17,4(sp)
 8404898:	dc000017 	ldw	r16,0(sp)
 840489c:	dec00304 	addi	sp,sp,12
 84048a0:	f800283a 	ret
 84048a4:	21000217 	ldw	r4,8(r4)
 84048a8:	00bf0084 	movi	r2,-1022
 84048ac:	20803f16 	blt	r4,r2,84049ac <__pack_d+0x1b4>
 84048b0:	0080ffc4 	movi	r2,1023
 84048b4:	11002c16 	blt	r2,r4,8404968 <__pack_d+0x170>
 84048b8:	00803fc4 	movi	r2,255
 84048bc:	408c703a 	and	r6,r8,r2
 84048c0:	00802004 	movi	r2,128
 84048c4:	0007883a 	mov	r3,zero
 84048c8:	000f883a 	mov	r7,zero
 84048cc:	2280ffc4 	addi	r10,r4,1023
 84048d0:	30801e26 	beq	r6,r2,840494c <__pack_d+0x154>
 84048d4:	00801fc4 	movi	r2,127
 84048d8:	4089883a 	add	r4,r8,r2
 84048dc:	220d803a 	cmpltu	r6,r4,r8
 84048e0:	324d883a 	add	r6,r6,r9
 84048e4:	2011883a 	mov	r8,r4
 84048e8:	3013883a 	mov	r9,r6
 84048ec:	00880034 	movhi	r2,8192
 84048f0:	10bfffc4 	addi	r2,r2,-1
 84048f4:	12400d36 	bltu	r2,r9,840492c <__pack_d+0x134>
 84048f8:	4804963a 	slli	r2,r9,24
 84048fc:	400cd23a 	srli	r6,r8,8
 8404900:	480ed23a 	srli	r7,r9,8
 8404904:	013fffc4 	movi	r4,-1
 8404908:	118cb03a 	or	r6,r2,r6
 840490c:	01400434 	movhi	r5,16
 8404910:	297fffc4 	addi	r5,r5,-1
 8404914:	3104703a 	and	r2,r6,r4
 8404918:	3946703a 	and	r3,r7,r5
 840491c:	5201ffcc 	andi	r8,r10,2047
 8404920:	100d883a 	mov	r6,r2
 8404924:	180f883a 	mov	r7,r3
 8404928:	003fc706 	br	8404848 <__pack_d+0x50>
 840492c:	480897fa 	slli	r4,r9,31
 8404930:	4004d07a 	srli	r2,r8,1
 8404934:	4806d07a 	srli	r3,r9,1
 8404938:	52800044 	addi	r10,r10,1
 840493c:	2084b03a 	or	r2,r4,r2
 8404940:	1011883a 	mov	r8,r2
 8404944:	1813883a 	mov	r9,r3
 8404948:	003feb06 	br	84048f8 <__pack_d+0x100>
 840494c:	383fe11e 	bne	r7,zero,84048d4 <__pack_d+0xdc>
 8404950:	01004004 	movi	r4,256
 8404954:	4104703a 	and	r2,r8,r4
 8404958:	10c4b03a 	or	r2,r2,r3
 840495c:	103fe326 	beq	r2,zero,84048ec <__pack_d+0xf4>
 8404960:	3005883a 	mov	r2,r6
 8404964:	003fdc06 	br	84048d8 <__pack_d+0xe0>
 8404968:	000d883a 	mov	r6,zero
 840496c:	000f883a 	mov	r7,zero
 8404970:	0201ffc4 	movi	r8,2047
 8404974:	003fb406 	br	8404848 <__pack_d+0x50>
 8404978:	0005883a 	mov	r2,zero
 840497c:	00c00234 	movhi	r3,8
 8404980:	408cb03a 	or	r6,r8,r2
 8404984:	48ceb03a 	or	r7,r9,r3
 8404988:	013fffc4 	movi	r4,-1
 840498c:	01400434 	movhi	r5,16
 8404990:	297fffc4 	addi	r5,r5,-1
 8404994:	3104703a 	and	r2,r6,r4
 8404998:	3946703a 	and	r3,r7,r5
 840499c:	100d883a 	mov	r6,r2
 84049a0:	180f883a 	mov	r7,r3
 84049a4:	0201ffc4 	movi	r8,2047
 84049a8:	003fa706 	br	8404848 <__pack_d+0x50>
 84049ac:	1109c83a 	sub	r4,r2,r4
 84049b0:	00800e04 	movi	r2,56
 84049b4:	11004316 	blt	r2,r4,8404ac4 <__pack_d+0x2cc>
 84049b8:	21fff804 	addi	r7,r4,-32
 84049bc:	38004516 	blt	r7,zero,8404ad4 <__pack_d+0x2dc>
 84049c0:	49d8d83a 	srl	r12,r9,r7
 84049c4:	001b883a 	mov	r13,zero
 84049c8:	0023883a 	mov	r17,zero
 84049cc:	01400044 	movi	r5,1
 84049d0:	0025883a 	mov	r18,zero
 84049d4:	38004716 	blt	r7,zero,8404af4 <__pack_d+0x2fc>
 84049d8:	29d6983a 	sll	r11,r5,r7
 84049dc:	0015883a 	mov	r10,zero
 84049e0:	00bfffc4 	movi	r2,-1
 84049e4:	5089883a 	add	r4,r10,r2
 84049e8:	588b883a 	add	r5,r11,r2
 84049ec:	228d803a 	cmpltu	r6,r4,r10
 84049f0:	314b883a 	add	r5,r6,r5
 84049f4:	4104703a 	and	r2,r8,r4
 84049f8:	4946703a 	and	r3,r9,r5
 84049fc:	10c4b03a 	or	r2,r2,r3
 8404a00:	10000226 	beq	r2,zero,8404a0c <__pack_d+0x214>
 8404a04:	04400044 	movi	r17,1
 8404a08:	0025883a 	mov	r18,zero
 8404a0c:	00803fc4 	movi	r2,255
 8404a10:	644eb03a 	or	r7,r12,r17
 8404a14:	3892703a 	and	r9,r7,r2
 8404a18:	00802004 	movi	r2,128
 8404a1c:	6c90b03a 	or	r8,r13,r18
 8404a20:	0015883a 	mov	r10,zero
 8404a24:	48801626 	beq	r9,r2,8404a80 <__pack_d+0x288>
 8404a28:	01001fc4 	movi	r4,127
 8404a2c:	3905883a 	add	r2,r7,r4
 8404a30:	11cd803a 	cmpltu	r6,r2,r7
 8404a34:	320d883a 	add	r6,r6,r8
 8404a38:	100f883a 	mov	r7,r2
 8404a3c:	00840034 	movhi	r2,4096
 8404a40:	10bfffc4 	addi	r2,r2,-1
 8404a44:	3011883a 	mov	r8,r6
 8404a48:	0007883a 	mov	r3,zero
 8404a4c:	11801b36 	bltu	r2,r6,8404abc <__pack_d+0x2c4>
 8404a50:	4004963a 	slli	r2,r8,24
 8404a54:	3808d23a 	srli	r4,r7,8
 8404a58:	400ad23a 	srli	r5,r8,8
 8404a5c:	1813883a 	mov	r9,r3
 8404a60:	1108b03a 	or	r4,r2,r4
 8404a64:	00bfffc4 	movi	r2,-1
 8404a68:	00c00434 	movhi	r3,16
 8404a6c:	18ffffc4 	addi	r3,r3,-1
 8404a70:	208c703a 	and	r6,r4,r2
 8404a74:	28ce703a 	and	r7,r5,r3
 8404a78:	4a01ffcc 	andi	r8,r9,2047
 8404a7c:	003f7206 	br	8404848 <__pack_d+0x50>
 8404a80:	503fe91e 	bne	r10,zero,8404a28 <__pack_d+0x230>
 8404a84:	01004004 	movi	r4,256
 8404a88:	3904703a 	and	r2,r7,r4
 8404a8c:	0007883a 	mov	r3,zero
 8404a90:	10c4b03a 	or	r2,r2,r3
 8404a94:	10000626 	beq	r2,zero,8404ab0 <__pack_d+0x2b8>
 8404a98:	3a45883a 	add	r2,r7,r9
 8404a9c:	11cd803a 	cmpltu	r6,r2,r7
 8404aa0:	320d883a 	add	r6,r6,r8
 8404aa4:	100f883a 	mov	r7,r2
 8404aa8:	3011883a 	mov	r8,r6
 8404aac:	0007883a 	mov	r3,zero
 8404ab0:	00840034 	movhi	r2,4096
 8404ab4:	10bfffc4 	addi	r2,r2,-1
 8404ab8:	123fe52e 	bgeu	r2,r8,8404a50 <__pack_d+0x258>
 8404abc:	00c00044 	movi	r3,1
 8404ac0:	003fe306 	br	8404a50 <__pack_d+0x258>
 8404ac4:	0009883a 	mov	r4,zero
 8404ac8:	0013883a 	mov	r9,zero
 8404acc:	000b883a 	mov	r5,zero
 8404ad0:	003fe406 	br	8404a64 <__pack_d+0x26c>
 8404ad4:	4a47883a 	add	r3,r9,r9
 8404ad8:	008007c4 	movi	r2,31
 8404adc:	1105c83a 	sub	r2,r2,r4
 8404ae0:	1886983a 	sll	r3,r3,r2
 8404ae4:	4118d83a 	srl	r12,r8,r4
 8404ae8:	491ad83a 	srl	r13,r9,r4
 8404aec:	1b18b03a 	or	r12,r3,r12
 8404af0:	003fb506 	br	84049c8 <__pack_d+0x1d0>
 8404af4:	2806d07a 	srli	r3,r5,1
 8404af8:	008007c4 	movi	r2,31
 8404afc:	1105c83a 	sub	r2,r2,r4
 8404b00:	1896d83a 	srl	r11,r3,r2
 8404b04:	2914983a 	sll	r10,r5,r4
 8404b08:	003fb506 	br	84049e0 <__pack_d+0x1e8>

08404b0c <__unpack_d>:
 8404b0c:	20c00117 	ldw	r3,4(r4)
 8404b10:	22400017 	ldw	r9,0(r4)
 8404b14:	00800434 	movhi	r2,16
 8404b18:	10bfffc4 	addi	r2,r2,-1
 8404b1c:	1808d53a 	srli	r4,r3,20
 8404b20:	180cd7fa 	srli	r6,r3,31
 8404b24:	1894703a 	and	r10,r3,r2
 8404b28:	2201ffcc 	andi	r8,r4,2047
 8404b2c:	281b883a 	mov	r13,r5
 8404b30:	4817883a 	mov	r11,r9
 8404b34:	29800115 	stw	r6,4(r5)
 8404b38:	5019883a 	mov	r12,r10
 8404b3c:	40001e1e 	bne	r8,zero,8404bb8 <__unpack_d+0xac>
 8404b40:	4a84b03a 	or	r2,r9,r10
 8404b44:	10001926 	beq	r2,zero,8404bac <__unpack_d+0xa0>
 8404b48:	4804d63a 	srli	r2,r9,24
 8404b4c:	500c923a 	slli	r6,r10,8
 8404b50:	013f0084 	movi	r4,-1022
 8404b54:	00c40034 	movhi	r3,4096
 8404b58:	18ffffc4 	addi	r3,r3,-1
 8404b5c:	118cb03a 	or	r6,r2,r6
 8404b60:	008000c4 	movi	r2,3
 8404b64:	480a923a 	slli	r5,r9,8
 8404b68:	68800015 	stw	r2,0(r13)
 8404b6c:	69000215 	stw	r4,8(r13)
 8404b70:	19800b36 	bltu	r3,r6,8404ba0 <__unpack_d+0x94>
 8404b74:	200f883a 	mov	r7,r4
 8404b78:	1811883a 	mov	r8,r3
 8404b7c:	2945883a 	add	r2,r5,r5
 8404b80:	1149803a 	cmpltu	r4,r2,r5
 8404b84:	3187883a 	add	r3,r6,r6
 8404b88:	20c9883a 	add	r4,r4,r3
 8404b8c:	100b883a 	mov	r5,r2
 8404b90:	200d883a 	mov	r6,r4
 8404b94:	39ffffc4 	addi	r7,r7,-1
 8404b98:	413ff82e 	bgeu	r8,r4,8404b7c <__unpack_d+0x70>
 8404b9c:	69c00215 	stw	r7,8(r13)
 8404ba0:	69800415 	stw	r6,16(r13)
 8404ba4:	69400315 	stw	r5,12(r13)
 8404ba8:	f800283a 	ret
 8404bac:	00800084 	movi	r2,2
 8404bb0:	28800015 	stw	r2,0(r5)
 8404bb4:	f800283a 	ret
 8404bb8:	0081ffc4 	movi	r2,2047
 8404bbc:	40800f26 	beq	r8,r2,8404bfc <__unpack_d+0xf0>
 8404bc0:	480cd63a 	srli	r6,r9,24
 8404bc4:	5006923a 	slli	r3,r10,8
 8404bc8:	4804923a 	slli	r2,r9,8
 8404bcc:	0009883a 	mov	r4,zero
 8404bd0:	30c6b03a 	or	r3,r6,r3
 8404bd4:	01440034 	movhi	r5,4096
 8404bd8:	110cb03a 	or	r6,r2,r4
 8404bdc:	423f0044 	addi	r8,r8,-1023
 8404be0:	194eb03a 	or	r7,r3,r5
 8404be4:	008000c4 	movi	r2,3
 8404be8:	69c00415 	stw	r7,16(r13)
 8404bec:	6a000215 	stw	r8,8(r13)
 8404bf0:	68800015 	stw	r2,0(r13)
 8404bf4:	69800315 	stw	r6,12(r13)
 8404bf8:	f800283a 	ret
 8404bfc:	4a84b03a 	or	r2,r9,r10
 8404c00:	1000031e 	bne	r2,zero,8404c10 <__unpack_d+0x104>
 8404c04:	00800104 	movi	r2,4
 8404c08:	28800015 	stw	r2,0(r5)
 8404c0c:	f800283a 	ret
 8404c10:	0009883a 	mov	r4,zero
 8404c14:	01400234 	movhi	r5,8
 8404c18:	4904703a 	and	r2,r9,r4
 8404c1c:	5146703a 	and	r3,r10,r5
 8404c20:	10c4b03a 	or	r2,r2,r3
 8404c24:	10000526 	beq	r2,zero,8404c3c <__unpack_d+0x130>
 8404c28:	00800044 	movi	r2,1
 8404c2c:	68800015 	stw	r2,0(r13)
 8404c30:	6b000415 	stw	r12,16(r13)
 8404c34:	6ac00315 	stw	r11,12(r13)
 8404c38:	f800283a 	ret
 8404c3c:	68000015 	stw	zero,0(r13)
 8404c40:	003ffb06 	br	8404c30 <__unpack_d+0x124>

08404c44 <__fpcmp_parts_d>:
 8404c44:	21800017 	ldw	r6,0(r4)
 8404c48:	00c00044 	movi	r3,1
 8404c4c:	19800a2e 	bgeu	r3,r6,8404c78 <__fpcmp_parts_d+0x34>
 8404c50:	28800017 	ldw	r2,0(r5)
 8404c54:	1880082e 	bgeu	r3,r2,8404c78 <__fpcmp_parts_d+0x34>
 8404c58:	00c00104 	movi	r3,4
 8404c5c:	30c02626 	beq	r6,r3,8404cf8 <__fpcmp_parts_d+0xb4>
 8404c60:	10c02226 	beq	r2,r3,8404cec <__fpcmp_parts_d+0xa8>
 8404c64:	00c00084 	movi	r3,2
 8404c68:	30c00526 	beq	r6,r3,8404c80 <__fpcmp_parts_d+0x3c>
 8404c6c:	10c0071e 	bne	r2,r3,8404c8c <__fpcmp_parts_d+0x48>
 8404c70:	20800117 	ldw	r2,4(r4)
 8404c74:	1000091e 	bne	r2,zero,8404c9c <__fpcmp_parts_d+0x58>
 8404c78:	00800044 	movi	r2,1
 8404c7c:	f800283a 	ret
 8404c80:	10c01a1e 	bne	r2,r3,8404cec <__fpcmp_parts_d+0xa8>
 8404c84:	0005883a 	mov	r2,zero
 8404c88:	f800283a 	ret
 8404c8c:	22000117 	ldw	r8,4(r4)
 8404c90:	28800117 	ldw	r2,4(r5)
 8404c94:	40800326 	beq	r8,r2,8404ca4 <__fpcmp_parts_d+0x60>
 8404c98:	403ff726 	beq	r8,zero,8404c78 <__fpcmp_parts_d+0x34>
 8404c9c:	00bfffc4 	movi	r2,-1
 8404ca0:	f800283a 	ret
 8404ca4:	20c00217 	ldw	r3,8(r4)
 8404ca8:	28800217 	ldw	r2,8(r5)
 8404cac:	10fffa16 	blt	r2,r3,8404c98 <__fpcmp_parts_d+0x54>
 8404cb0:	18800916 	blt	r3,r2,8404cd8 <__fpcmp_parts_d+0x94>
 8404cb4:	21c00417 	ldw	r7,16(r4)
 8404cb8:	28c00417 	ldw	r3,16(r5)
 8404cbc:	21800317 	ldw	r6,12(r4)
 8404cc0:	28800317 	ldw	r2,12(r5)
 8404cc4:	19fff436 	bltu	r3,r7,8404c98 <__fpcmp_parts_d+0x54>
 8404cc8:	38c00526 	beq	r7,r3,8404ce0 <__fpcmp_parts_d+0x9c>
 8404ccc:	38c00236 	bltu	r7,r3,8404cd8 <__fpcmp_parts_d+0x94>
 8404cd0:	19ffec1e 	bne	r3,r7,8404c84 <__fpcmp_parts_d+0x40>
 8404cd4:	30bfeb2e 	bgeu	r6,r2,8404c84 <__fpcmp_parts_d+0x40>
 8404cd8:	403fe71e 	bne	r8,zero,8404c78 <__fpcmp_parts_d+0x34>
 8404cdc:	003fef06 	br	8404c9c <__fpcmp_parts_d+0x58>
 8404ce0:	11bffa2e 	bgeu	r2,r6,8404ccc <__fpcmp_parts_d+0x88>
 8404ce4:	403fe426 	beq	r8,zero,8404c78 <__fpcmp_parts_d+0x34>
 8404ce8:	003fec06 	br	8404c9c <__fpcmp_parts_d+0x58>
 8404cec:	28800117 	ldw	r2,4(r5)
 8404cf0:	103fe11e 	bne	r2,zero,8404c78 <__fpcmp_parts_d+0x34>
 8404cf4:	003fe906 	br	8404c9c <__fpcmp_parts_d+0x58>
 8404cf8:	11bfdd1e 	bne	r2,r6,8404c70 <__fpcmp_parts_d+0x2c>
 8404cfc:	28c00117 	ldw	r3,4(r5)
 8404d00:	20800117 	ldw	r2,4(r4)
 8404d04:	1885c83a 	sub	r2,r3,r2
 8404d08:	f800283a 	ret

08404d0c <__errno>:
 8404d0c:	00c21074 	movhi	r3,2113
 8404d10:	18ce5204 	addi	r3,r3,14664
 8404d14:	18800017 	ldw	r2,0(r3)
 8404d18:	f800283a 	ret

08404d1c <printf>:
 8404d1c:	defffb04 	addi	sp,sp,-20
 8404d20:	dfc00115 	stw	ra,4(sp)
 8404d24:	d9400215 	stw	r5,8(sp)
 8404d28:	d9800315 	stw	r6,12(sp)
 8404d2c:	d9c00415 	stw	r7,16(sp)
 8404d30:	00821074 	movhi	r2,2113
 8404d34:	108e5204 	addi	r2,r2,14664
 8404d38:	10c00017 	ldw	r3,0(r2)
 8404d3c:	200b883a 	mov	r5,r4
 8404d40:	d8800204 	addi	r2,sp,8
 8404d44:	19000217 	ldw	r4,8(r3)
 8404d48:	100d883a 	mov	r6,r2
 8404d4c:	d8800015 	stw	r2,0(sp)
 8404d50:	8406dc00 	call	8406dc0 <__vfprintf_internal>
 8404d54:	dfc00117 	ldw	ra,4(sp)
 8404d58:	dec00504 	addi	sp,sp,20
 8404d5c:	f800283a 	ret

08404d60 <_printf_r>:
 8404d60:	defffc04 	addi	sp,sp,-16
 8404d64:	dfc00115 	stw	ra,4(sp)
 8404d68:	d9800215 	stw	r6,8(sp)
 8404d6c:	d9c00315 	stw	r7,12(sp)
 8404d70:	280d883a 	mov	r6,r5
 8404d74:	21400217 	ldw	r5,8(r4)
 8404d78:	d8c00204 	addi	r3,sp,8
 8404d7c:	180f883a 	mov	r7,r3
 8404d80:	d8c00015 	stw	r3,0(sp)
 8404d84:	8404f140 	call	8404f14 <___vfprintf_internal_r>
 8404d88:	dfc00117 	ldw	ra,4(sp)
 8404d8c:	dec00404 	addi	sp,sp,16
 8404d90:	f800283a 	ret

08404d94 <_puts_r>:
 8404d94:	defff604 	addi	sp,sp,-40
 8404d98:	dc400715 	stw	r17,28(sp)
 8404d9c:	2023883a 	mov	r17,r4
 8404da0:	2809883a 	mov	r4,r5
 8404da4:	dfc00915 	stw	ra,36(sp)
 8404da8:	dcc00815 	stw	r19,32(sp)
 8404dac:	2827883a 	mov	r19,r5
 8404db0:	8404e480 	call	8404e48 <strlen>
 8404db4:	89400217 	ldw	r5,8(r17)
 8404db8:	00c21074 	movhi	r3,2113
 8404dbc:	18c6a304 	addi	r3,r3,6796
 8404dc0:	01c00044 	movi	r7,1
 8404dc4:	12000044 	addi	r8,r2,1
 8404dc8:	d8c00515 	stw	r3,20(sp)
 8404dcc:	d9c00615 	stw	r7,24(sp)
 8404dd0:	d8c00304 	addi	r3,sp,12
 8404dd4:	01c00084 	movi	r7,2
 8404dd8:	8809883a 	mov	r4,r17
 8404ddc:	d80d883a 	mov	r6,sp
 8404de0:	d8c00015 	stw	r3,0(sp)
 8404de4:	dcc00315 	stw	r19,12(sp)
 8404de8:	da000215 	stw	r8,8(sp)
 8404dec:	d9c00115 	stw	r7,4(sp)
 8404df0:	d8800415 	stw	r2,16(sp)
 8404df4:	840901c0 	call	840901c <__sfvwrite_r>
 8404df8:	00ffffc4 	movi	r3,-1
 8404dfc:	10000626 	beq	r2,zero,8404e18 <_puts_r+0x84>
 8404e00:	1805883a 	mov	r2,r3
 8404e04:	dfc00917 	ldw	ra,36(sp)
 8404e08:	dcc00817 	ldw	r19,32(sp)
 8404e0c:	dc400717 	ldw	r17,28(sp)
 8404e10:	dec00a04 	addi	sp,sp,40
 8404e14:	f800283a 	ret
 8404e18:	00c00284 	movi	r3,10
 8404e1c:	1805883a 	mov	r2,r3
 8404e20:	dfc00917 	ldw	ra,36(sp)
 8404e24:	dcc00817 	ldw	r19,32(sp)
 8404e28:	dc400717 	ldw	r17,28(sp)
 8404e2c:	dec00a04 	addi	sp,sp,40
 8404e30:	f800283a 	ret

08404e34 <puts>:
 8404e34:	00821074 	movhi	r2,2113
 8404e38:	108e5204 	addi	r2,r2,14664
 8404e3c:	200b883a 	mov	r5,r4
 8404e40:	11000017 	ldw	r4,0(r2)
 8404e44:	8404d941 	jmpi	8404d94 <_puts_r>

08404e48 <strlen>:
 8404e48:	208000cc 	andi	r2,r4,3
 8404e4c:	2011883a 	mov	r8,r4
 8404e50:	1000161e 	bne	r2,zero,8404eac <strlen+0x64>
 8404e54:	20c00017 	ldw	r3,0(r4)
 8404e58:	017fbff4 	movhi	r5,65279
 8404e5c:	297fbfc4 	addi	r5,r5,-257
 8404e60:	01e02074 	movhi	r7,32897
 8404e64:	39e02004 	addi	r7,r7,-32640
 8404e68:	1945883a 	add	r2,r3,r5
 8404e6c:	11c4703a 	and	r2,r2,r7
 8404e70:	00c6303a 	nor	r3,zero,r3
 8404e74:	1886703a 	and	r3,r3,r2
 8404e78:	18000c1e 	bne	r3,zero,8404eac <strlen+0x64>
 8404e7c:	280d883a 	mov	r6,r5
 8404e80:	380b883a 	mov	r5,r7
 8404e84:	21000104 	addi	r4,r4,4
 8404e88:	20800017 	ldw	r2,0(r4)
 8404e8c:	1187883a 	add	r3,r2,r6
 8404e90:	1946703a 	and	r3,r3,r5
 8404e94:	0084303a 	nor	r2,zero,r2
 8404e98:	10c4703a 	and	r2,r2,r3
 8404e9c:	103ff926 	beq	r2,zero,8404e84 <strlen+0x3c>
 8404ea0:	20800007 	ldb	r2,0(r4)
 8404ea4:	10000326 	beq	r2,zero,8404eb4 <strlen+0x6c>
 8404ea8:	21000044 	addi	r4,r4,1
 8404eac:	20800007 	ldb	r2,0(r4)
 8404eb0:	103ffd1e 	bne	r2,zero,8404ea8 <strlen+0x60>
 8404eb4:	2205c83a 	sub	r2,r4,r8
 8404eb8:	f800283a 	ret

08404ebc <__sprint_r>:
 8404ebc:	30800217 	ldw	r2,8(r6)
 8404ec0:	defffe04 	addi	sp,sp,-8
 8404ec4:	dc000015 	stw	r16,0(sp)
 8404ec8:	dfc00115 	stw	ra,4(sp)
 8404ecc:	3021883a 	mov	r16,r6
 8404ed0:	0007883a 	mov	r3,zero
 8404ed4:	1000061e 	bne	r2,zero,8404ef0 <__sprint_r+0x34>
 8404ed8:	1805883a 	mov	r2,r3
 8404edc:	30000115 	stw	zero,4(r6)
 8404ee0:	dfc00117 	ldw	ra,4(sp)
 8404ee4:	dc000017 	ldw	r16,0(sp)
 8404ee8:	dec00204 	addi	sp,sp,8
 8404eec:	f800283a 	ret
 8404ef0:	840901c0 	call	840901c <__sfvwrite_r>
 8404ef4:	1007883a 	mov	r3,r2
 8404ef8:	1805883a 	mov	r2,r3
 8404efc:	80000115 	stw	zero,4(r16)
 8404f00:	80000215 	stw	zero,8(r16)
 8404f04:	dfc00117 	ldw	ra,4(sp)
 8404f08:	dc000017 	ldw	r16,0(sp)
 8404f0c:	dec00204 	addi	sp,sp,8
 8404f10:	f800283a 	ret

08404f14 <___vfprintf_internal_r>:
 8404f14:	defea404 	addi	sp,sp,-1392
 8404f18:	dd815815 	stw	r22,1376(sp)
 8404f1c:	dc015215 	stw	r16,1352(sp)
 8404f20:	d9c15115 	stw	r7,1348(sp)
 8404f24:	dfc15b15 	stw	ra,1388(sp)
 8404f28:	df015a15 	stw	fp,1384(sp)
 8404f2c:	ddc15915 	stw	r23,1380(sp)
 8404f30:	dd415715 	stw	r21,1372(sp)
 8404f34:	dd015615 	stw	r20,1368(sp)
 8404f38:	dcc15515 	stw	r19,1364(sp)
 8404f3c:	dc815415 	stw	r18,1360(sp)
 8404f40:	dc415315 	stw	r17,1356(sp)
 8404f44:	282d883a 	mov	r22,r5
 8404f48:	3021883a 	mov	r16,r6
 8404f4c:	d9014f15 	stw	r4,1340(sp)
 8404f50:	84096400 	call	8409640 <_localeconv_r>
 8404f54:	10800017 	ldw	r2,0(r2)
 8404f58:	d9c15117 	ldw	r7,1348(sp)
 8404f5c:	d8814915 	stw	r2,1316(sp)
 8404f60:	d8814f17 	ldw	r2,1340(sp)
 8404f64:	10000226 	beq	r2,zero,8404f70 <___vfprintf_internal_r+0x5c>
 8404f68:	10800e17 	ldw	r2,56(r2)
 8404f6c:	10020d26 	beq	r2,zero,84057a4 <___vfprintf_internal_r+0x890>
 8404f70:	b080030b 	ldhu	r2,12(r22)
 8404f74:	1080020c 	andi	r2,r2,8
 8404f78:	10020e26 	beq	r2,zero,84057b4 <___vfprintf_internal_r+0x8a0>
 8404f7c:	b0800417 	ldw	r2,16(r22)
 8404f80:	10020c26 	beq	r2,zero,84057b4 <___vfprintf_internal_r+0x8a0>
 8404f84:	b200030b 	ldhu	r8,12(r22)
 8404f88:	00800284 	movi	r2,10
 8404f8c:	40c0068c 	andi	r3,r8,26
 8404f90:	18802f1e 	bne	r3,r2,8405050 <___vfprintf_internal_r+0x13c>
 8404f94:	b080038f 	ldh	r2,14(r22)
 8404f98:	10002d16 	blt	r2,zero,8405050 <___vfprintf_internal_r+0x13c>
 8404f9c:	b240038b 	ldhu	r9,14(r22)
 8404fa0:	b2800717 	ldw	r10,28(r22)
 8404fa4:	b2c00917 	ldw	r11,36(r22)
 8404fa8:	d9014f17 	ldw	r4,1340(sp)
 8404fac:	dc402904 	addi	r17,sp,164
 8404fb0:	d8804004 	addi	r2,sp,256
 8404fb4:	00c10004 	movi	r3,1024
 8404fb8:	423fff4c 	andi	r8,r8,65533
 8404fbc:	800d883a 	mov	r6,r16
 8404fc0:	880b883a 	mov	r5,r17
 8404fc4:	da002c0d 	sth	r8,176(sp)
 8404fc8:	da402c8d 	sth	r9,178(sp)
 8404fcc:	da803015 	stw	r10,192(sp)
 8404fd0:	dac03215 	stw	r11,200(sp)
 8404fd4:	d8802d15 	stw	r2,180(sp)
 8404fd8:	d8c02e15 	stw	r3,184(sp)
 8404fdc:	d8802915 	stw	r2,164(sp)
 8404fe0:	d8c02b15 	stw	r3,172(sp)
 8404fe4:	d8002f15 	stw	zero,188(sp)
 8404fe8:	8404f140 	call	8404f14 <___vfprintf_internal_r>
 8404fec:	d8814b15 	stw	r2,1324(sp)
 8404ff0:	10000416 	blt	r2,zero,8405004 <___vfprintf_internal_r+0xf0>
 8404ff4:	d9014f17 	ldw	r4,1340(sp)
 8404ff8:	880b883a 	mov	r5,r17
 8404ffc:	84086ec0 	call	84086ec <_fflush_r>
 8405000:	1002321e 	bne	r2,zero,84058cc <___vfprintf_internal_r+0x9b8>
 8405004:	d8802c0b 	ldhu	r2,176(sp)
 8405008:	1080100c 	andi	r2,r2,64
 840500c:	10000326 	beq	r2,zero,840501c <___vfprintf_internal_r+0x108>
 8405010:	b080030b 	ldhu	r2,12(r22)
 8405014:	10801014 	ori	r2,r2,64
 8405018:	b080030d 	sth	r2,12(r22)
 840501c:	d8814b17 	ldw	r2,1324(sp)
 8405020:	dfc15b17 	ldw	ra,1388(sp)
 8405024:	df015a17 	ldw	fp,1384(sp)
 8405028:	ddc15917 	ldw	r23,1380(sp)
 840502c:	dd815817 	ldw	r22,1376(sp)
 8405030:	dd415717 	ldw	r21,1372(sp)
 8405034:	dd015617 	ldw	r20,1368(sp)
 8405038:	dcc15517 	ldw	r19,1364(sp)
 840503c:	dc815417 	ldw	r18,1360(sp)
 8405040:	dc415317 	ldw	r17,1356(sp)
 8405044:	dc015217 	ldw	r16,1352(sp)
 8405048:	dec15c04 	addi	sp,sp,1392
 840504c:	f800283a 	ret
 8405050:	0005883a 	mov	r2,zero
 8405054:	0007883a 	mov	r3,zero
 8405058:	dd401904 	addi	r21,sp,100
 840505c:	d8814215 	stw	r2,1288(sp)
 8405060:	802f883a 	mov	r23,r16
 8405064:	d8c14315 	stw	r3,1292(sp)
 8405068:	d8014b15 	stw	zero,1324(sp)
 840506c:	d8014815 	stw	zero,1312(sp)
 8405070:	d8014415 	stw	zero,1296(sp)
 8405074:	d8014715 	stw	zero,1308(sp)
 8405078:	dd400c15 	stw	r21,48(sp)
 840507c:	d8000e15 	stw	zero,56(sp)
 8405080:	d8000d15 	stw	zero,52(sp)
 8405084:	b8800007 	ldb	r2,0(r23)
 8405088:	10001926 	beq	r2,zero,84050f0 <___vfprintf_internal_r+0x1dc>
 840508c:	00c00944 	movi	r3,37
 8405090:	10c01726 	beq	r2,r3,84050f0 <___vfprintf_internal_r+0x1dc>
 8405094:	b821883a 	mov	r16,r23
 8405098:	00000106 	br	84050a0 <___vfprintf_internal_r+0x18c>
 840509c:	10c00326 	beq	r2,r3,84050ac <___vfprintf_internal_r+0x198>
 84050a0:	84000044 	addi	r16,r16,1
 84050a4:	80800007 	ldb	r2,0(r16)
 84050a8:	103ffc1e 	bne	r2,zero,840509c <___vfprintf_internal_r+0x188>
 84050ac:	85e7c83a 	sub	r19,r16,r23
 84050b0:	98000e26 	beq	r19,zero,84050ec <___vfprintf_internal_r+0x1d8>
 84050b4:	dc800e17 	ldw	r18,56(sp)
 84050b8:	dc400d17 	ldw	r17,52(sp)
 84050bc:	008001c4 	movi	r2,7
 84050c0:	94e5883a 	add	r18,r18,r19
 84050c4:	8c400044 	addi	r17,r17,1
 84050c8:	adc00015 	stw	r23,0(r21)
 84050cc:	dc800e15 	stw	r18,56(sp)
 84050d0:	acc00115 	stw	r19,4(r21)
 84050d4:	dc400d15 	stw	r17,52(sp)
 84050d8:	14428b16 	blt	r2,r17,8405b08 <___vfprintf_internal_r+0xbf4>
 84050dc:	ad400204 	addi	r21,r21,8
 84050e0:	d9014b17 	ldw	r4,1324(sp)
 84050e4:	24c9883a 	add	r4,r4,r19
 84050e8:	d9014b15 	stw	r4,1324(sp)
 84050ec:	802f883a 	mov	r23,r16
 84050f0:	b8800007 	ldb	r2,0(r23)
 84050f4:	10013c26 	beq	r2,zero,84055e8 <___vfprintf_internal_r+0x6d4>
 84050f8:	bdc00044 	addi	r23,r23,1
 84050fc:	d8000405 	stb	zero,16(sp)
 8405100:	b8c00007 	ldb	r3,0(r23)
 8405104:	04ffffc4 	movi	r19,-1
 8405108:	d8014c15 	stw	zero,1328(sp)
 840510c:	d8014a15 	stw	zero,1320(sp)
 8405110:	d8c14d15 	stw	r3,1332(sp)
 8405114:	bdc00044 	addi	r23,r23,1
 8405118:	d9414d17 	ldw	r5,1332(sp)
 840511c:	00801604 	movi	r2,88
 8405120:	28fff804 	addi	r3,r5,-32
 8405124:	10c06036 	bltu	r2,r3,84052a8 <___vfprintf_internal_r+0x394>
 8405128:	18c5883a 	add	r2,r3,r3
 840512c:	1085883a 	add	r2,r2,r2
 8405130:	00c21034 	movhi	r3,2112
 8405134:	18d45104 	addi	r3,r3,20804
 8405138:	10c5883a 	add	r2,r2,r3
 840513c:	11000017 	ldw	r4,0(r2)
 8405140:	2000683a 	jmp	r4
 8405144:	084060b8 	rdprs	at,at,386
 8405148:	084052a8 	cmpgeui	at,at,330
 840514c:	084052a8 	cmpgeui	at,at,330
 8405150:	084060a4 	muli	at,at,386
 8405154:	084052a8 	cmpgeui	at,at,330
 8405158:	084052a8 	cmpgeui	at,at,330
 840515c:	084052a8 	cmpgeui	at,at,330
 8405160:	084052a8 	cmpgeui	at,at,330
 8405164:	084052a8 	cmpgeui	at,at,330
 8405168:	084052a8 	cmpgeui	at,at,330
 840516c:	08405e84 	addi	at,at,378
 8405170:	08406094 	ori	at,at,386
 8405174:	084052a8 	cmpgeui	at,at,330
 8405178:	08405e9c 	xori	at,at,378
 840517c:	08406130 	cmpltui	at,at,388
 8405180:	084052a8 	cmpgeui	at,at,330
 8405184:	0840611c 	xori	at,at,388
 8405188:	084060e4 	muli	at,at,387
 840518c:	084060e4 	muli	at,at,387
 8405190:	084060e4 	muli	at,at,387
 8405194:	084060e4 	muli	at,at,387
 8405198:	084060e4 	muli	at,at,387
 840519c:	084060e4 	muli	at,at,387
 84051a0:	084060e4 	muli	at,at,387
 84051a4:	084060e4 	muli	at,at,387
 84051a8:	084060e4 	muli	at,at,387
 84051ac:	084052a8 	cmpgeui	at,at,330
 84051b0:	084052a8 	cmpgeui	at,at,330
 84051b4:	084052a8 	cmpgeui	at,at,330
 84051b8:	084052a8 	cmpgeui	at,at,330
 84051bc:	084052a8 	cmpgeui	at,at,330
 84051c0:	084052a8 	cmpgeui	at,at,330
 84051c4:	084052a8 	cmpgeui	at,at,330
 84051c8:	084052a8 	cmpgeui	at,at,330
 84051cc:	084052a8 	cmpgeui	at,at,330
 84051d0:	084052a8 	cmpgeui	at,at,330
 84051d4:	08405900 	call	840590 <__alt_mem_onchip_memory2_3+0x839590>
 84051d8:	08405f6c 	andhi	at,at,381
 84051dc:	084052a8 	cmpgeui	at,at,330
 84051e0:	08405f6c 	andhi	at,at,381
 84051e4:	084052a8 	cmpgeui	at,at,330
 84051e8:	084052a8 	cmpgeui	at,at,330
 84051ec:	084052a8 	cmpgeui	at,at,330
 84051f0:	084052a8 	cmpgeui	at,at,330
 84051f4:	084060d0 	cmplti	at,at,387
 84051f8:	084052a8 	cmpgeui	at,at,330
 84051fc:	084052a8 	cmpgeui	at,at,330
 8405200:	084059b4 	orhi	at,at,358
 8405204:	084052a8 	cmpgeui	at,at,330
 8405208:	084052a8 	cmpgeui	at,at,330
 840520c:	084052a8 	cmpgeui	at,at,330
 8405210:	084052a8 	cmpgeui	at,at,330
 8405214:	084052a8 	cmpgeui	at,at,330
 8405218:	08405a00 	call	8405a0 <__alt_mem_onchip_memory2_3+0x8395a0>
 840521c:	084052a8 	cmpgeui	at,at,330
 8405220:	084052a8 	cmpgeui	at,at,330
 8405224:	08406020 	cmpeqi	at,at,384
 8405228:	084052a8 	cmpgeui	at,at,330
 840522c:	084052a8 	cmpgeui	at,at,330
 8405230:	084052a8 	cmpgeui	at,at,330
 8405234:	084052a8 	cmpgeui	at,at,330
 8405238:	084052a8 	cmpgeui	at,at,330
 840523c:	084052a8 	cmpgeui	at,at,330
 8405240:	084052a8 	cmpgeui	at,at,330
 8405244:	084052a8 	cmpgeui	at,at,330
 8405248:	084052a8 	cmpgeui	at,at,330
 840524c:	084052a8 	cmpgeui	at,at,330
 8405250:	08405ff4 	orhi	at,at,383
 8405254:	0840590c 	andi	at,at,356
 8405258:	08405f6c 	andhi	at,at,381
 840525c:	08405f6c 	andhi	at,at,381
 8405260:	08405f6c 	andhi	at,at,381
 8405264:	08405f58 	cmpnei	at,at,381
 8405268:	0840590c 	andi	at,at,356
 840526c:	084052a8 	cmpgeui	at,at,330
 8405270:	084052a8 	cmpgeui	at,at,330
 8405274:	08405ee0 	cmpeqi	at,at,379
 8405278:	084052a8 	cmpgeui	at,at,330
 840527c:	08405eb0 	cmpltui	at,at,378
 8405280:	084059c0 	call	84059c <__alt_mem_onchip_memory2_3+0x83959c>
 8405284:	08405f10 	cmplti	at,at,380
 8405288:	08405efc 	xorhi	at,at,379
 840528c:	084052a8 	cmpgeui	at,at,330
 8405290:	0840618c 	andi	at,at,390
 8405294:	084052a8 	cmpgeui	at,at,330
 8405298:	08405a0c 	andi	at,at,360
 840529c:	084052a8 	cmpgeui	at,at,330
 84052a0:	084052a8 	cmpgeui	at,at,330
 84052a4:	08406084 	addi	at,at,386
 84052a8:	d9014d17 	ldw	r4,1332(sp)
 84052ac:	2000ce26 	beq	r4,zero,84055e8 <___vfprintf_internal_r+0x6d4>
 84052b0:	01400044 	movi	r5,1
 84052b4:	d9800f04 	addi	r6,sp,60
 84052b8:	d9c14015 	stw	r7,1280(sp)
 84052bc:	d9414515 	stw	r5,1300(sp)
 84052c0:	d9814115 	stw	r6,1284(sp)
 84052c4:	280f883a 	mov	r7,r5
 84052c8:	d9000f05 	stb	r4,60(sp)
 84052cc:	d8000405 	stb	zero,16(sp)
 84052d0:	d8014615 	stw	zero,1304(sp)
 84052d4:	d8c14c17 	ldw	r3,1328(sp)
 84052d8:	1880008c 	andi	r2,r3,2
 84052dc:	1005003a 	cmpeq	r2,r2,zero
 84052e0:	d8815015 	stw	r2,1344(sp)
 84052e4:	1000031e 	bne	r2,zero,84052f4 <___vfprintf_internal_r+0x3e0>
 84052e8:	d9014517 	ldw	r4,1300(sp)
 84052ec:	21000084 	addi	r4,r4,2
 84052f0:	d9014515 	stw	r4,1300(sp)
 84052f4:	d9414c17 	ldw	r5,1328(sp)
 84052f8:	2940210c 	andi	r5,r5,132
 84052fc:	d9414e15 	stw	r5,1336(sp)
 8405300:	28002d1e 	bne	r5,zero,84053b8 <___vfprintf_internal_r+0x4a4>
 8405304:	d9814a17 	ldw	r6,1320(sp)
 8405308:	d8814517 	ldw	r2,1300(sp)
 840530c:	30a1c83a 	sub	r16,r6,r2
 8405310:	0400290e 	bge	zero,r16,84053b8 <___vfprintf_internal_r+0x4a4>
 8405314:	00800404 	movi	r2,16
 8405318:	1404580e 	bge	r2,r16,840647c <___vfprintf_internal_r+0x1568>
 840531c:	dc800e17 	ldw	r18,56(sp)
 8405320:	dc400d17 	ldw	r17,52(sp)
 8405324:	1027883a 	mov	r19,r2
 8405328:	07021074 	movhi	fp,2113
 840532c:	e706bf84 	addi	fp,fp,6910
 8405330:	050001c4 	movi	r20,7
 8405334:	00000306 	br	8405344 <___vfprintf_internal_r+0x430>
 8405338:	843ffc04 	addi	r16,r16,-16
 840533c:	ad400204 	addi	r21,r21,8
 8405340:	9c00130e 	bge	r19,r16,8405390 <___vfprintf_internal_r+0x47c>
 8405344:	94800404 	addi	r18,r18,16
 8405348:	8c400044 	addi	r17,r17,1
 840534c:	af000015 	stw	fp,0(r21)
 8405350:	acc00115 	stw	r19,4(r21)
 8405354:	dc800e15 	stw	r18,56(sp)
 8405358:	dc400d15 	stw	r17,52(sp)
 840535c:	a47ff60e 	bge	r20,r17,8405338 <___vfprintf_internal_r+0x424>
 8405360:	d9014f17 	ldw	r4,1340(sp)
 8405364:	b00b883a 	mov	r5,r22
 8405368:	d9800c04 	addi	r6,sp,48
 840536c:	d9c15115 	stw	r7,1348(sp)
 8405370:	8404ebc0 	call	8404ebc <__sprint_r>
 8405374:	d9c15117 	ldw	r7,1348(sp)
 8405378:	10009e1e 	bne	r2,zero,84055f4 <___vfprintf_internal_r+0x6e0>
 840537c:	843ffc04 	addi	r16,r16,-16
 8405380:	dc800e17 	ldw	r18,56(sp)
 8405384:	dc400d17 	ldw	r17,52(sp)
 8405388:	dd401904 	addi	r21,sp,100
 840538c:	9c3fed16 	blt	r19,r16,8405344 <___vfprintf_internal_r+0x430>
 8405390:	9425883a 	add	r18,r18,r16
 8405394:	8c400044 	addi	r17,r17,1
 8405398:	008001c4 	movi	r2,7
 840539c:	af000015 	stw	fp,0(r21)
 84053a0:	ac000115 	stw	r16,4(r21)
 84053a4:	dc800e15 	stw	r18,56(sp)
 84053a8:	dc400d15 	stw	r17,52(sp)
 84053ac:	1441f516 	blt	r2,r17,8405b84 <___vfprintf_internal_r+0xc70>
 84053b0:	ad400204 	addi	r21,r21,8
 84053b4:	00000206 	br	84053c0 <___vfprintf_internal_r+0x4ac>
 84053b8:	dc800e17 	ldw	r18,56(sp)
 84053bc:	dc400d17 	ldw	r17,52(sp)
 84053c0:	d8800407 	ldb	r2,16(sp)
 84053c4:	10000b26 	beq	r2,zero,84053f4 <___vfprintf_internal_r+0x4e0>
 84053c8:	00800044 	movi	r2,1
 84053cc:	94800044 	addi	r18,r18,1
 84053d0:	8c400044 	addi	r17,r17,1
 84053d4:	a8800115 	stw	r2,4(r21)
 84053d8:	d8c00404 	addi	r3,sp,16
 84053dc:	008001c4 	movi	r2,7
 84053e0:	a8c00015 	stw	r3,0(r21)
 84053e4:	dc800e15 	stw	r18,56(sp)
 84053e8:	dc400d15 	stw	r17,52(sp)
 84053ec:	1441da16 	blt	r2,r17,8405b58 <___vfprintf_internal_r+0xc44>
 84053f0:	ad400204 	addi	r21,r21,8
 84053f4:	d9015017 	ldw	r4,1344(sp)
 84053f8:	20000b1e 	bne	r4,zero,8405428 <___vfprintf_internal_r+0x514>
 84053fc:	d8800444 	addi	r2,sp,17
 8405400:	94800084 	addi	r18,r18,2
 8405404:	8c400044 	addi	r17,r17,1
 8405408:	a8800015 	stw	r2,0(r21)
 840540c:	00c00084 	movi	r3,2
 8405410:	008001c4 	movi	r2,7
 8405414:	a8c00115 	stw	r3,4(r21)
 8405418:	dc800e15 	stw	r18,56(sp)
 840541c:	dc400d15 	stw	r17,52(sp)
 8405420:	1441c216 	blt	r2,r17,8405b2c <___vfprintf_internal_r+0xc18>
 8405424:	ad400204 	addi	r21,r21,8
 8405428:	d9414e17 	ldw	r5,1336(sp)
 840542c:	00802004 	movi	r2,128
 8405430:	2880b126 	beq	r5,r2,84056f8 <___vfprintf_internal_r+0x7e4>
 8405434:	d8c14617 	ldw	r3,1304(sp)
 8405438:	19e1c83a 	sub	r16,r3,r7
 840543c:	0400260e 	bge	zero,r16,84054d8 <___vfprintf_internal_r+0x5c4>
 8405440:	00800404 	movi	r2,16
 8405444:	1403c90e 	bge	r2,r16,840636c <___vfprintf_internal_r+0x1458>
 8405448:	1027883a 	mov	r19,r2
 840544c:	07021074 	movhi	fp,2113
 8405450:	e706bb84 	addi	fp,fp,6894
 8405454:	050001c4 	movi	r20,7
 8405458:	00000306 	br	8405468 <___vfprintf_internal_r+0x554>
 840545c:	843ffc04 	addi	r16,r16,-16
 8405460:	ad400204 	addi	r21,r21,8
 8405464:	9c00130e 	bge	r19,r16,84054b4 <___vfprintf_internal_r+0x5a0>
 8405468:	94800404 	addi	r18,r18,16
 840546c:	8c400044 	addi	r17,r17,1
 8405470:	af000015 	stw	fp,0(r21)
 8405474:	acc00115 	stw	r19,4(r21)
 8405478:	dc800e15 	stw	r18,56(sp)
 840547c:	dc400d15 	stw	r17,52(sp)
 8405480:	a47ff60e 	bge	r20,r17,840545c <___vfprintf_internal_r+0x548>
 8405484:	d9014f17 	ldw	r4,1340(sp)
 8405488:	b00b883a 	mov	r5,r22
 840548c:	d9800c04 	addi	r6,sp,48
 8405490:	d9c15115 	stw	r7,1348(sp)
 8405494:	8404ebc0 	call	8404ebc <__sprint_r>
 8405498:	d9c15117 	ldw	r7,1348(sp)
 840549c:	1000551e 	bne	r2,zero,84055f4 <___vfprintf_internal_r+0x6e0>
 84054a0:	843ffc04 	addi	r16,r16,-16
 84054a4:	dc800e17 	ldw	r18,56(sp)
 84054a8:	dc400d17 	ldw	r17,52(sp)
 84054ac:	dd401904 	addi	r21,sp,100
 84054b0:	9c3fed16 	blt	r19,r16,8405468 <___vfprintf_internal_r+0x554>
 84054b4:	9425883a 	add	r18,r18,r16
 84054b8:	8c400044 	addi	r17,r17,1
 84054bc:	008001c4 	movi	r2,7
 84054c0:	af000015 	stw	fp,0(r21)
 84054c4:	ac000115 	stw	r16,4(r21)
 84054c8:	dc800e15 	stw	r18,56(sp)
 84054cc:	dc400d15 	stw	r17,52(sp)
 84054d0:	14418216 	blt	r2,r17,8405adc <___vfprintf_internal_r+0xbc8>
 84054d4:	ad400204 	addi	r21,r21,8
 84054d8:	d9014c17 	ldw	r4,1328(sp)
 84054dc:	2080400c 	andi	r2,r4,256
 84054e0:	10004a1e 	bne	r2,zero,840560c <___vfprintf_internal_r+0x6f8>
 84054e4:	d9414117 	ldw	r5,1284(sp)
 84054e8:	91e5883a 	add	r18,r18,r7
 84054ec:	8c400044 	addi	r17,r17,1
 84054f0:	008001c4 	movi	r2,7
 84054f4:	a9400015 	stw	r5,0(r21)
 84054f8:	a9c00115 	stw	r7,4(r21)
 84054fc:	dc800e15 	stw	r18,56(sp)
 8405500:	dc400d15 	stw	r17,52(sp)
 8405504:	14416716 	blt	r2,r17,8405aa4 <___vfprintf_internal_r+0xb90>
 8405508:	a8c00204 	addi	r3,r21,8
 840550c:	d9814c17 	ldw	r6,1328(sp)
 8405510:	3080010c 	andi	r2,r6,4
 8405514:	10002826 	beq	r2,zero,84055b8 <___vfprintf_internal_r+0x6a4>
 8405518:	d8814a17 	ldw	r2,1320(sp)
 840551c:	d9014517 	ldw	r4,1300(sp)
 8405520:	1121c83a 	sub	r16,r2,r4
 8405524:	0400240e 	bge	zero,r16,84055b8 <___vfprintf_internal_r+0x6a4>
 8405528:	00800404 	movi	r2,16
 840552c:	14044f0e 	bge	r2,r16,840666c <___vfprintf_internal_r+0x1758>
 8405530:	dc400d17 	ldw	r17,52(sp)
 8405534:	1027883a 	mov	r19,r2
 8405538:	07021074 	movhi	fp,2113
 840553c:	e706bf84 	addi	fp,fp,6910
 8405540:	050001c4 	movi	r20,7
 8405544:	00000306 	br	8405554 <___vfprintf_internal_r+0x640>
 8405548:	843ffc04 	addi	r16,r16,-16
 840554c:	18c00204 	addi	r3,r3,8
 8405550:	9c00110e 	bge	r19,r16,8405598 <___vfprintf_internal_r+0x684>
 8405554:	94800404 	addi	r18,r18,16
 8405558:	8c400044 	addi	r17,r17,1
 840555c:	1f000015 	stw	fp,0(r3)
 8405560:	1cc00115 	stw	r19,4(r3)
 8405564:	dc800e15 	stw	r18,56(sp)
 8405568:	dc400d15 	stw	r17,52(sp)
 840556c:	a47ff60e 	bge	r20,r17,8405548 <___vfprintf_internal_r+0x634>
 8405570:	d9014f17 	ldw	r4,1340(sp)
 8405574:	b00b883a 	mov	r5,r22
 8405578:	d9800c04 	addi	r6,sp,48
 840557c:	8404ebc0 	call	8404ebc <__sprint_r>
 8405580:	10001c1e 	bne	r2,zero,84055f4 <___vfprintf_internal_r+0x6e0>
 8405584:	843ffc04 	addi	r16,r16,-16
 8405588:	dc800e17 	ldw	r18,56(sp)
 840558c:	dc400d17 	ldw	r17,52(sp)
 8405590:	d8c01904 	addi	r3,sp,100
 8405594:	9c3fef16 	blt	r19,r16,8405554 <___vfprintf_internal_r+0x640>
 8405598:	9425883a 	add	r18,r18,r16
 840559c:	8c400044 	addi	r17,r17,1
 84055a0:	008001c4 	movi	r2,7
 84055a4:	1f000015 	stw	fp,0(r3)
 84055a8:	1c000115 	stw	r16,4(r3)
 84055ac:	dc800e15 	stw	r18,56(sp)
 84055b0:	dc400d15 	stw	r17,52(sp)
 84055b4:	1440cb16 	blt	r2,r17,84058e4 <___vfprintf_internal_r+0x9d0>
 84055b8:	d8814a17 	ldw	r2,1320(sp)
 84055bc:	d9414517 	ldw	r5,1300(sp)
 84055c0:	1140010e 	bge	r2,r5,84055c8 <___vfprintf_internal_r+0x6b4>
 84055c4:	2805883a 	mov	r2,r5
 84055c8:	d9814b17 	ldw	r6,1324(sp)
 84055cc:	308d883a 	add	r6,r6,r2
 84055d0:	d9814b15 	stw	r6,1324(sp)
 84055d4:	90013b1e 	bne	r18,zero,8405ac4 <___vfprintf_internal_r+0xbb0>
 84055d8:	d9c14017 	ldw	r7,1280(sp)
 84055dc:	dd401904 	addi	r21,sp,100
 84055e0:	d8000d15 	stw	zero,52(sp)
 84055e4:	003ea706 	br	8405084 <___vfprintf_internal_r+0x170>
 84055e8:	d8800e17 	ldw	r2,56(sp)
 84055ec:	10053f1e 	bne	r2,zero,8406aec <___vfprintf_internal_r+0x1bd8>
 84055f0:	d8000d15 	stw	zero,52(sp)
 84055f4:	b080030b 	ldhu	r2,12(r22)
 84055f8:	1080100c 	andi	r2,r2,64
 84055fc:	103e8726 	beq	r2,zero,840501c <___vfprintf_internal_r+0x108>
 8405600:	00bfffc4 	movi	r2,-1
 8405604:	d8814b15 	stw	r2,1324(sp)
 8405608:	003e8406 	br	840501c <___vfprintf_internal_r+0x108>
 840560c:	d9814d17 	ldw	r6,1332(sp)
 8405610:	00801944 	movi	r2,101
 8405614:	11806e16 	blt	r2,r6,84057d0 <___vfprintf_internal_r+0x8bc>
 8405618:	d9414717 	ldw	r5,1308(sp)
 840561c:	00c00044 	movi	r3,1
 8405620:	1943430e 	bge	r3,r5,8406330 <___vfprintf_internal_r+0x141c>
 8405624:	d8814117 	ldw	r2,1284(sp)
 8405628:	94800044 	addi	r18,r18,1
 840562c:	8c400044 	addi	r17,r17,1
 8405630:	a8800015 	stw	r2,0(r21)
 8405634:	008001c4 	movi	r2,7
 8405638:	a8c00115 	stw	r3,4(r21)
 840563c:	dc800e15 	stw	r18,56(sp)
 8405640:	dc400d15 	stw	r17,52(sp)
 8405644:	1441ca16 	blt	r2,r17,8405d70 <___vfprintf_internal_r+0xe5c>
 8405648:	a8c00204 	addi	r3,r21,8
 840564c:	d9014917 	ldw	r4,1316(sp)
 8405650:	00800044 	movi	r2,1
 8405654:	94800044 	addi	r18,r18,1
 8405658:	8c400044 	addi	r17,r17,1
 840565c:	18800115 	stw	r2,4(r3)
 8405660:	008001c4 	movi	r2,7
 8405664:	19000015 	stw	r4,0(r3)
 8405668:	dc800e15 	stw	r18,56(sp)
 840566c:	dc400d15 	stw	r17,52(sp)
 8405670:	1441b616 	blt	r2,r17,8405d4c <___vfprintf_internal_r+0xe38>
 8405674:	1cc00204 	addi	r19,r3,8
 8405678:	d9014217 	ldw	r4,1288(sp)
 840567c:	d9414317 	ldw	r5,1292(sp)
 8405680:	000d883a 	mov	r6,zero
 8405684:	000f883a 	mov	r7,zero
 8405688:	8403ed40 	call	8403ed4 <__nedf2>
 840568c:	10017426 	beq	r2,zero,8405c60 <___vfprintf_internal_r+0xd4c>
 8405690:	d9414717 	ldw	r5,1308(sp)
 8405694:	d9814117 	ldw	r6,1284(sp)
 8405698:	8c400044 	addi	r17,r17,1
 840569c:	2c85883a 	add	r2,r5,r18
 84056a0:	14bfffc4 	addi	r18,r2,-1
 84056a4:	28bfffc4 	addi	r2,r5,-1
 84056a8:	30c00044 	addi	r3,r6,1
 84056ac:	98800115 	stw	r2,4(r19)
 84056b0:	008001c4 	movi	r2,7
 84056b4:	98c00015 	stw	r3,0(r19)
 84056b8:	dc800e15 	stw	r18,56(sp)
 84056bc:	dc400d15 	stw	r17,52(sp)
 84056c0:	14418e16 	blt	r2,r17,8405cfc <___vfprintf_internal_r+0xde8>
 84056c4:	9cc00204 	addi	r19,r19,8
 84056c8:	d9414817 	ldw	r5,1312(sp)
 84056cc:	d8800804 	addi	r2,sp,32
 84056d0:	8c400044 	addi	r17,r17,1
 84056d4:	9165883a 	add	r18,r18,r5
 84056d8:	98800015 	stw	r2,0(r19)
 84056dc:	008001c4 	movi	r2,7
 84056e0:	99400115 	stw	r5,4(r19)
 84056e4:	dc800e15 	stw	r18,56(sp)
 84056e8:	dc400d15 	stw	r17,52(sp)
 84056ec:	1440ed16 	blt	r2,r17,8405aa4 <___vfprintf_internal_r+0xb90>
 84056f0:	98c00204 	addi	r3,r19,8
 84056f4:	003f8506 	br	840550c <___vfprintf_internal_r+0x5f8>
 84056f8:	d9814a17 	ldw	r6,1320(sp)
 84056fc:	d8814517 	ldw	r2,1300(sp)
 8405700:	30a1c83a 	sub	r16,r6,r2
 8405704:	043f4b0e 	bge	zero,r16,8405434 <___vfprintf_internal_r+0x520>
 8405708:	00800404 	movi	r2,16
 840570c:	1404340e 	bge	r2,r16,84067e0 <___vfprintf_internal_r+0x18cc>
 8405710:	1027883a 	mov	r19,r2
 8405714:	07021074 	movhi	fp,2113
 8405718:	e706bb84 	addi	fp,fp,6894
 840571c:	050001c4 	movi	r20,7
 8405720:	00000306 	br	8405730 <___vfprintf_internal_r+0x81c>
 8405724:	843ffc04 	addi	r16,r16,-16
 8405728:	ad400204 	addi	r21,r21,8
 840572c:	9c00130e 	bge	r19,r16,840577c <___vfprintf_internal_r+0x868>
 8405730:	94800404 	addi	r18,r18,16
 8405734:	8c400044 	addi	r17,r17,1
 8405738:	af000015 	stw	fp,0(r21)
 840573c:	acc00115 	stw	r19,4(r21)
 8405740:	dc800e15 	stw	r18,56(sp)
 8405744:	dc400d15 	stw	r17,52(sp)
 8405748:	a47ff60e 	bge	r20,r17,8405724 <___vfprintf_internal_r+0x810>
 840574c:	d9014f17 	ldw	r4,1340(sp)
 8405750:	b00b883a 	mov	r5,r22
 8405754:	d9800c04 	addi	r6,sp,48
 8405758:	d9c15115 	stw	r7,1348(sp)
 840575c:	8404ebc0 	call	8404ebc <__sprint_r>
 8405760:	d9c15117 	ldw	r7,1348(sp)
 8405764:	103fa31e 	bne	r2,zero,84055f4 <___vfprintf_internal_r+0x6e0>
 8405768:	843ffc04 	addi	r16,r16,-16
 840576c:	dc800e17 	ldw	r18,56(sp)
 8405770:	dc400d17 	ldw	r17,52(sp)
 8405774:	dd401904 	addi	r21,sp,100
 8405778:	9c3fed16 	blt	r19,r16,8405730 <___vfprintf_internal_r+0x81c>
 840577c:	9425883a 	add	r18,r18,r16
 8405780:	8c400044 	addi	r17,r17,1
 8405784:	008001c4 	movi	r2,7
 8405788:	af000015 	stw	fp,0(r21)
 840578c:	ac000115 	stw	r16,4(r21)
 8405790:	dc800e15 	stw	r18,56(sp)
 8405794:	dc400d15 	stw	r17,52(sp)
 8405798:	14416116 	blt	r2,r17,8405d20 <___vfprintf_internal_r+0xe0c>
 840579c:	ad400204 	addi	r21,r21,8
 84057a0:	003f2406 	br	8405434 <___vfprintf_internal_r+0x520>
 84057a4:	d9014f17 	ldw	r4,1340(sp)
 84057a8:	84089840 	call	8408984 <__sinit>
 84057ac:	d9c15117 	ldw	r7,1348(sp)
 84057b0:	003def06 	br	8404f70 <___vfprintf_internal_r+0x5c>
 84057b4:	d9014f17 	ldw	r4,1340(sp)
 84057b8:	b00b883a 	mov	r5,r22
 84057bc:	d9c15115 	stw	r7,1348(sp)
 84057c0:	8406de40 	call	8406de4 <__swsetup_r>
 84057c4:	d9c15117 	ldw	r7,1348(sp)
 84057c8:	103dee26 	beq	r2,zero,8404f84 <___vfprintf_internal_r+0x70>
 84057cc:	003f8c06 	br	8405600 <___vfprintf_internal_r+0x6ec>
 84057d0:	d9014217 	ldw	r4,1288(sp)
 84057d4:	d9414317 	ldw	r5,1292(sp)
 84057d8:	000d883a 	mov	r6,zero
 84057dc:	000f883a 	mov	r7,zero
 84057e0:	8403e4c0 	call	8403e4c <__eqdf2>
 84057e4:	1000f21e 	bne	r2,zero,8405bb0 <___vfprintf_internal_r+0xc9c>
 84057e8:	00821074 	movhi	r2,2113
 84057ec:	1086bb04 	addi	r2,r2,6892
 84057f0:	94800044 	addi	r18,r18,1
 84057f4:	8c400044 	addi	r17,r17,1
 84057f8:	a8800015 	stw	r2,0(r21)
 84057fc:	00c00044 	movi	r3,1
 8405800:	008001c4 	movi	r2,7
 8405804:	a8c00115 	stw	r3,4(r21)
 8405808:	dc800e15 	stw	r18,56(sp)
 840580c:	dc400d15 	stw	r17,52(sp)
 8405810:	1442fa16 	blt	r2,r17,84063fc <___vfprintf_internal_r+0x14e8>
 8405814:	a8c00204 	addi	r3,r21,8
 8405818:	d8800517 	ldw	r2,20(sp)
 840581c:	d9014717 	ldw	r4,1308(sp)
 8405820:	11015c0e 	bge	r2,r4,8405d94 <___vfprintf_internal_r+0xe80>
 8405824:	dc400d17 	ldw	r17,52(sp)
 8405828:	d9814917 	ldw	r6,1316(sp)
 840582c:	00800044 	movi	r2,1
 8405830:	94800044 	addi	r18,r18,1
 8405834:	8c400044 	addi	r17,r17,1
 8405838:	18800115 	stw	r2,4(r3)
 840583c:	008001c4 	movi	r2,7
 8405840:	19800015 	stw	r6,0(r3)
 8405844:	dc800e15 	stw	r18,56(sp)
 8405848:	dc400d15 	stw	r17,52(sp)
 840584c:	14431016 	blt	r2,r17,8406490 <___vfprintf_internal_r+0x157c>
 8405850:	18c00204 	addi	r3,r3,8
 8405854:	d8814717 	ldw	r2,1308(sp)
 8405858:	143fffc4 	addi	r16,r2,-1
 840585c:	043f2b0e 	bge	zero,r16,840550c <___vfprintf_internal_r+0x5f8>
 8405860:	00800404 	movi	r2,16
 8405864:	1402a20e 	bge	r2,r16,84062f0 <___vfprintf_internal_r+0x13dc>
 8405868:	dc400d17 	ldw	r17,52(sp)
 840586c:	1027883a 	mov	r19,r2
 8405870:	07021074 	movhi	fp,2113
 8405874:	e706bb84 	addi	fp,fp,6894
 8405878:	050001c4 	movi	r20,7
 840587c:	00000306 	br	840588c <___vfprintf_internal_r+0x978>
 8405880:	18c00204 	addi	r3,r3,8
 8405884:	843ffc04 	addi	r16,r16,-16
 8405888:	9c029c0e 	bge	r19,r16,84062fc <___vfprintf_internal_r+0x13e8>
 840588c:	94800404 	addi	r18,r18,16
 8405890:	8c400044 	addi	r17,r17,1
 8405894:	1f000015 	stw	fp,0(r3)
 8405898:	1cc00115 	stw	r19,4(r3)
 840589c:	dc800e15 	stw	r18,56(sp)
 84058a0:	dc400d15 	stw	r17,52(sp)
 84058a4:	a47ff60e 	bge	r20,r17,8405880 <___vfprintf_internal_r+0x96c>
 84058a8:	d9014f17 	ldw	r4,1340(sp)
 84058ac:	b00b883a 	mov	r5,r22
 84058b0:	d9800c04 	addi	r6,sp,48
